Fc:_glClearStencil
h0d:_Array_InternalArray__ICollection_Add_TisMark_t2724874473_m1613484179_gshared
fKh:__ZL80Graphic_t2426225576_CustomAttributesCacheGenerator_Graphic_OnFillVBO_m1723985607P21CustomAttributesCache
KFf:_RuntimeTypeHandle_GetObjectData_m3567098501
rAj:__ZN6il2cpp2vm5Array13GetByteLengthEP11Il2CppArray
ERh:_Raycast3DCallback_BeginInvoke_m3028685017
pZf:__Z79RuntimeInvoker_RuntimeObject_Int64_t909078037_Int64_t909078037_Int64_t909078037PFvvEPK10MethodInfoPvPS4_
q3g:_EqualityComparer_1__cctor_m968537130_gshared
TJi:_TextGenerator_get_lineCount_m4287181941
l9e:_Comparison_1_Invoke_m353639462_gshared
rTf:_UInt64_System_IConvertible_ToDecimal_m4205696037
bld:_GraphicRegistry_RegisterGraphicForCanvas_m2284226562
fIa:__Z21SourceMipLevelForBlitiiii
Xlb:__ZN31CanvasBatchIntermediateRenderer15AddAsRenderNodeER15RenderNodeQueueRK20DeprecatedSourceData
yFd:_Enumerator_get_Key_m2908810861
V$h:_AnimatorControllerPlayable_SetBool_m1780824884_AdjustorThunk
xF:__ZN23AnimationOffsetPlayable11SetRotationE11Quaternionf
cs:__ZN11UnityEngine9Animation28GenericAnimationBindingCacheD2Ev
x_h:_AnimationOffsetPlayable_op_Explicit_m363086289
NGe:_List_1_System_Collections_IList_IndexOf_m39706221_gshared
nZg:_Dictionary_2_Remove_m1849931834_gshared
bId:_Decimal_op_Implicit_m2971610317
zid:_Graphic_UnregisterDirtyVerticesCallback_m1526739224
m8a:__Z18RestoreRenderStateR20CameraRenderOldStateR17ShaderPassContext
dBd:_SynchronizedArrayListWrapper_get_Item_m3309425850
GNb:__Z18Transfer_BlittableI18StreamedBinaryReadILb1EELb1E5RectTIfEEvRK29SerializationCommandArgumentsR31RuntimeSerializationCommandInfo
WJb:__Z18Transfer_BlittableI24GenerateTypeTreeTransferLb0E11ColorRGBA32EvRK29SerializationCommandArgumentsR31RuntimeSerializationCommandInfo
p4:__Z25scripting_class_from_name17ScriptingImagePtrPKcS1_
Wmj:__ZN14dense_hash_mapI10KeyWrapperINSt3__24pairIPK12PropertyInfoP11Il2CppClassEEEj17ReflectionMapHashIS8_ENS9_14EqualsComparerINS1_8equal_toIS8_EEEENS1_9allocatorINS2_IKS9_jEEEEE15set_deleted_keyERSH_
QCb:__Z29scripting_class_enum_basetype17ScriptingClassPtr
O8f:__Z111RuntimeInvoker_Void_t1841601450_Vector4_t2243707581_Vector4_t2243707581_Vector4_t2243707581_Vector4_t2243707581PFvvEPK10MethodInfoPvPS4_
Bug:_GenericTypeParameterBuilder_GetHashCode_m867619899
yPf:_TimeSpan_ToString_m2947282901
J2g:_EqualityComparer_1__cctor_m3397254040_gshared
yea:__ZNK20LocalFileSystemPosix6ParentERK13FileEntryDataRN4core12basic_stringIcNS3_20StringStorageDefaultIcEEEE
NJi:_TextGenerator_get_verts_m3124035267
uMi:_Vector2_get_one_m3174311904
x5d:_Array_Sort_TisVector2_t2243707579_m1307634946_gshared
Mxa:__ZN17PersistentManager22CheckInstanceIDsLoadedEPii
$Fa:__ZN7ApiGLES17CopyBufferSubDataEjjlll
vnb:__ZNK20ScriptPlayableOutput7GetTypeEv
E0i:_U3CCreateWhereIteratorU3Ec__Iterator1D_1_Reset_m1773515612_gshared
J$a:__ZN25CameraStackRenderingState20GetOrCreateBuiltinRTE24BuiltinRenderTextureTypeii17DepthBufferFormat19RenderTextureFormatj22RenderTextureReadWrite14VRTextureUsagei
vTi:_AesManaged_CreateEncryptor_m1729287824
n4a:__ZN17PrePassRenderLoop14RenderBasePassEP13RenderTextureRK14LightingLayersR13dynamic_arrayI16RenderObjectDataLj4EERbR10MinMaxAABB
iyd:_Char_System_IConvertible_ToInt16_m2741348777_AdjustorThunk
Ukc:__ZN5IMGUI18RepaintModalWindowER8GUIState
$1e:_ReadOnlyCollection_1_System_Collections_Generic_IListU3CTU3E_set_Item_m1547026160_gshared
c8g:__ZL61MarshalAsAttribute_t2900773360_CustomAttributesCacheGeneratorP21CustomAttributesCache
btb:__Z23SetSpriteMeshIndexCountP14SharedMeshDataj
Rha:__ZN7Texture13SetFilterModeEi
cbc:__Z46Register_UnityEngine_Application_get_isPlayingv
WBj:__ZN6il2cpp8metadata13GenericMethod9GetMethodEPK19Il2CppGenericMethod
Iq:__ZNSt3__26vectorIN4core12basic_stringIcNS1_20StringStorageDefaultIcEEEENS_9allocatorIS5_EEE7reserveEj
vKd:_Convert_ToUInt16_m2130758075
cjj:__ZN15dense_hashtableINSt3__24pairIK10KeyWrapperINS1_IPK11Il2CppImageP11Il2CppClassEEEjEES9_17ReflectionMapHashIS8_EN14dense_hash_mapIS9_jSD_NS9_14EqualsComparerINS0_8equal_toIS8_EEEENS0_9allocatorISB_EEE9SelectKeyESI_SK_E3endEv
pag:__Z132RuntimeInvoker_Void_t1841601450_RuntimeObject_AnimatorStateInfo_t2577870592_Int32_t2071877448_AnimatorControllerPlayable_t1744083903PFvvEPK10MethodInfoPvPS4_
rsf:_X509BasicConstraintsExtension_Encode_m3505127076
SAa:__ZN13GfxDeviceGLES11SetViewportERK5RectTIiE
xnd:_Image_get_pixelsPerUnit_m4104195799
$Xh:_Toggle_InternalToggle_m2323729210
mOd:_Decimal_System_IConvertible_ToInt64_m2504363272
vic:__Z24Time_Get_Custom_PropTimev
qtd:_Array_GetValue_m3182152438
Wd:_emscripten_glDepthRange
KHf:_DESTransform_CipherFunct_m3559419566
eUf:_UIntPtr_get_Size_m537421489
wZc:_Rijndael_Create_m113171669
BDg:_GUILayoutGroup_CalcWidth_m4107152934
iTb:__Z14resize_trimmedINSt3__26vectorIN9ShaderLab20SerializedSubProgram12UAVParameterENS0_9allocatorIS4_EEEEEvRT_j
fyf:_SerializationInfo_AddValue_m1781549036
b_h:_AnimationLayerMixerPlayable_SetLayerMaskFromAvatarMask_m2582039992_AdjustorThunk
fgf:_TlsServerKeyExchange_verifySignature_m3641534563
nWh:_Slider_FindSelectableOnLeft_m3136767885
FHa:__ZN4crndL20crnd_default_reallocEPvjPjbS0_
cZd:_Array_BinarySearch_TisInt32_t2071877448_m51233948_gshared
KPj:__ZNSt3__212basic_stringIcNS_11char_traitsIcEENS_9allocatorIcEEEC2ERKS5_
nBf:_ProviderData_CopyFrom_m431414335
Utb:__ZN18SpriteAtlasManager19AddRequestingSpriteE4PPtrI6SpriteE
jLf:_UTF32Encoding_GetPreamble_m767706727
gic:__Z33Texture_CUSTOM_Internal_GetHeightP12Il2CppObject
Ord:_LayoutGroup_get_preferredHeight_m3901163825
l7a:__ZN23ScriptableRenderContextC2Ev
Jac:__Z22InverseTransformVector23TransformAccessReadOnlyRKN4math7_float3E
NHd:_DateTime_AbsoluteDays_m3061694073
gKc:_UNITY_FT_Stream_GetChar
w$i:_Hacker_ShowReward_m1285282345
dOb:__Z18Transfer_BlittableI18StreamedBinaryReadILb1EELb1EdEvRK29SerializationCommandArgumentsR31RuntimeSerializationCommandInfo
lTg:_Enumerator_System_Collections_IEnumerator_get_Current_m229223308_gshared
ZCb:__Z26BuildSerializationCacheFor17ScriptingClassPtrRb
nKa:__ZN7ApiGLES15BlitFramebufferEN2gl6HandleILNS0_10ObjectTypeE9EEENS0_15FramebufferReadES3_S3_iiiiiiiiNS0_15FramebufferTypeE
P7f:__Z112RuntimeInvoker_RuntimeObject_RuntimeObject_RuntimeObject_RuntimeObject_RuntimeObject_RuntimeObject_RuntimeObjectPFvvEPK10MethodInfoPvPS4_
rbi:_Event_Init_m3901382626
OAd:_FixedSizeArrayListWrapper_AddRange_m2071800418
ND:__ZN13ProduceHelperI8AnimatorLb0EE7ProduceE18MemLabelIdentifier18ObjectCreationMode
Pfa:__Z9InitInputv
$2f:__Z85RuntimeInvoker_Boolean_t3825574718_Int64_t909078037_Int64_t909078037_SByte_t454417549PFvvEPK10MethodInfoPvPS4_
AFe:_Enumerator_VerifyState_m2358705882_AdjustorThunk
dDc:_UNITY_tt_face_build_cmaps
DSh:_Selectable_Navigate_m915280351
Aeb:__ZN16MemoryFileSystem6DeleteER13FileEntryDatab
NMi:_Vector3_get_normalized_m936072361
ova:__ZL21BlitScaleStbImageImplRK14ImageReferenceRS_NS_10ColorSpaceE
Mmf:_TlsStream_set_Position_m378064217
pGb:__Z29Transfer_Blittable_ArrayFieldI14SafeBinaryReadyEvRT_R9ArrayInfoRK23StaticTransferFieldInfo
AO:__ZN20SoundChannelInstance15setChannelGroupEPN4FMOD12ChannelGroupE
E2c:_Evidence_Equals_m2325859915
Lpg:_Default__ctor_m172834064
tc:invoke_vifffii
G9h:_Component_GetComponents_m637589504
lAi:_Regex_IsMatch_m2159202025
SQa:__ZNK25MultiBlocksMemoryFileData5CloneEv
zHj:_GC_add_ext_descriptor
nyf:_RemotingServices_GetMethodBaseFromName_m3271095947
LRj:dynCall_iiiiiiiiiiii
L7c:_ASCIIEncoding_GetBytes_m3617160053
jff:_CipherSuiteCollection_System_Collections_IList_RemoveAt_m143866082
IE:__ZN26AnimatorControllerPlayable26ParameterControlledByCurveEi
yXb:__ZL26KeywordSetToStringDontSortRKNSt3__26vectorIN4core12basic_stringIcNS1_20StringStorageDefaultIcEEEENS_9allocatorIS5_EEEERS5_
rqa:__ZN6prcoreL17RemapGenericFloatI16TexFormatRGFloat17TexFormatRGBAHalfEEvPKNS_9InnerInfoE
eJ:__ZN12AudioManager22CreateFMODSoundFromWWWEP10IWWWStream15FMOD_SOUND_TYPE17FMOD_SOUND_FORMATjjbbP10SampleClip
U1b:__ZNK32RendererMaterialAnimationBinding15GenerateBindingERKN4core12basic_stringIcNS0_20StringStorageDefaultIcEEEEbRN11UnityEngine9Animation14GenericBindingE
F3:__ZN8Remapper23GetOrGenerateInstanceIDERK26SerializedObjectIdentifier
Nme:_StreamWriter_Flush_m3426120024
OSa:__ZN17FileSystemHandler10AtomicMoveER13FileEntryDataS1_
_a:invoke_iiiiiifffiiifii
qke:_MemoryStream__ctor_m1489366847
Z2c:_SecurityElement_IsValidTag_m64902195
oTg:_Enumerator_System_Collections_IEnumerator_get_Current_m229223308_AdjustorThunk
CAg:_PropertyInfo_SetValue_m2961483868
QCg:_GUILayoutEntry_set_style_m70917293
sMe:_List_1_System_Collections_IList_Contains_m4193366963_gshared
fRi:_UnityEvent_3_FindMethod_Impl_m1889846153_gshared
hqg:_ConstructorInfo_Invoke_m2144827141
otb:__ZN6Sprite8TransferI24GenerateTypeTreeTransferEEvRT_
kjc:__Z48Register_UnityEngine_Transform_SetAsFirstSiblingv
bBg:_Font_get_fontSize_m1732593415
rtb:__ZN7SubMesh8TransferI24GenerateTypeTreeTransferEEvRT_
Fzg:_MonoProperty_get_CanWrite_m2124922514
ubj:__ZN6il2cpp6icalls8mscorlib6SystemL16CheckMemberMatchI9FieldInfoNS_5utils10functional6FilterINSt3__212basic_stringIcNS8_11char_traitsIcEENS8_9allocatorIcEEEENS5_13VmStringUtils23CaseInsensitiveComparerEEEEEbPKT_PK11Il2CppClassSN_iRKT0_
NOj:_poll
cke:_Stream_BeginRead_m1985960185
DFg:_GUIStyle_GetFontInternalDuringLoadingThread_m229734483
a0b:__ZN13ProduceHelperI14Texture2DArrayLb0EE7ProduceE18MemLabelIdentifier18ObjectCreationMode
zcf:_MD4Managed_GG_m1462438360
ofc:__Z46Mesh_CUSTOM_PrintErrorCantAccessMeshForIndicesP12Il2CppObject
sgc:__Z53PlayableHandle_CUSTOM_INTERNAL_CALL_GetPlayableTypeOfR9HPlayable
Bac:__ZN9Transform23SetSiblingIndexInternalEib
Lte:_SimpleCollator_LastIndexOfOrdinal_m45234497
She:_BinaryReader_CheckBuffer_m1059275266
eBa:__ZN13GfxDeviceGLES17DestroySubProgramEPN9ShaderLab10SubProgramE
Ut:__ZN7mecanim5human12HumanPoseSubERNS0_9HumanPoseERKS1_S4_
lcf:_MD4_Create_m2582504069
Wvj:__ZN6il2cpp8metadata15GenericMetadata15GetGenericClassEiPK17Il2CppGenericInst
Vvd:_Boolean_System_IConvertible_ToInt16_m977801621
dFb:__Z18Transfer_BlittableI14SafeBinaryReadLb0E10Matrix4x4fEvRK29SerializationCommandArgumentsR31RuntimeSerializationCommandInfo
DUa:__Z24GetFixedBehaviourManagerv
VYa:__ZN12FlareManager9UpdateJobEP25FlareManagerUpdateJobData
Zaj:__ZN6il2cpp2vm10ThreadPool4WaitEP17Il2CppAsyncResultPPv
YMj:_vfprintf
GZa:__ZN20DynamicPropertySheetD0Ev
$bb:__ZN14SafeBinaryRead17RegisterConverterEPKcS1_PFbPvRS_E
$Z:__ZN35RegisterRuntimeInitializeAndCleanup8RegisterEPFvPvES2_iS0_
I7e:_ReadOnlyCollection_1_System_Collections_IList_Clear_m2600246370_gshared
bxe:_DSAManaged_NormalizeArray_m2287089393
cui:_InternalEnumerator_1_System_Collections_IEnumerator_get_Current_m2389982234_AdjustorThunk
HUa:__ZN8Material26ResetAllCachedMaterialDataEP6Shader
rKc:_UNITY_TT_Get_MM_Var
X1i:__ZN6il2cpp6icalls8mscorlib6System7Decimal13decimal2Int64EP19il2cpp_decimal_reprPx
aa:invoke_diddi
Dbd:_ExecuteEvents__cctor_m288775360
aMc:__ZNK2UI6Canvas13GetRenderModeEv
RId:_Double_TryParseStringConstant_m2585405703
xEb:__Z18Transfer_BlittableI14SafeBinaryReadLb0EiEvRK29SerializationCommandArgumentsR31RuntimeSerializationCommandInfo
N9i:__ZN6il2cpp2vm13MetadataCache30GetPropertyDefinitionFromIndexEi
HZc:_RijndaelTransform_Clear_m1652144089
Gie:_MonoIO_GetException_m2577367044
UTc:__ZN22BaseUnityConnectClient17InitializeSessionERKN4core12basic_stringIcNS0_20StringStorageDefaultIcEEEES6_N19CloudServiceHandler13InitModeFlagsE
PVg:_Enumerator_MoveNext_m1404007384_gshared
wre:_NumberFormatter_get_IsZero_m1325357749
RXj:_emscripten_glDeleteBuffers__wrapper
tcg:__Z121RuntimeInvoker_Void_t1841601450_Single_t2076509932_Single_t2076509932_Single_t2076509932_Single_t2076509932_RuntimeObjectPFvvEPK10MethodInfoPvPS4_
aSd:_Enum_ToObject_m322320225
Q8b:__ZN13MonoBehaviour34StopCoroutineFromEnumeratorManagedE18ScriptingObjectPtr
j1c:_X509Certificate__ctor_m3860837120
s_h:_AnimationOffsetPlayable_CreateHandle_m1204489623
hBg:_GameObject_Internal_CreateGameObject_m3428198595
ggg:__Z109RuntimeInvoker_RuntimeObject_Ray_t2469606224_Single_t2076509932_Int32_t2071877448_RuntimeObject_RuntimeObjectPFvvEPK10MethodInfoPvPS4_
D7h:_Camera_RaycastTry2D_m755036866
D7e:_ReadOnlyCollection_1_System_Collections_Generic_IListU3CTU3E_set_Item_m3663361643_gshared
_D:__ZN7mecanim9animation14AvatarConstant15InitializeClassEv
Mad:_EventTrigger_OnScroll_m626934407
zBb:__ZN30RuntimeInitializeOnLoadManager8TransferI18StreamedBinaryReadILb0EEEEvRT_
Lsg:_TypeBuilder_not_supported_m3178173643
wCc:_UNITY_tt_face_load_pclt
y9b:__ZL34GetComponentsImplementationRecurseILb1ELi0ELi2EEbR10GameObjectbRK17CompareParametersRK39GetComponentsImplementation_ReturnValue
_Jj:__ZN6il2cpp6icalls8mscorlib6System9Threading5Mutex20CreateMutex_internalEbP12Il2CppStringPb
vAd:_ArrayListWrapper_Remove_m1105489978
WYa:__ZNK6Camera18WorldToScreenPointERK8Vector3fPb
swd:_Boolean_CompareTo_m3691698947_AdjustorThunk
nEd:_HashKeys_CopyTo_m3566668422
bAa:__Z18IsCompressedFormat14GraphicsFormat
qyd:_Convert_ToSByte_m2665932200
V2:__ZNSt3__227__insertion_sort_incompleteIRPFbRKN18AwakeFromLoadQueue4ItemES4_EPS2_EEbT0_S9_T_
Grg:_ILGenerator_label_fixup_m1325994348
R7i:__ZN14dense_hash_mapI10KeyWrapperIN6il2cpp5utils13dynamic_arrayIPK10Il2CppTypeLj4EEEEPFvvENS1_8metadata19Il2CppSignatureHashENS8_14EqualsComparerINSB_22Il2CppSignatureCompareEEENSt3__29allocatorINSG_4pairIKS8_SA_EEEEE15set_deleted_keyERSJ_
IQh:_Navigation_Equals_m4214630671_AdjustorThunk
P4e:_ReadOnlyCollection_1_System_Collections_Generic_IListU3CTU3E_set_Item_m257196015_gshared
Twg:_FieldInfo_GetPseudoCustomAttributes_m2500972355
qqb:__ZN26EnlightenSystemInformation8TransferI14SafeBinaryReadEEvRT_
F7d:_Array_InternalArray__get_Item_TisLink_t2723257478_m2281261655_gshared
f5h:_AudioClipPlayable_INTERNAL_CALL_GetIsPlayingInternal_m4246314919
Twb:__ZN12MeshRendererD0Ev
oDd:_Hashtable__ctor_m2702360557
Eh:_utime
Zaf:_PrimalityTest_Invoke_m4058801829
tn:FUNCTION_TABLE_viiiiif
XBf:_RemotingConfiguration_SetCustomErrorsMode_m1844153208
yn:FUNCTION_TABLE_viiiiii
yUd:_CultureInfo_GetFormat_m3560116485
JC:__ZN7mecanim9animation22DestroyAvatarWorkspaceEPNS0_15AvatarWorkspaceERNS_6memory9AllocatorE
XSj:dynCall_viddi
DHi:_ScriptableObject_CreateInstance_m3271154163
NAi:_AnchorInfo_get_IsPosition_m3791659233
O_d:_Array_InternalArray__IndexOf_TisResourceCacheItem_t333236149_m761772858_gshared
Pkc:__ZNSt3__210__list_impIN10GUIManager12SortedScriptE11memory_poolIS2_EE5clearEv
tnb:__ZN14PlayableOutput17SetSourcePlayableEP8Playable
mCf:_TrackingServices__cctor_m3639412334
snc:__Z32GUIStyle_Set_Custom_PropRichTextP12Il2CppObjecth
bC:__ZN7mecanim9animation29MotionOutputGetDeltaTransformEPKNS0_12MotionOutputE
WZb:__Z13RegisterClassI16GraphicsSettingsEvv
uE:__ZN8Animator14OnAddComponentEPN5Unity9ComponentE
xSe:_List_1_CheckMatch_m1184924052_gshared
Jic:__Z43Transform_CUSTOM_INTERNAL_get_localRotationP12Il2CppObjectP11Quaternionf
ZVj:_glGetShaderInfoLog__wrapper
gi:_emscripten_glGetTexParameteriv
udf:_RSAManaged_ImportParameters_m3060955884
Tfi:_ChannelData_CopyFrom_m4049054607
a_b:__Z13RegisterClassI4MeshEvv
Tmb:__ZN8PlayableD0Ev
cU:__Z84Register_UnityEngine_Audio_AudioMixerPlayable_INTERNAL_CALL_SetAutoNormalizeInternalv
vK:__ZN12AudioManager8TransferI19StreamedBinaryWriteILb0EEEEvRT_
Jke:_WriteDelegate_Invoke_m2103848735
VOb:__ZN18StreamedBinaryReadILb1EE21TransferSTLStyleArrayI13dynamic_arrayI11ColorRGBA32Lj4EEEEvRT_17TransferMetaFlags
KSi:_Locale_GetText_m512920887
LPb:__Z18Transfer_BlittableI18StreamedBinaryReadILb0EELb0E8Vector2fEvRK29SerializationCommandArgumentsR31RuntimeSerializationCommandInfo
FBf:_RemotingConfiguration_get_ProcessId_m3870172209
Kce:_SortKey_ToString_m2406913228
Qea:__ZN22LocalFileSystemHandler9MakeLocalER13FileEntryDatab
EDj:__ZN6il2cpp2vm8Profiler10AllocationEP12Il2CppObjectP11Il2CppClass
YHd:_Convert_ToDateTime_m1020507389
Rzc:__ZNSt3__23mapIN20TextRenderingPrivate7FontRefENS1_6OSFontENS_4lessIS2_EENS_9allocatorINS_4pairIKS2_S3_EEEEEixERS8_
Bca:__Z13FormatOrderedPKcz
Eie:_Path_IsPathRooted_m1347207448
yDf:_ObjectManager_RegisterObjectInternal_m879109503
SUd:_Array_get_swapper_TisVector4_t2243707581_m97441823_gshared
Oxa:__ZNSt3__26__sortIRNS_4lessIiEEPiEEvT0_S5_T_
bxc:__ZN14SafeBinaryRead21TransferSTLStyleArrayI10vector_mapINSt3__24pairIttEEfN20TextRenderingPrivate8FontImpl14KerningCompareENS2_9allocatorINS3_IS4_fEEEEEEEvRT_17TransferMetaFlags
w_b:__Z13RegisterClassI15QualitySettingsEvv
lCj:__ZN6il2cpp2vm6String21InitializeEmptyStringEP11Il2CppClass
c4a:__ZN25DeferredRenderLoopScratchD0Ev
gw:__ZN27AnimationLayerMixerPlayable14SetInputWeightEif
Qt:__ZN7mecanim9animation17EvaluateHumanPoseERKNS0_18ClipMuscleConstantERKNS0_15ClipMuscleInputEPKfRKNS0_12MotionOutputERNS_5human9HumanPoseE
SSb:__ZN15dense_hashtableINSt3__24pairIKiN4core17string_with_labelILi1EEEEEi18SInt32HashFunctionN14dense_hash_mapIiS5_S7_NS0_8equal_toIiEE13stl_allocatorIS6_L18MemLabelIdentifier1ELi16EEE9SelectKeyESA_SD_E9copy_fromERKSG_j
qka:__ZN6Camera11ResetAspectEv
aRf:_Type_get_IsGenericType_m3396841573
tsf:_X509BasicConstraintsExtension_get_HasPathLengthConstraint_m3788532759
Ulb:__ZNK17InstancedPropInfo22FillInstancePropertiesER19ShaderPropertySheetjPK17BatchInstanceDatajRK15RenderNodeQueue
Rla:__ZN22CreateGpuProgramOutputD2Ev
Jdh:__ZL58_AssemblyBuilder_t418776366_CustomAttributesCacheGeneratorP21CustomAttributesCache
Ksj:__ZN6il2cpp6icalls8mscorlib6System2IO6MonoIO9SetLengthE12Il2CppIntPtrxPi
gS:__ZN13ProduceHelperI13AudioListenerLb0EE7ProduceE18MemLabelIdentifier18ObjectCreationMode
t9d:_DateTimeFormatInfo_GetInstance_m3133223810
raf:_ModulusRing_BarrettReduction_m2802101099
tRa:__ZN12HandlerChain4OpenER13FileEntryData14FilePermission16FileAutoBehavior
zij:__ZN15dense_hashtableINSt3__24pairIK10KeyWrapperINS1_IPK10MethodInfoP11Il2CppClassEEEjEES9_17ReflectionMapHashIS8_EN14dense_hash_mapIS9_jSD_NS9_14EqualsComparerINS0_8equal_toIS8_EEEENS0_9allocatorISB_EEE9SelectKeyESI_SK_E6insertERKSB_
qsa:__ZN18AssetBundleManager55CollectPreloadObjectsFromAssetBundleLoadAssetOperationsER13dynamic_arrayIiLj4EE
J5:__ZN14FileCacherReadD2Ev
fxa:__ZN13RendererScene23UpdatePreviousFrameDataEii
e$c:_RSAPKCS1SignatureDeformatter_VerifySignature_m1825067195
Qcc:__Z50Register_UnityEngine_CullingGroup_FinalizerFailurev
TDe:_KeyValuePair_2_ToString_m2613351884_gshared
_ra:__ZN27UnloadUnusedAssetsOperationD0Ev
fkb:__ZN6Camera15ThreadedCleanupEv
lJh:__ZL69ColorBlock_t2652774230_CustomAttributesCacheGenerator_m_DisabledColorP21CustomAttributesCache
KRh:_Scrollbar__ctor_m2244981801
Gsj:__ZN6il2cpp6icalls8mscorlib6System2IO6MonoIO9GetLengthE12Il2CppIntPtrPi
I$c:_SHA256Managed_HashCore_m4111458495
oUd:_CultureInfo_get_CompareInfo_m3085280862
zEf:_ObjectManager_RecordDelayedFixup_m1895730844
xI:__ZN9AudioClip23VirtualRedirectTransferER18StreamedBinaryReadILb0EE
Lgf:_ClientSessionInfo_CheckDisposed_m1394638186
zGf:_SByte_Parse_m2544167007
P4c:_Single_CompareTo_m2081476257
que:_BigInteger__ctor_m2945783161
vif:_TlsClientHello_Update_m1723542631
Pde:_IndexOutOfRangeException__ctor_m3497760912
Fj:_glCopyTexSubImage2D
xBf:_RealProxy_InternalGetTransparentProxy_m3415358600
Lda:__ZN18ScreenManagerWebGL13SetShowCursorEb
CDj:__ZN6il2cpp6icalls8mscorlib6System7Convert24InternalFromBase64StringEP12Il2CppStringb
L0c:_SymmetricAlgorithm_CreateDecryptor_m4240570785
xXh:_Text_get_preferredWidth_m3352156860
MOc:__ZN2UI13CanvasManager14GetRenderOrderEPKNS_6CanvasE
bFb:__Z18Transfer_BlittableI14SafeBinaryReadLb0E5RectTIfEEvRK29SerializationCommandArgumentsR31RuntimeSerializationCommandInfo
T5e:_ReadOnlyCollection_1_System_Collections_Generic_IListU3CTU3E_RemoveAt_m878653284_gshared
z9d:_DateTimeFormatInfo_GetFormat_m3676195179
uGa:__ZN14GfxContextGLES14GetFramebufferEv
cpa:__ZN6prcoreL21CreateRemapAnyBlitterE13TextureFormatS0_
H7b:__ZN17AnimationCurveTplIfE16StripInvalidKeysEv
K$d:_Array_InternalArray__ICollection_Add_TisKeyValuePair_2_t3716250094_m2381539361_gshared
BBe:_X509Extension_WriteLine_m2850991173
FNc:__ZNK2UI6Canvas17GetSortingLayerIDEv
sej:_il2cpp_method_has_attribute
Q3b:__Z13RegisterClassI17GlobalGameManagerEvv
J6a:__ZN8Renderer24SetupNewRendererForSceneEv
pWd:_Array_InternalArray__ICollection_Remove_TisInt64_t909078037_m2653583130_gshared
tMf:_Thread_get_ExecutionContext_m922067206
gtc:__Z35Transfer_Blittable_FixedBufferFieldI8JSONReadtEvRK29SerializationCommandArgumentsR31RuntimeSerializationCommandInfo
N4b:__ZN14PlayableOutput6HandleEv
Lsb:__ZNK6Sprite22GetTypeVirtualInternalEv
sn:FUNCTION_TABLE_iiiiiiiiiiiiii
U5f:__Z100RuntimeInvoker_Void_t1841601450_SByte_t454417549_SByte_t454417549_Int32_t2071877448_SByte_t454417549PFvvEPK10MethodInfoPvPS4_
mDc:_UNITY_tt_get_cmap_info
jab:__ZN16ReflectionProbes8ScheduleEN18ReflectionProbeJob7JobTypeEP15ReflectionProbei
g$e:_Collection_1_IsFixedSize_m3675221982_gshared
DGe:_Enumerator_MoveNext_m3293920409_AdjustorThunk
ffa:__Z18IsDirectoryCreatedRKN4core12basic_stringIcNS_20StringStorageDefaultIcEEEE
ikg:__Z68RuntimeInvoker_Void_t1841601450_Int32_t2071877448_Double_t4078015681PFvvEPK10MethodInfoPvPS4_
LMc:__ZN2UI13CanvasManagerD2Ev
Cwi:_Comparer_1__cctor_m3112251759_gshared
Drf:_X509KeyUsageExtension_ToString_m1992050580
wzc:_UNITY_FT_GlyphLoader_Done
_Ai:_BalancingGroup__ctor_m2474435406
Cfi:_ConstructionCall__ctor_m1143766850
HHg:_GUIStyleState_Init_m2434147050
Dwi:_Comparer_1_System_Collections_IComparer_Compare_m3203078743_gshared
KDf:_ObjectReader_ReadArrayOfString_m3752210963
lNg:_PlayableHandle_IsValid_m1005197654_AdjustorThunk
p$i:_Terminal_WriteLine_m3165006896
aEc:_tt_cmap14_char_var_index
zFc:_psh_globals_new
xke:_FileStream_Seek_m950719389
hId:_Decimal_stripStyles_m294582157
Y2h:_AnimatorControllerPlayable_Play_m614561002
lAa:__ZN9GfxDevice20SetMaxBufferedFramesEi
YMe:_List_1_RemoveAll_m4125997475_gshared
K_f:__Z98RuntimeInvoker_Void_t1841601450_Int32_t2071877448_Int32_t2071877448_RuntimeObject_SByte_t454417549PFvvEPK10MethodInfoPvPS4_
$Rj:dynCall_vdd
iOc:__ZN2UIL17UnloadAllCanvasesEv
udb:__Z23ConvertIntegerToTypePtrIsEbPvR14SafeBinaryRead
Sdh:__ZL54_MethodBase_t1935530873_CustomAttributesCacheGeneratorP21CustomAttributesCache
p1f:__Z96RuntimeInvoker_Void_t1841601450_SByte_t454417549_RuntimeObject_SByte_t454417549_SByte_t454417549PFvvEPK10MethodInfoPvPS4_
SAd:_FixedSizeArrayListWrapper_Remove_m1359458911
kpa:__ZN6prcoreL29inner_stretch_rgb565_bilinearEPKNS_9InnerInfoE
uCi:_Uri__ctor_m3927533881
xQc:__Z33Canvas_Get_Custom_PropWorldCameraP12Il2CppObject
LWh:_Text_get_mainTexture_m813502234
HLj:__ZN6il2cpp8metadata19Il2CppSignatureHash4HashERKNS_5utils13dynamic_arrayIPK10Il2CppTypeLj4EEE
j3a:__ZNK14RenderSettings19GetFlatAmbientColorEv
sva:__ZN6prcoreL10inner_flipILj4EEEvPhS1_j
_yb:__ZN18StreamedBinaryReadILb0EE21TransferSTLStyleArrayI10vector_mapIPKN5Unity4TypeE7Hash128NSt3__24lessIS6_EENS8_9allocatorINS8_4pairIS6_S7_EEEEEEEvRT_17TransferMetaFlags
ey:__ZNK27StateMachineBehaviourPlayer15IsSenderEnabledEv
g0h:_AnimatorControllerPlayable_SetInteger_m881630854
tRg:_Enumerator_VerifyState_m2118679243_gshared
hod:_InputField_get_shouldHideMobileInput_m3694613599
fjc:__Z40Register_UnityEngine_Transform_SetParentv
t6h:_AudioConfigurationChangeHandler_Invoke_m635374412
y5f:__Z56RuntimeInvoker_TimeSpan_t3430258949_TimeSpan_t3430258949PFvvEPK10MethodInfoPvPS4_
Eub:__ZN14Texture2DArray17UploadToGfxDeviceEv
n5e:_ReadOnlyCollection_1_System_Collections_Generic_IListU3CTU3E_Insert_m4216310986_gshared
x1e:_ReadOnlyCollection_1_System_Collections_Generic_IListU3CTU3E_set_Item_m1532495847_gshared
aM:__Z14FMODMemoryFreePvjPKc
Knd:_Image_AddQuad_m1600600902
SGc:_cf2_glyphpath_moveTo
WMd:_DateTimeOffset__ctor_m1796624924
EDg:_GUILayoutUtility_get_spaceStyle_m1918520192
Y9c:_BaseRaycaster_OnDisable_m1716508791
Nu:__ZN7mecanim23TransformValueArrayLoopEiiiRKN4math4trsXES3_RNS_10ValueArrayEf
ybf:_ASN1Convert_ToInt32_m2121135414
jlc:__ZN5IMGUI14GUIWindowStateD2Ev
HHj:_GC_is_heap_ptr
tqj:__GLOBAL__sub_I_Assembly_cpp
pB:__ZN7mecanim5human10RetargetToEPKNS0_5HumanEPKNS0_9HumanPoseES6_RKN4math4trsXEPS4_PNS_8skeleton13SkeletonPoseTIS8_EESF_
Gu:__ZN7mecanim9animation8SeekClipERKNS0_12StreamedClipERNS0_18StreamedClipMemoryEf
jm:_emscripten_glIsTexture
KJg:_Mathf_Clamp_m3542052159
yAd:_ArrayListWrapper_CopyTo_m793444109
Qk:_emscripten_glHint
eKc:_ft_var_readpackeddeltas
nMd:_DateTime_AddMilliseconds_m1813199744_AdjustorThunk
Pgc:__Z65PlayableOutputHandle_CUSTOM_INTERNAL_CALL_GetPlayableOutputTypeOfR15HPlayableOutput
Tuf:_X509ChainStatus_t4278378721_marshal_pinvoke
kdf:_RSAManaged__ctor_m1680944437
mm:_SDL_UpperBlit
LGg:_GUIStyle_op_Implicit_m781448948
R3a:__Z35GetTextureDecodeValuesWithIntensity16TextureUsageMode17TextureColorSpace10ColorSpacef
Cxd:_Byte_GetHashCode_m2885528842_AdjustorThunk
Pmj:__ZN15dense_hashtableINSt3__24pairIK10KeyWrapperINS1_IPK9EventInfoP11Il2CppClassEEEjEES9_17ReflectionMapHashIS8_EN14dense_hash_mapIS9_jSD_NS9_14EqualsComparerINS0_8equal_toIS8_EEEENS0_9allocatorISB_EEE9SelectKeyESI_SK_E15set_deleted_keyERKSB_
vYg:_Dictionary_2_OnDeserialization_m2092139626_gshared
sxj:__ZNK6il2cpp2os6Socket12GetLastErrorEv
rCb:__ZN14SafeBinaryRead20OverrideRootTypeNameEPKc
N5:__ZN14FileCacherRead16UnlockCacheBlockEj
FAe:_X509Certificate_GetUnsignedBigInteger_m3491353542
pxc:__ZNSt3__26vectorIN4core12basic_stringIcNS1_20StringStorageDefaultIcEEEE13stl_allocatorIS5_L18MemLabelIdentifier34ELi16EEE6assignINS_11__wrap_iterIPS5_EEEENS_9enable_ifIXaasr21__is_forward_iteratorIT_EE5valuesr16is_constructibleIS5_NS_15iterator_traitsISF_E9referenceEEE5valueEvE4typeESF_SF_
XRj:dynCall_iifii
Rc:_emscripten_glUniform1f
CRa:__ZNK12HandlerChain4SizeERK13FileEntryData
Xzc:__Z20ParseImageParametersR11UTF16StringRiRN20TextRenderingPrivate16TextFormatChangeE
Wc:_emscripten_glUniform1i
jCb:__ZN13MonoBehaviour9CallAwakeEv
v7:__Z33UnregisterDeviceEventCallbackImplPFv23UnityGfxDeviceEventTypeE
LDg:__Z14bankers_roundff
u2h:_AnimatorControllerPlayable_CrossFade_m3391147919
sUb:__ZN9ShaderLab16SerializedTagMapaSERKS0_
PV:__ZN11UnityEngine15CloudWebService16SessionContainer20RestoreSessionHeaderERKN4core12basic_stringIcNS2_20StringStorageDefaultIcEEEES8_RNS0_13SessionHeaderE
KMd:_DateTime_ToString_m1117481977
tug:_GenericTypeParameterBuilder_GetGenericArguments_m277381309
xC:__ZN11UnityEngine9Animation27CreateAvatarBindingConstantER9TransformPKN7mecanim9animation14AvatarConstantERNS3_6memory9AllocatorE
YAb:__ZN14SafeBinaryRead21TransferSTLStyleArrayINSt3__26vectorIN30RuntimeInitializeOnLoadManager9ClassInfoE13stl_allocatorIS4_L18MemLabelIdentifier12ELi16EEEEEEvRT_17TransferMetaFlags
PUf:_UnitySerializationHolder_GetObjectData_m2280028722
pTf:_UInt64_System_IConvertible_ToDateTime_m2412118561
eac:__ZN9BlobWriteC2ER13dynamic_arrayIhLj16EE24TransferInstructionFlags19BuildTargetPlatform
c4:__ZN14MessageHandler3GetEv
bFg:_GUISkin_set_verticalScrollbarThumb_m2647835739
id:_emscripten_glAttachShader
e4e:_ReadOnlyCollection_1__ctor_m1539890895_gshared
kAa:__ZN9GfxDevice13SetActiveTierE12GraphicsTier
nFe:_Enumerator_System_Collections_IEnumerator_get_Current_m3079057684_AdjustorThunk
Ixb:__ZNSt3__26vectorIN4core12basic_stringIcNS1_20StringStorageDefaultIcEEEENS_9allocatorIS5_EEE6assignIPS5_EENS_9enable_ifIXaasr21__is_forward_iteratorIT_EE5valuesr16is_constructibleIS5_NS_15iterator_traitsISC_E9referenceEEE5valueEvE4typeESC_SC_
vxe:_KeyPairPersistence_get_UserPath_m3433052783
o5g:__ZL58Decimal_t724701077_CustomAttributesCacheGenerator_MinusOneP21CustomAttributesCache
MEb:__Z18Transfer_BlittableI14SafeBinaryReadLb0E11QuaternionfEvRK29SerializationCommandArgumentsR31RuntimeSerializationCommandInfo
lQb:__Z18Transfer_BlittableI18StreamedBinaryReadILb0EELb1E12PropertyNameEvRK29SerializationCommandArgumentsR31RuntimeSerializationCommandInfo
K_:_tlsf_walk_heap
dAe:_PKCS12_Decode_m731190390
dri:_InternalEnumerator_1_get_Current_m1550231132_gshared
aVf:_Version_CheckedSet_m76493673
nb:invoke_vif
ob:invoke_vid
$Pj:__ZNSt3__212basic_stringIcNS_11char_traitsIcEENS_9allocatorIcEEE6insertEjPKc
bih:__ZL67UnverifiableCodeAttribute_t765455733_CustomAttributesCacheGeneratorP21CustomAttributesCache
pb:invoke_vii
Hfb:__ZN12TLSAllocatorI14StackAllocatorE16ThreadInitializeEP13BaseAllocator
Wzd:_ArrayList_Sort_m2778059513
Bmd:_LayoutGroup_SetChildAlongAxis_m2732017156
EPc:__Z41CanvasRenderer_CUSTOM_DisableRectClippingP12Il2CppObject
bcf:_MD2_Create_m539024737
W6f:__Z112RuntimeInvoker_Void_t1841601450_RuntimeObject_Int32_t2071877448_Int32_t2071877448_RuntimeObject_SByte_t454417549PFvvEPK10MethodInfoPvPS4_
gRa:__ZN25SingleBlockMemoryFileDataD0Ev
Fhb:__ZNSt3__26vectorI14ConstantStringNS_9allocatorIS1_EEE6assignINS_11__wrap_iterIPS1_EEEENS_9enable_ifIXaasr21__is_forward_iteratorIT_EE5valuesr16is_constructibleIS1_NS_15iterator_traitsISA_E9referenceEEE5valueEvE4typeESA_SA_
KV:__ZN11UnityEngine15CloudWebService16SessionContainer21ConvertFromFolderTimeERKN4core12basic_stringIcNS2_20StringStorageDefaultIcEEEEPjPt
gGb:__ZNSt3__26vectorI8GUIStyle13stl_allocatorIS1_L18MemLabelIdentifier1ELi16EEE7reserveEj
pqj:__ZN6il2cpp6icalls8mscorlib6System9Threading6Thread27GetSerializedCurrentCultureEP12Il2CppThread
X_d:_Array_InternalArray__IndexOf_TisUInt32_t2149682021_m3231515987_gshared
V$b:__Z31CalculateHierarchyTransformType23TransformAccessReadOnly
p_b:__Z13RegisterClassI11TimeManagerEvv
SL:__ZN4FMOD8ChannelI11setPositionEjj
g0f:__Z136RuntimeInvoker_IntPtr_t_RuntimeObject_Int32_t2071877448_Int32_t2071877448_Int32_t2071877448_Int32_t2071877448_MonoIOErrorU26_t1029615899PFvvEPK10MethodInfoPvPS4_
R9h:_Component_SendMessage_m913946877
Cba:__ZN17BaseObjectManager13StaticDestroyEPv
iJi:_TextGenerationSettings_CompareVector2_m592645251
xNd:_DBNull_System_IConvertible_ToChar_m3344298044
qBe:_X509Certificate_GetObjectData_m3888130484
sAb:__ZNSt3__26vectorIN15ResourceManager10DependencyE13stl_allocatorIS2_L18MemLabelIdentifier51ELi16EEEC2INS_11__wrap_iterIPS2_EEEET_SB_RKS5_PNS_9enable_ifIXaasr21__is_forward_iteratorISB_EE5valuesr16is_constructibleIS2_NS_15iterator_traitsISB_E9referenceEEE5valueEvE4typeE
wxi:_LinkStack_Push_m2660199875
MK:__ZN4FMOD6Reverb13setPropertiesEPK22FMOD_REVERB_PROPERTIES
o_a:__ZN9DepthPass13PrepareSubsetEjRK10RenderNodeifRK17ShaderReplaceData
yIg:_Input_get_compositionString_m636835668
CEi:_X509CertificateCollection_Add_m4008705157
w6b:__Z35SetMeshComponentFromArrayFromScriptR4Mesh30InternalScriptingShaderChannel34InternalScriptingVertexChannelTypei17ScriptingArrayPtri
Z5e:_ReadOnlyCollection_1_System_Collections_IList_Add_m3806843030_gshared
oYe:_Collection_1_IsFixedSize_m1816795498_gshared
Bq:__ZN4core20StringStorageDefaultIcE6assignEPKcj
Wwj:__ZN15dense_hashtableINSt3__24pairIK10KeyWrapperIP12Il2CppObjectEN6il2cpp2gc9CachedCCWEEES5_NS7_5utils11PointerHashIS3_EEN14dense_hash_mapIS5_S9_SD_NS5_14EqualsComparerINS0_8equal_toIS4_EEEENS0_9allocatorISA_EEE9SelectKeyESI_SK_E3endEv
$Ab:__Z14resize_trimmedINSt3__26vectorIi13stl_allocatorIiL18MemLabelIdentifier12ELi16EEEEEvRT_j
gdd:_MouseButtonEventData_ReleasedThisFrame_m482758300
Hnj:__ZN15dense_hashtableINSt3__24pairIK10KeyWrapperINS1_IP11Il2CppClassjEEES4_EES6_N6il2cpp8metadata14ArrayClassHashEN14dense_hash_mapIS6_S4_SB_NS6_14EqualsComparerINSA_17ArrayClassCompareEEENS0_9allocatorIS8_EEE9SelectKeyESF_SH_E9copy_fromERKSK_j
XAd:_ReadOnlyArrayListWrapper_set_Item_m2199017141
Z7a:__ZN6Camera6SetFarEf
xEi:_DeriveBytes_DeriveIV_m3343375195
SAc:_UNITY_FT_Init_Class_ft_bitmap_glyph_class
x_c:_RNGCryptoServiceProvider_GetBytes_m167497991
Upa:__ZN6prcoreL12RemapGenericI17TexFormatABGR888817TexFormatARGB8888EEvPKNS_9InnerInfoE
aib:__ZN11GameManager17MainThreadCleanupEv
jRc:__Z50Register_UnityEngine_UISystemProfilerApi_EndSamplev
tsg:_TypeBuilder_get_Assembly_m492491492
TIc:_UNITY_tt_slot_init
nUa:__ZZ23InitPlayerLoopCallbacksvEN41PostLateUpdateUpdateResolutionRegistrator7ForwardEv
vYc:_HMACSHA512__cctor_m1167457383
CRb:__Z25scripting_array_class_get17ScriptingClassPtrj
trc:__ZL22Transfer_ManagedObjectI9JSONWriteLb1EEvRK29SerializationCommandArgumentsR31RuntimeSerializationCommandInfo
fI:__ZNK10SampleClip22GetTypeVirtualInternalEv
HBa:__ZN9GfxDevice20DestroyRenderSurfaceER12ObjectHandleI17RenderSurface_TagP17RenderSurfaceBaseE
rca:__ZN18SpriteAtlasManagerC2Ev
XOa:__ZN9GfxDevice22UpdateComputeResourcesEjPK9TextureIDPK16TextureDimensionPKijPKjjPK15ComputeBufferIDS7_PK20ComputeBufferCounterjSC_S2_S5_S9_SF_
y3b:__ZN12_GLOBAL__N_15qAsinEff
i6d:_Dictionary_2_Do_ICollectionCopyTo_TisKeyValuePair_2_t3749587448_m2536766696_gshared
Ifb:__ZN12TLSAllocatorI14StackAllocatorE13ThreadCleanupEv
ZZd:_Array_IndexOf_TisRuntimeObject_m1815604637_gshared
lDj:__ZThn4_N6il2cpp2vm13ComObjectBase16MarshalInterfaceEP13Il2CppIStreamRK10Il2CppGuidPvjS7_j
rvb:__ZN4Mesh27SwizzleVertexColorsIfNeededEb
ogb:__Z27FindActiveTransformWithPathPKc
i8h:_CanvasGroup_get_alpha_m1304564441
v4h:_AsyncOperation_Finalize_m67522446
KBe:_SecurityParser_OnEndElement_m2909940377
k0a:__ZNK6Camera7GetNearEv
MJa:__ZN7ApiGLES11UnmapBufferEjN2gl12BufferTargetE
wDj:__ZN6il2cpp5utilsL24Utf32CharToSurrogatePairEjRA2_Ds
gpb:__Z25GetNextAllowedTextureSizeib13TextureFormat
Nea:__ZN20LocalFileSystemWebGL4CopyER13FileEntryDataS1_
RNe:_List_1_CheckIndex_m4231572822_gshared
jY:__ZN19CloudServiceHandler6RetainEv
e3c:_StrongName_Equals_m67226644
tjb:__ZN12BaseRenderer20FlattenToRenderQueueER15RenderNodeQueueRK20DeprecatedSourceData
ioe:_UnmanagedMemoryStream_get_Length_m587008850
zsa:__Z34scripting_liveness_calculation_endPv
_yj:__ZN6il2cpp2os6ThreadC2Ev
V3c:_SecurityFrame_InitFromRuntimeFrame_m45195821
Htf:_X509Chain_IsSignedWith_m292245392
bu:__ZN21AnimationClipPlayable22ProcessAnimationNoClipEPK35AnimationPlayableEvaluationConstantPK32AnimationPlayableEvaluationInputP33AnimationPlayableEvaluationOutput
kWd:_Array_InternalArray__ICollection_Remove_TisDateTime_t693205669_m1275668216_gshared
i4e:_ReadOnlyCollection_1_System_Collections_Generic_ICollectionU3CTU3E_Remove_m3751131234_gshared
Qsc:__Z18Transfer_BlittableI8JSONReadLb0E8Vector3fEvRK29SerializationCommandArgumentsR31RuntimeSerializationCommandInfo
Xfi:_ChannelServices__cctor_m3534779830
ipj:__ZN6il2cpp2vm6Thread6DetachEP12Il2CppThread
JEc:_Render_Single_Pass
$Id:_Convert_ToInt16_m416789348
E8c:_EncoderExceptionFallback_Equals_m762170768
LUi:_EqualityComparer_1__cctor_m2666196678_gshared
jSg:_Enumerator_get_CurrentValue_m3147984131_AdjustorThunk
oCg:_GUIStyle_Init_m3872198731
DC:__ZN7mecanim8skeleton30SkeletonBuildReverseIndexArrayEPiPKiPKNS0_8SkeletonES6_
hkc:__Z19GetGUIBlendMaterialv
Obg:__Z69RuntimeInvoker_Boolean_t3825574718_TextGenerationSettings_t2543476768PFvvEPK10MethodInfoPvPS4_
Mzj:__ZN6il2cpp2os10ThreadImpl5SleepEjb
V_e:_Collection_1_InsertItem_m1073626529_gshared
IXj:_glBindSampler__wrapper
uPi:_UnityAction_1_Invoke_m3523417209_gshared
Of:_emscripten_set_mouseup_callback
mIi:_SpaceAttribute__ctor_m1444406696
Wda:__ZNK18ScreenManagerWebGL8GetWidthEv
lSj:dynCall_iiifii
imd:_GridLayoutGroup_set_startAxis_m1635162426
cI:__ZN10SampleClipD2Ev
Dii:_SynchronizationAttribute_EnterContext_m2984912761
AUd:_CultureInfo_construct_internal_locale_from_name_m971766383
y0d:_Array_InternalArray__ICollection_Add_TisUIVertex_t1204258818_m3869382594_gshared
VX:__ZN11UnityEngine15CloudWebService20WebRequestRestClientC2Ev
nIc:_cff_cmap_unicode_init
RRd:_Enum_ToObject_m2460371738
nve:_PrimalityTests_Test_m1088386156
gmc:__Z36Event_CUSTOM_Internal_SetNativeEvent13Il2Cpp_IntPtr
BOj:_readlink
rkj:__ZN15dense_hashtableINSt3__24pairIK10KeyWrapperINS1_IPK9EventInfoP11Il2CppClassEEEjEES9_17ReflectionMapHashIS8_EN14dense_hash_mapIS9_jSD_NS9_14EqualsComparerINS0_8equal_toIS8_EEEENS0_9allocatorISB_EEE9SelectKeyESI_SK_E12resize_deltaEjj
I4d:_Array_Resize_TisVector3_t2243707580_m893658391_gshared
uni:_InternalEnumerator_1_System_Collections_IEnumerator_get_Current_m4259662004_AdjustorThunk
j8d:_Array_InternalArray__get_Item_TisKeyframe_t1449471340_m1003508933_gshared
uJj:__ZN6il2cpp8metadata14Il2CppTypeHash4HashEPK10Il2CppType
y3f:__Z50RuntimeInvoker_Double_t4078015681_Int64_t909078037PFvvEPK10MethodInfoPvPS4_
Zze:_StrongName_get_PublicKeyToken_m1968460885
yxb:__ZNK6Sprite9GetBoundsE8Vector2fbb
dWa:__ZNK19RenderEventsContext21CleanupCommandBuffersEv
TEa:__ZN11ContextGLES6CreateEi
Ohe:_BinaryReader_Dispose_m4249456877
eId:_Double_ToString_m1085043609
bRb:__Z19TransferField_ArrayI18StreamedBinaryReadILb0EE27Converter_SimpleNativeClassI17AnimationCurveTplIfEEEvRK23StaticTransferFieldInfoR31RuntimeSerializationCommandInfoRT0_
Fef:_CipherSuite_createEncryptionCipher_m1926075645
tfb:__ZN14StackAllocator16FrameMaintenanceEb
Dld:_Graphic_Raycast_m3582517890
Uhb:__Z18ReadStringFromFilePN4core17string_with_labelILi1EEERKNS_12basic_stringIcNS_20StringStorageDefaultIcEEEE
z0:__ZNK10GameObject20QueryComponentByTypeEPKN5Unity4TypeE
sGe:_Enumerator_MoveNext_m1367380970_AdjustorThunk
Jvg:_OpCode_GetHashCode_m2974727122
ZEd:_Enumerator_Reset_m466659019
Gef:_CipherSuite_createDecryptionCipher_m1118350455
Byi:_PatternCompiler_EmitReference_m1381860071
hH:__Z78AnimatorControllerPlayable_CUSTOM_INTERNAL_CALL_IsParameterControlledByCurveIDR9HPlayablei
HQd:_Double_System_IConvertible_ToInt16_m4200640326
nwa:__ZN11TextureData5ResetEv
_dc:__Z53Register_UnityEngine_GameObject_get_activeInHierarchyv
X1:__ZL30InitializeCoreScriptingClassesv
e$e:_Collection_1_CheckWritable_m3938993573_gshared
Jg:_glBlitFramebuffer
vve:_BigInteger_GeneratePseudoPrime_m2606361440
FHb:__Z35Transfer_Blittable_SingleValueFieldI14SafeBinaryReadhEvRT_R17GeneralMonoObjectRK23StaticTransferFieldInfo
YUc:__ZN22BaseUnityConnectClientC2ERN11UnityEngine7Connect20BasePersistentValuesE
dAf:_RemotingServices_GetRealProxy_m620317996
E_a:__ZN13dynamic_arrayI11CulledLightLj4EE6insertEPS0_PKS0_S4_
Unb:__ZNK12CubemapArray22GetTypeVirtualInternalEv
f1i:_Predicate_1_Invoke_m2060780095_gshared
E9i:__ZN6il2cpp2vm13MetadataCache23GetInterfaceOffsetIndexEi
Sn:FUNCTION_TABLE_vif
Tn:FUNCTION_TABLE_vid
Un:FUNCTION_TABLE_vii
Nsa:__Z40scripting_liveness_calculation_from_root18ScriptingObjectPtrPv
Xka:__ZN7Texture23VirtualRedirectTransferER24GenerateTypeTreeTransfer
Byc:_UNITY_FT_Set_Transform
hki:_ArrayReadOnlyList_1_Contains_m1266627404_gshared
u6f:__Z101RuntimeInvoker_OpFlags_t378191910_SByte_t454417549_SByte_t454417549_SByte_t454417549_SByte_t454417549PFvvEPK10MethodInfoPvPS4_
nXj:_glDeleteFramebuffers__wrapper
and:_Image_get_overrideSprite_m706080347
eaf:_BigInteger_ModInverse_m1881894572
Mcj:__ZN6il2cpp2vm7Runtime17GetDelegateInvokeEP11Il2CppClass
NKe:_List_1_AddEnumerable_m3541747636_gshared
sqb:__ZN28EnlightenRendererInformation8TransferI14SafeBinaryReadEEvRT_
L5f:__Z88RuntimeInvoker_RuntimeObject_RuntimeObject_Int32_t2071877448_RuntimeObject_RuntimeObjectPFvvEPK10MethodInfoPvPS4_
Xch:__ZL69DefaultDependencyAttribute_t3858269114_CustomAttributesCacheGeneratorP21CustomAttributesCache
OPa:__ZNK15Lz4Decompressor16DecompressMemoryEPKvPjPvS2_
UOg:_Ray_ToString_m2019179238
M6e:_ReadOnlyCollection_1_System_Collections_IList_get_Item_m887129009_gshared
fDi:_Uri_GetOpaqueWiseSchemeDelimiter_m3686606461
YNd:_Decimal_System_IConvertible_ToType_m3828527724_AdjustorThunk
qCc:_UNITY_tt_face_load_os2
Vbf:_HMAC_get_Key_m2528863640
S$e:_Collection_1_IsSynchronized_m1366278230_gshared
aG:__Z90Register_UnityEngine_Animations_AnimationOffsetPlayable_INTERNAL_CALL_CreateHandleInternalv
gHb:__Z29Transfer_Blittable_ArrayFieldI14SafeBinaryRead8Vector4fEvRT_R9ArrayInfoRK23StaticTransferFieldInfo
GUd:_Array_get_swapper_TisInt32_t2071877448_m2837069166_gshared
vij:__ZN6il2cpp2gc19AppendOnlyGCHashMapINSt3__24pairIPK10MethodInfoP11Il2CppClassEEP22Il2CppReflectionMethod17ReflectionMapHashIS9_ENS2_8equal_toIS9_EEE3AddERKS9_SB_
oQg:_RectTransform_INTERNAL_get_rect_m1177342209
Acd:_PointerEventData_IsScrolling_m1971908975
U$i:_Keyboard_WarnIfTerminalNotConneced_m4209930749
v$i:_Hacker_DisplayWinScreen_m3165369911
eUa:__ZZ23InitPlayerLoopCallbacksvEN51PostLateUpdateUpdateCustomRenderTexturesRegistrator7ForwardEv
iOd:_Decimal_System_IConvertible_ToInt16_m3159038792
zu:__ZN7mecanim9animation12EvaluateClipEPKNS0_4ClipEPKNS0_9ClipInputEPNS0_10ClipMemoryEPNS0_10ClipOutputE
Xyg:_MonoMethodInfo_GetReturnType_m2864247130
u6a:__ZN13RenderManager29SetCurrentCameraAndStackStateEP6CameraP25CameraStackRenderingState
Woj:__ZN15dense_hashtableINSt3__24pairIK10KeyWrapperINS1_IP11Il2CppClassjEEES4_EES6_N6il2cpp8metadata14ArrayClassHashEN14dense_hash_mapIS6_S4_SB_NS6_14EqualsComparerINSA_17ArrayClassCompareEEENS0_9allocatorIS8_EEE9SelectKeyESF_SH_E12resize_deltaEjj
Xh:_JS_WebRequest_Release
$ie:_DirectoryNotFoundException__ctor_m2242202556
iW:__ZN11UnityEngine15CloudWebService14DataErrorEventD0Ev
q7c:_String_CreateString_m2448464375
mvf:_X509SubjectKeyIdentifierExtension__ctor_m2959112706
kSg:_Enumerator_Reset_m1147555085_AdjustorThunk
Mwg:_FieldInfo_get_IsNotSerialized_m2322769148
HLi:_Vector3_get_zero_m1527993324
ewj:__ZN6il2cpp8metadata15GenericMetadata7InflateEPK19Il2CppGenericMethodPK20Il2CppGenericContext
mVa:__ZN19ShaderPropertySheet16SetArrayPropertyEN9ShaderLab16FastPropertyNameENS_12PropertyTypeEPKvj
Qyg:_MonoGenericCMethod_get_ReflectedType_m2689239043
Tbf:_CryptoConvert_ToHex_m3804747475
T$e:_Collection_1_IsFixedSize_m499196375_gshared
shd:_ColorTween_set_startColor_m3546206870_AdjustorThunk
AMc:__ZN2UI11CanvasGroup23VirtualRedirectTransferER19StreamedBinaryWriteILb0EE
hqi:_InternalEnumerator_1_get_Current_m4083613828_gshared
rlc:__ZN8GUIState8EndOnGUIEv
TKf:_UnicodeEncoding_GetString_m542738941
vsj:__ZN6il2cpp6icalls8mscorlib6System2IO6MonoIO16get_ConsoleErrorEv
_Ic:_UNITY_TT_Get_VMetrics
Aie:_Path_InsecureGetFullPath_m2635272425
ULd:_DateTime_System_IConvertible_ToUInt32_m1363211018
vFf:_RuntimeMethodHandle__ctor_m1162528746
o8g:__ZL65DebuggerHiddenAttribute_t638884887_CustomAttributesCacheGeneratorP21CustomAttributesCache
FXd:_SetPropertyUtility_SetStruct_TisSingle_t2076509932_m3849235084_gshared
sHa:__ZN7Texture21GetMasterTextureLimitEv
b9a:__Z12CanAddScriptR10GameObject17ScriptingClassPtrPS1_S2_
qnj:__ZN6il2cpp2vm10Reflection12HasAttributeEP12Il2CppObjectP11Il2CppClass
avc:__ZN8JSONRead21TransferSTLStyleArrayI13dynamic_arrayI4AABBLj4EEEEvRT_18MemLabelIdentifier17TransferMetaFlags
I0:__ZN9ShaderLabL25StaticInitializeShaderLabEPv
U:Math_max
ydj:_il2cpp_class_get_methods
Die:_Path_CanonicalizePath_m383914732
rRg:_Enumerator_System_Collections_IEnumerator_get_Current_m1631145297_gshared
$zd:_ArrayList_Synchronized_m2395071980
gzj:__ZN6il2cpp2os6Thread16GetCurrentThreadEv
T3b:__ZN10GameObject13ComponentPair15SetComponentPtrEPN5Unity9ComponentE
coe:_UnexceptionalStreamWriter_Write_m3206913035
b_b:__Z13RegisterClassI10MeshFilterEvv
TE:__ZNK26AnimatorControllerPlayable24GetAnimatorClipInfoCountEib
_ib:__ZN10TagManager8TransferI19StreamedBinaryWriteILb0EEEEvRT_
RDb:__ZN11PreloadData23VirtualRedirectTransferER18StreamedBinaryReadILb0EE
Hz:__Z17dynamic_pptr_castIP10MonoScript6ObjectET_RK4PPtrIT0_E
p1h:_AnimatorControllerPlayable_GetAnimatorTransitionInfo_m2080024628_AdjustorThunk
NHf:_DESTransform_ProcessBlock_m2826669227
uee:_Int16_CompareTo_m3493496879
VDi:_GeneralNames_get_IPAddresses_m1712556836
S2h:_AnimatorControllerPlayable_Play_m3296663958_AdjustorThunk
Jsb:__ZN6Sprite17MainThreadCleanupEv
gN:__ZN10AudioMixer14UpdateMuteSoloEv
_qj:__ZN6il2cpp2vm9Exception27RaiseNullReferenceExceptionEv
jQh:_MaskableGraphic_UnityEngine_UI_IClippable_get_gameObject_m954171032
Jla:__ZN9ShaderLab10SubProgram7CompileEv
sGa:__ZN7ApiGLES16SetPatchVerticesEi
Ale:_MonoIOStat_t1621921065_marshal_pinvoke
mTa:__ZN10MemoryFileC2E18MemLabelIdentifierP14MemoryFileData14FilePermission
dBf:_TrackingServices_NotifyUnmarshaledObject_m1794048369
F2i:__ZN6il2cpp2vm5Class20FromGenericParameterEPK22Il2CppGenericParameter
IY:__ZN19CloudServiceHandler11FlushEventsEv
cba:__ZN15GlobalCallbacksC2Ev
h3d:_Array_InternalArray__set_Item_TisLabelFixup_t4090909514_m565370771_gshared
LH:__Z82Register_UnityEngine_Animations_AnimatorControllerPlayable_INTERNAL_CALL_SetBoolIDv
$zc:_UNITY_FT_New_Memory_Face
DG:__Z81AnimatorControllerPlayable_CUSTOM_INTERNAL_CALL_GetAnimatorTransitionInfoInternalR9HPlayablei
Uxc:__ZN20TextRenderingPrivate21TextMeshGeneratorImpl5FlushEv
Iza:__ZN26VertexDeclarationCacheGLES24DestroyVertexDeclarationEP17VertexDeclaration
Y2c:__Z15CastclassSealedP12Il2CppObjectP11Il2CppClass
w7a:__ZN16ReflectionProbes40UpdateRealtimeReflectionProbesTimeslicedEv
PAb:__ZNK30RuntimeInitializeOnLoadManager22GetTypeVirtualInternalEv
k7i:__ZN15dense_hashtableINSt3__24pairIK10KeyWrapperIN6il2cpp5utils13dynamic_arrayIPK10Il2CppTypeLj4EEEEPFvvEEESA_NS3_8metadata19Il2CppSignatureHashEN14dense_hash_mapISA_SD_SG_NSA_14EqualsComparerINSF_22Il2CppSignatureCompareEEENS0_9allocatorISE_EEE9SelectKeyESK_SM_E12resize_deltaEjj
x1b:__ZN16ReflectionProbes15InitializeClassEv
KIj:__ZN6il2cpp5utils5MatchENSt3__212basic_stringIcNS1_11char_traitsIcEENS1_9allocatorIcEEEEjRKS7_j
xAc:_UNITY_FT_Destroy_Class_psnames_module_class
dyi:_MRUList_Evict_m2430323183
M4e:_ReadOnlyCollection_1_System_Collections_Generic_ICollectionU3CTU3E_Remove_m1060547576_gshared
Adg:__Z68RuntimeInvoker_Boolean_t3825574718_Rect_t3681755626_SByte_t454417549PFvvEPK10MethodInfoPvPS4_
P7d:_Array_InternalArray__get_Item_TisRuntimeObject_m371871810_gshared
Nz:__ZN8Animator13BatchedFKPassERK13dynamic_arrayIP14PlayableOutputLj4EE
Ojf:_RecordProtocol_ProcessChangeCipherSpec_m3233959862
w9h:_Component_GetComponent_m4225719715
Dgc:__Z75Register_UnityEngine_Playables_PlayableHandle_INTERNAL_CALL_SetTimeInternalv
E5d:_Array_Sort_TisVector4_t2243707581_m474199742_gshared
_Ke:_List_1_CheckIndex_m2247532995_gshared
Mne:_TextWriter_Write_m576684782
VMi:_Vector3_Max_m2105825185
Uj:_glIsVertexArray
uUj:b16
sBb:__ZNSt3__26vectorIN4core12basic_stringIcNS1_20StringStorageDefaultIcEEEE13stl_allocatorIS5_L18MemLabelIdentifier12ELi16EEEC2INS_11__wrap_iterIPS5_EEEET_SE_RKS8_PNS_9enable_ifIXaasr21__is_forward_iteratorISE_EE5valuesr16is_constructibleIS5_NS_15iterator_traitsISE_E9referenceEEE5valueEvE4typeE
vQa:__ZN25SingleBlockMemoryFileDataC2E18MemLabelIdentifierPvjb
ea:invoke_fff
bXh:_Text_get_fontSize_m3105730761
sUj:b14
djf:_TlsServerHello_Update_m1740270635
LLc:__ZN2UI6Canvas17MainThreadCleanupEv
Cpa:__ZN6prcoreL12RemapGenericI17TexFormatARGB155517TexFormatRGBA8888EEvPKNS_9InnerInfoE
JTh:_ScrollRect_Rebuild_m3423824761
CQe:_List_1_Find_m3862454845_gshared
Uxi:_MatchCollection_get_Item_m2609281578
mNa:__ZN7ApiGLES13CreateProgramEv
Tkb:__ZN11HaloManager7AddHaloEv
NLf:_UTF8Encoding__ctor_m100325490
EHa:__ZN4crnd12crn_unpackerD2Ev
GWh:_StencilMaterial_ClearAll_m1372779118
ek:_emscripten_glTexImage2D
Fzf:_ObjRefSurrogate_SetObjectData_m1873902916
LIc:_tt_driver_class_pic_init
N1:__ZN18ScriptingArguments9AddStringEPKc
LGj:_setup_header
aRj:runPostSets
yva:__ZL23stbir__resize_arbitraryPvPKviiiS_iiiffffPfiij14stbir_datatype12stbir_filterS4_10stbir_edgeS5_16stbir_colorspace
uMe:_List_1_System_Collections_IList_Insert_m848656350_gshared
RJb:__Z18Transfer_BlittableI24GenerateTypeTreeTransferLb1E8Vector4fEvRK29SerializationCommandArgumentsR31RuntimeSerializationCommandInfo
Uee:_Int16_ToString_m3971652088_AdjustorThunk
pk:_pthread_detach
jaj:__ZN6il2cpp2vm19SocketPollingThread7RunLoopEv
Vyf:_MethodDictionary_AllocInternalProperties_m3261295876
t4b:__ZN15DirectorManager20ScheduleGraphDestroyERK14HPlayableGraph
uya:__ZNSt3__213__stable_sortIRN10vector_mapI17ScriptingClassPtrPKN5Unity4TypeENS_4lessIS2_EENS_9allocatorINS_4pairIS2_S6_EEEEE13value_compareENS_11__wrap_iterIPSB_EEEEvT0_SJ_T_NS_15iterator_traitsISJ_E15difference_typeEPNSM_10value_typeEi
eVb:__ZN9ShaderLab25SerializedTextureProperty8TransferI24GenerateTypeTreeTransferEEvRT_
h9e:_Comparison_1_Invoke_m2645957248_gshared
$$j:_emscripten_glIsShader__wrapper
ilj:__ZN6il2cpp2gc19AppendOnlyGCHashMapINSt3__24pairIPK14Il2CppAssemblyP11Il2CppClassEEP24Il2CppReflectionAssembly17ReflectionMapHashIS9_ENS2_8equal_toIS9_EEEC2Ev
nnc:__Z32GUIStyle_Get_Custom_PropFontSizeP12Il2CppObject
EEf:_DelegatePInvokeWrapper_CallbackHandler_t362827733
Gtc:__Z18Transfer_BlittableI8JSONReadLb1EyEvRK29SerializationCommandArgumentsR31RuntimeSerializationCommandInfo
Mk:_emscripten_glMatrixMode
ts:__ZN8Animator23VirtualRedirectTransferER18StreamedBinaryReadILb0EE
Pje:_NotSupportedException__ctor_m836173213
pzf:_MethodReturnDictionary__ctor_m756139344
EV:__ZN11UnityEngine15CloudWebService14DataDispatcher16PrepareDataBlockERNS0_16SessionContainerE
DNa:__ZN18GfxFramebufferGLES5ClearE13GfxClearFlagsRK10ColorRGBAffib
Ogg:__Z70RuntimeInvoker_Void_t1841601450_Playable_t1896841784_Int32_t2071877448PFvvEPK10MethodInfoPvPS4_
qQb:__ZL26Transfer_SimpleNativeClassI18StreamedBinaryReadILb0EE10RectOffsetLb0EEvRK29SerializationCommandArgumentsR31RuntimeSerializationCommandInfo
uAc:_UNITY_ft_destroy_default_module_classes
$Ie:_List_1_CheckMatch_m1772343151_gshared
ZZa:__ZL12DepthPassJobPN21GfxDeviceAsyncCommand10ArgScratchEPKNS_3ArgE
HTb:__ZNSt3__26vectorIN9ShaderLab20SerializedSubProgram16TextureParameterENS_9allocatorIS3_EEE6assignINS_11__wrap_iterIPS3_EEEENS_9enable_ifIXaasr21__is_forward_iteratorIT_EE5valuesr16is_constructibleIS3_NS_15iterator_traitsISC_E9referenceEEE5valueEvE4typeESC_SC_
mhe:_IntPtr_Equals_m1214967011_AdjustorThunk
uPe:_List_1_Add_m3591975577_gshared
APc:__Z55Register_UnityEngine_CanvasGroup_get_ignoreParentGroupsv
C_b:__Z13RegisterClassI19LowerResBlitTextureEvv
Pm:FUNCTION_TABLE_iiiiiiiiiiii
vkb:__ZN16GraphicsSettingsD0Ev
hZj:_pthread_mutex_init__wrapper
Y5a:__ZN15LODGroupManager21CalculateLODDataArrayERK13LODParametersPK6Cameraf
n:cttz_i8
EGc:_UNITY_FT_GlyphLoader_Add
abe:_DateTimeFormatInfo_get_FullDateTimePattern_m2607507656
Djf:_HttpsClientStream_RaiseServerCertificateValidation_m3356770426
LPd:_DelegateSerializationHolder__ctor_m3915060553
vBb:__ZN15SerializeTraitsINSt3__26vectorIN30RuntimeInitializeOnLoadManager9ClassInfoE13stl_allocatorIS3_L18MemLabelIdentifier12ELi16EEEEE8TransferI24GenerateTypeTreeTransferEEvRS7_RT_
Y5d:_Array_swap_TisUIVertex_t1204258818_TisUIVertex_t1204258818_m1163375424_gshared
Il:_emscripten_glViewport
_Cj:__ZN6il2cpp6icalls8mscorlib6System15MonoCustomAttrs17IsDefinedInternalEP12Il2CppObjectP20Il2CppReflectionType
bvb:__ZN4Mesh21UnswizzleVertexColorsEb
NMd:_DateTime_ToString_m2276663647_AdjustorThunk
IIc:_cff_parse_font_bbox
_r:__GLOBAL__sub_I_runtime_animation2_lump_cpp
jzb:__ZN14PlayerSettings23VirtualRedirectTransferER18StreamedBinaryReadILb0EE
RLj:__ZN6il2cpp2os5Event5ResetEv
F1e:_ReadOnlyCollection_1_System_Collections_IList_Insert_m1130110335_gshared
pTi:_AesManaged__ctor_m2322442838
Svj:__ZN6il2cpp8metadata15GenericMetadata17InflateParametersEPK13ParameterInfohPK20Il2CppGenericContextb
xge:_Int64_System_IConvertible_ToUInt32_m850395426_AdjustorThunk
htg:_TypeBuilder_GetMethodsByName_m229541072
h6h:_PCMReaderCallback_Invoke_m3610389815
sYc:_HMACSHA512__ctor_m2390736870
xy:__ZNK17AnimationPlayable27GetNextCompatibleDescendantEi
dtg:_TypeBuilder_GetInterfaces_m1818658502
iae:_NumberFormatter_AppendIntegerString_m868842252
nga:__Z25SetNeedToPerformRenderingb
jzg:_MonoMethod_GetPseudoCustomAttributes_m466965107
G1a:__ZNSt3__227__insertion_sort_incompleteIR23CompareReflectionProbesP31RuntimeReflectionProbeBlendInfoEEbT0_S5_T_
m_a:__ZN14qsort_internal30FindAndMovePivotToLastPositionIP15RODataDepthPassi17ROSorterDepthPassEEvT_S4_T0_T1_
YVc:__ZN20UnityWebRequestProtoI19TransportJavaScript16AtomicRefCounter14RedirectHelper14ResponseHelper15DownloadHandler13UploadHandler12HeaderHelper14AsyncOperationE35Task_FinalizeAfterDHCompleteContentEPv
_Sg:_Enumerator_System_Collections_IDictionaryEnumerator_get_Value_m3005608231_gshared
APh:_MaskUtilities_NotifyStencilStateChanged_m1527407683
M$f:__Z94RuntimeInvoker_Void_t1841601450_RuntimeObject_Int32_t2071877448_RuntimeObject_SByte_t454417549PFvvEPK10MethodInfoPvPS4_
i6a:__ZN12CullingGroup10SendEventsEPK17CullingGroupEventj
Xwe:_DSAManaged_GenerateKeyPair_m2711647034
Ubb:__ZN13sorted_vectorINSt3__24pairIN4core12basic_stringIcNS2_20StringStorageDefaultIcEEEES6_EEN10vector_mapIS6_S6_27compare_tstring_insensitiveIS6_E13stl_allocatorIS7_L18MemLabelIdentifier37ELi16EEE13value_compareESD_E9erase_oneIS6_EEjRKT_
jrb:__ZThn32_NK8Renderer8GetLayerEv
b0d:_Array_InternalArray__ICollection_Add_TisResourceCacheItem_t333236149_m1151081240_gshared
_P:__ZN17AudioClipPlayable12PrepareFrameERK19DirectorVisitorInfo
qCf:_SoapServices_GetXmlTypeForInteropType_m3821579913
ZZj:_emscripten_glTexParameterfv__wrapper
pej:_il2cpp_method_get_param_count
bZb:__ZN10systeminfo19ISOToSystemLanguageERN4core12basic_stringIcNS0_20StringStorageDefaultIcEEEE
bkj:__ZNK15dense_hashtableINSt3__24pairIK10KeyWrapperINS1_IPK12PropertyInfoP11Il2CppClassEEEjEES9_17ReflectionMapHashIS8_EN14dense_hash_mapIS9_jSD_NS9_14EqualsComparerINS0_8equal_toIS8_EEEENS0_9allocatorISB_EEE9SelectKeyESI_SK_E3endEv
oZh:_AnimationClipPlayable_op_Explicit_m1819456049
_Ec:_ps_dimension_done
Wed:_LayoutRebuilder_MarkLayoutForRebuild_m640589351
BLc:__Z46Register_UnityEngine_TextGenerator_Dispose_cppv
Ccd:_PointerEventData_get_pressEventCamera_m724559964
k2c:_String_IndexOfUnchecked_m3356721554
Zpb:__ZN16LightmapSettings8TransferI14SafeBinaryReadEEvRT_
NIa:__ZN17BufferManagerGLES13ReleaseBufferEP14DataBufferGLES
W_i:_Display__ctor_m3803500957
Dtc:__Z18Transfer_BlittableI8JSONReadLb1EjEvRK29SerializationCommandArgumentsR31RuntimeSerializationCommandInfo
rEi:_PKCS12_Decrypt_m1557069392
tXh:_VertexHelper_AddUIVertexQuad_m280792808
Jqf:_WebHeaderCollection_ToString_m1246460752
goi:_InternalEnumerator_1_System_Collections_IEnumerator_get_Current_m2842514953_AdjustorThunk
jp:stackSave
uFc:_ps_dimension_end
zfc:__Z41Register_UnityEngine_Mesh_Internal_Createv
Qvj:__ZNK15dense_hashtableI10KeyWrapperIP18Il2CppGenericClassES3_N6il2cpp8metadata22Il2CppGenericClassHashEN14dense_hash_setIS3_S6_NS3_14EqualsComparerINS5_25Il2CppGenericClassCompareEEENSt3__29allocatorIS3_EEE8IdentityESA_SD_E12test_deletedERK30dense_hashtable_const_iteratorIS3_S3_S6_SF_SA_SD_E
wqf:_ServicePointManager_get_SecurityProtocol_m1445189298
JYc:_MACTripleDES_Initialize_m1318099802
Hcf:_MD5SHA1_VerifySignature_m507888141
Rwd:_Byte_System_IConvertible_ToChar_m4188836679
Kae:_NumberFormatter_InitDecHexDigits_m2036076025
DTg:_Enumerator_get_CurrentKey_m3839846791_AdjustorThunk
quc:__ZN8JSONRead21TransferSTLStyleArrayI13dynamic_arrayIaLj1EEEEvRT_18MemLabelIdentifier17TransferMetaFlags
e8a:__ZN6Camera9SetAspectEf
lWc:__ZN19TransportJavaScript9DoRequestERKN4core12basic_stringIcNS0_20StringStorageDefaultIcEEEEm21UnityWebRequestMethodS6_bbP12HeaderHelperP13UploadHandlerP15DownloadHandlerP14ResponseHelperP15UnityWebRequest
va:invoke_viiffiii
HIh:__ZL79TouchInputModule_t2561058385_CustomAttributesCacheGenerator_m_ForceModuleActiveP21CustomAttributesCache
p$j:_emscripten_glBindVertexArray__wrapper
I_g:_Dictionary_2_InitArrays_m435313205_gshared
W8a:__ZN9Transform37InitializeTransformHierarchyRecursiveER18TransformHierarchyRii
U$b:__Z34DefaultPrepareDispatchBoundsUpdateR13RendererScene18MemLabelIdentifier
Pkd:_Graphic_get_useLegacyMeshGeneration_m1366444625
vqf:_ServicePointManager_get_CheckCertificateRevocationList_m4009410230
DKh:__ZL65InputField_t1631627530_CustomAttributesCacheGenerator_m_InputTypeP21CustomAttributesCache
kve:_ModulusRing_Pow_m1137250399
sWa:__ZN17MeshRenderingData4InitEP4MeshS1_iP15SharedGfxBufferS3_
xDd:_Hashtable__cctor_m2952659675
Wuf:_X509ChainStatus__ctor_m3628359961_AdjustorThunk
B2c:_Evidence_get_HostEvidenceList_m2095478124
Zic:__Z57Register_UnityEngine_Transform_INTERNAL_set_localPositionv
Mff:_Context_Clear_m4000337070
MDa:__ZN13GfxDeviceGLES26SetRandomWriteTargetBufferEi15ComputeBufferID
Gxf:_IntervalCollection_Normalize_m538796191
TTa:__ZZ23InitPlayerLoopCallbacksvEN49EarlyUpdateResetFrameStatsAfterPresentRegistrator7ForwardEv
ZFd:_Console_SetEncodings_m342145566
HKi:_TrackedReference_op_Equality_m3491334086
Gkd:_FontUpdateTracker_UntrackText_m3827316510
$7d:_Array_InternalArray__get_Item_TisSingle_t2076509932_m1495809753_gshared
w3d:_Array_InternalArray__set_Item_TisAnimatorClipInfo_t3905751349_m978873279_gshared
_7b:__ZNK11ICallString6ToUTF8Ev
hBi:_CaptureAssertion_get_Alternate_m2729005740
QEj:_GC_number_stack_black_listed
n_a:__ZNSt3__211__sift_downIR17ROSorterDepthPassP15RODataDepthPassEEvT0_S5_T_NS_15iterator_traitsIS5_E15difference_typeES5_
Spg:_Default_SelectMethod_m3081239996
gna:__ZN18UnityPropertySheet11UnityTexEnvC2Ev
eA:__ZN8Animator17ApplyOnAnimatorIKEiRNS_11AnimatorJobE
Y5:__ZN12FileAccessor4ReadEyyPvPy
Gla:__ZN13dynamic_arrayI16ShaderKeywordSetLj4EE6insertEPS0_PKS0_S4_
Wyf:_MethodDictionary_IsOverridenKey_m3922224650
MEd:_SyncHashtable_Contains_m3042906549
kSe:_List_1_System_Collections_IList_set_Item_m4016273526_gshared
lvf:_X509KeyUsageExtension_CopyFrom_m931530012
TZh:_AnimationLayerMixerPlayable_IsLayerAdditiveInternal_m3902226808
G7a:__ZN13RenderTexture9SetHeightEi
Mt:__ZN7mecanim9animation17ClearMotionOutputEPNS0_18AnimationNodeStateE
oPh:_LayoutUtility_U3CGetMinHeightU3Em__4_m1769295917
p9h:_Color32__ctor_m1932627809_AdjustorThunk
KPc:__Z36CanvasRenderer_CUSTOM_SetPopMaterialP12Il2CppObjectS0_i
D2h:_AnimatorControllerPlayable_INTERNAL_CALL_PlayInFixedTimeInternal_m44271350
oRh:_RectMask2D_PerformClipping_m1232012832
rUg:_Transform_1_Invoke_m4020530914_gshared
GDc:_tt_cmap8_char_index
j2:__Z24scripting_class_get_name17ScriptingClassPtr
g8:__ZN13RuntimeStaticI15GUIEventManagerLb0EE13StaticDestroyEPv
ADg:_GUILayoutGroup_ResetCursor_m3160916532
qzj:__ZN6il2cpp2os6Thread15CurrentThreadIdEv
rGb:__Z29Transfer_Blittable_ArrayFieldI14SafeBinaryReadjEvRT_R9ArrayInfoRK23StaticTransferFieldInfo
A7h:_Camera_FireOnPostRender_m94860165
le:_emscripten_set_keydown_callback
hEd:_Enumerator_get_Value_m3684748062
$ib:__ZN19StreamedBinaryWriteILb0EE21TransferSTLStyleArrayINSt3__26vectorI17SortingLayerEntryNS2_9allocatorIS4_EEEEEEvRT_17TransferMetaFlags
dSf:_UInt32_Parse_m3371984903
e6:__ZN12FileAccessorC2Ev
V9a:__ZN9Transform35SetLocalPositionWithoutNotificationERKN4math7_float3E
Xyi:_PatternLinkStack_GetCurrent_m2994645935
Jcj:__ZN6il2cpp2vm7Runtime12GetConfigDirEv
Yyf:_MethodDictionary_set_Item_m3475146889
JXh:_Toggle_PlayEffect_m3950629415
YZd:_Array_IndexOf_TisRuntimeObject_m214763038_gshared
$Cb:__Z39WriteQueueForTransferSignatureIntoCacheRK31TransferFunctionScriptingTraitsRK24TransferRequestSignature17ScriptingClassPtrR23CachedSerializationDataRb
Mta:__ZN13RenderManager18UpdateAllRenderersEv
vRc:__ZN22BaseUnityConnectClient30OnEnteringStatePausedOrStoppedEv
Mjj:__ZN15dense_hashtableINSt3__24pairIK10KeyWrapperINS1_IPK12PropertyInfoP11Il2CppClassEEEjEES9_17ReflectionMapHashIS8_EN14dense_hash_mapIS9_jSD_NS9_14EqualsComparerINS0_8equal_toIS8_EEEENS0_9allocatorISB_EEE9SelectKeyESI_SK_E12resize_deltaEjj
Zt:__ZN7mecanim5human12HumanPoseAddERNS0_9HumanPoseERKS1_S4_
i3h:_Animator_ResetTrigger_m865269317
LZe:_Collection_1_IsFixedSize_m218241296_gshared
R9a:__Z24MergeTransformComponentsR9TransformS0_b
Q1h:_AnimatorControllerPlayable_IsInTransition_m3708059860
u6h:_DelegatePInvokeWrapper_AudioConfigurationChangeHandler_t3743753033
yle:_MonoIO_get_PathSeparator_m2635828107
lui:_InternalEnumerator_1_get_Current_m889125315_gshared
Hqe:_MonoType_get_Name_m865859211
aUd:_CultureInfo__cctor_m2290268677
ZT:__Z71Register_UnityEngine_Audio_AudioClipPlayable_INTERNAL_CALL_ValidateTypev
DBf:_RemotingConfiguration__cctor_m2129988840
aYe:_Collection_1_Insert_m44548038_gshared
aDj:__ZN6il2cpp2vm13ComObjectBase19GetRuntimeClassNameEPP15Il2CppHString__
Sj:_emscripten_glVertexAttribPointer
Jlb:__ZNK20IntermediateRenderer12GetSceneMaskEv
Rra:__ZN14PreloadManager26UpdatePreloadingSingleStepENS_21UpdatePreloadingFlagsEi
kJg:_Material__ctor_m1440882780
f0c:_SHA512Managed_Initialize_m891287980
P2c:_SecurityException__ctor_m1484114982
BGi:_X509Crl_GetHashName_m183504634
Etd:_Array_GetValue_m1507415734
fhc:__Z57Register_UnityEngine_RectTransform_INTERNAL_set_anchorMinv
y9d:_Object_MemberwiseClone_m2655589444
jpa:__ZN6prcoreL25inner_stretch_i8_bilinearEPKNS_9InnerInfoE
rsa:__ZL30RegisterFilteredObjectCallbackPP12Il2CppObjectiPv
szg:_MonoMethod_get_IsGenericMethod_m4276550811
QUg:_Transform_1_BeginInvoke_m3826027984_gshared
_V:__ZN11UnityEngine15CloudWebService16SessionContainer24GetSessionHeaderJsonDataERKN4core12basic_stringIcNS2_20StringStorageDefaultIcEEEERNS2_13StringBuilderE
rId:_Decimal_op_Implicit_m2149927308
T7:__ZN13RuntimeStaticI21AssetReferenceStorageLb0EE13StaticDestroyEPv
Myj:__ZN6il2cpp6icalls8mscorlib6System9AppDomain22InternalGetProcessGuidEP12Il2CppString
rZb:__ZN15dense_hashtableINSt3__24pairIKN4core12basic_stringIcNS2_20StringStorageDefaultIcEEEE10vector_setI4PPtrI11SpriteAtlasENS0_4lessISB_EE13stl_allocatorISB_L18MemLabelIdentifier79ELi16EEEEES6_20StringHash32FunctionIS6_EN14dense_hash_mapIS6_SH_SK_NS0_8equal_toIS6_EESE_ISI_LSF_79ELi16EEE9SelectKeyESN_SO_E15insert_noresizeERKSI_
txe:_KeyPairPersistence_get_UseMachineKeyStore_m560802076
XQ:__ZN19AudioPlayableOutput19DeallocateResourcesEv
zRg:_Enumerator_System_Collections_IDictionaryEnumerator_get_Entry_m345330700_AdjustorThunk
kKb:__Z18Transfer_BlittableI24GenerateTypeTreeTransferLb1EjEvRK29SerializationCommandArgumentsR31RuntimeSerializationCommandInfo
ecf:_MD2Managed_Padding_m410163267
Clb:__ZN11ColorRGBA328TransferI14SafeBinaryReadEEvRT_
Qf:_emscripten_glClearDepth
V2b:__ZNK8GUILayer22GetTypeVirtualInternalEv
lsb:__ZN14SafeBinaryRead21TransferSTLStyleArrayINSt3__26vectorIN15QualitySettings14QualitySettingENS1_9allocatorIS4_EEEEEEvRT_17TransferMetaFlags
nje:_File_OpenText_m4058508963
Wyb:__ZNSt3__26vectorINS_4pairIPKN5Unity4TypeE7Hash128EENS_9allocatorIS7_EEE8__appendEj
CCf:_WellKnownClientTypeEntry__ctor_m670594074
doj:__ZN15dense_hashtableINSt3__24pairIK10KeyWrapperIP11Il2CppClassES4_EES5_N6il2cpp8metadata16SZArrayClassHashEN14dense_hash_mapIS5_S4_SA_NS5_14EqualsComparerINS9_19SZArrayClassCompareEEENS0_9allocatorIS7_EEE9SelectKeyESE_SG_EC2ERKSJ_j
JLd:_DateTime_System_IConvertible_ToSingle_m3927769066_AdjustorThunk
UHc:_cff_font_load
Ljf:_RecordProtocol_SendRecord_m2977889250
Rac:__Z13IsPathCreatedRKN4core12basic_stringIcNS_20StringStorageDefaultIcEEEE
Eva:__ZL22stbir__encode_scanlineP11stbir__infoiPvPfiii
J1f:__Z136RuntimeInvoker_Void_t1841601450_Byte_t3683104436_RuntimeObject_Int64U26_t763825331_ObjectU26_t597476745_SerializationInfoU26_t4051840202PFvvEPK10MethodInfoPvPS4_
Mwc:__ZN20QuadTreeNodeRenderer13StaticDestroyEPv
WW:__ZN11UnityEngine15CloudWebService20WebRequestRestClient5AbortEv
H$b:__ZN9Transform12CleanupClassEv
eYf:__Z50RuntimeInvoker_Void_t1841601450_Double_t4078015681PFvvEPK10MethodInfoPvPS4_
bIj:__ZN6il2cpp6icalls8mscorlib6System9Threading16NativeEventCalls19CloseEvent_internalE12Il2CppIntPtr
Mz:__ZN11UnityEngine9Animation33SetGenericTransformPropertyValuesERKNS0_30AnimatorGenericBindingConstantERKN7mecanim10ValueArrayEP9Transformb
Kff:_ClientContext_set_ClientHelloProtocol_m2246603449
cAc:_UNITY_FT_Set_Pixel_Sizes
$qd:_U3CMouseDragOutsideRectU3Ec__Iterator1_MoveNext_m2845491958
uUb:__ZNSt3__26vectorIN9ShaderLab19SerializedSubShaderENS_9allocatorIS2_EEE26__swap_out_circular_bufferERNS_14__split_bufferIS2_RS4_EE
SZf:__Z116RuntimeInvoker_RuntimeObject_RuntimeObject_Int32_t2071877448_RuntimeObject_RuntimeObject_RuntimeObject_RuntimeObjectPFvvEPK10MethodInfoPvPS4_
Ndd:_StandaloneInputModule_IsModuleSupported_m623598506
hpj:__ZN6il2cpp2vmL24thread_cleanup_on_cancelEPv
EGf:_SByte_ToString_m4105923225_AdjustorThunk
eUd:_CultureInfo_ConstructCurrentUICulture_m3363349599
ltb:__ZN13dynamic_arrayI7SubMeshLj4EE18resize_initializedEjRKS0_12ResizePolicy
dNh:__ZL75CanvasScaler_t2574720772_CustomAttributesCacheGenerator_m_FallbackScreenDPIP21CustomAttributesCache
eqe:_MonoType_GetEvent_m4160342003
_Qh:_RawImage_set_texture_m2400157626
ZVi:_PrimeHelper_ToPrime_m1606935350_gshared
Rlb:__Z30ProcessDynamicBatchGeometryJobP25DynamicVBOGeometryJobDataj
L_a:__ZNSt3__27__sort4IRNS_6__lessI11CulledLightS2_EEPS2_EEjT0_S6_S6_S6_T_
mfj:__ZN6il2cpp2vm14TypeNameParser26ParseArrayModifierOptionalEv
$4h:_AudioClipPlayable_INTERNAL_CALL_GetLoopedInternal_m3082735156
Gse:_MSCompatUnicodeTable_Level3_m260824928
w3:__Z26scripting_object_get_class18ScriptingObjectPtr
e$b:__ZNK28MonoBehaviourPropertyBinding15GenerateBindingERKN4core12basic_stringIcNS0_20StringStorageDefaultIcEEEEbRN11UnityEngine9Animation14GenericBindingE
dHg:_GUIStyle_CalcMinMaxWidth_m2027503105
Oee:_Int32_FindExponent_m3187554672
Fxe:_KeyPairPersistence_Load_m1355205585
Qfe:_Int32_ToString_m2960866144_AdjustorThunk
v1i:_Predicate_1_Invoke_m3539717340_gshared
qWi:_HashSet_1_Contains_m3626542335_gshared
T4c:_Single_CompareTo_m2081476257_AdjustorThunk
cBj:__ZN6il2cpp6icalls8mscorlib6System11Environment15internalGetHomeEv
GTj:dynCall_iiiiiiffiiiiiiiiiffffiiii
WEi:_PKCS12_get_Keys_m288413492
wgb:__ZNK5Unity9Component7GetNameEv
nEf:__ZN21InterfaceFuncInvoker4IP12Il2CppObjectS1_P28SerializationInfo_t22898743028StreamingContext_t1417235061S1_E6InvokeEjP11Il2CppClassS1_S1_S3_S4_S1_
HSi:_ObjectPool_1_Get_m3724675538_gshared
ZA:__ZN7mecanim8skeleton26SkeletonPoseComputeGlobalQEPKNS0_8SkeletonEPKNS0_13SkeletonPoseTIN4math4trsXEEEPS7_ii
pvc:__ZN8JSONRead21TransferSTLStyleArrayI13dynamic_arrayIfLj4EEEEvRT_18MemLabelIdentifier17TransferMetaFlags
RMe:_List_1_GetEnumerator_m2672519407_gshared
zA:__ZN9BlobWrite8TransferI22OffsetPtrArrayTransferIiEEEvRT_PKc17TransferMetaFlags
Y1f:__Z82RuntimeInvoker_Boolean_t3825574718_SByte_t454417549_RuntimeObject_SByte_t454417549PFvvEPK10MethodInfoPvPS4_
qse:_ContractionComparer_Compare_m314873025
h3a:__ZN14qsort_internal18QSortSingleJobDataIP16RenderObjectDatai26RenderDeferredObjectSorterE7SortJobEPS4_
UHg:_GUIUtility_EndGUIFromException_m2091524531
gge:_Int64_System_IConvertible_ToDouble_m638786774
qM:__ZN4FMOD6System7releaseEv
B5:__Z18PathToAbsolutePathRKN4core12basic_stringIcNS_20StringStorageDefaultIcEEEE
dEe:_Enumerator_MoveNext_m3078170540_AdjustorThunk
fIj:__ZN6il2cpp6icalls8mscorlib6System10Reflection16MonoPropertyInfo16GetTypeModifiersEPvb
hTi:_Action_Invoke_m3801112262
qYf:__Z79RuntimeInvoker_Decimal_t724701077_RuntimeObject_Int32_t2071877448_RuntimeObjectPFvvEPK10MethodInfoPvPS4_
j9h:_Color_Lerp_m3323752807
jva:__ZL13BlitImageImplR14ImageReferenceiiRKS_NS_10ColorSpaceENS_8BlitModeEb
Bqa:__ZN6prcoreL17RemapGenericFloatI18TexFormatRGBAFloat17TexFormatRGBFloatEEvPKNS_9InnerInfoE
GXf:__Z64RuntimeInvoker_RuntimeObject_Int16_t4041245914_Int16_t4041245914PFvvEPK10MethodInfoPvPS4_
awa:__ZN29SerializeTraitsForStringTypesIN4core12basic_stringIcNS0_20StringStorageDefaultIcEEEEE8TransferI24GenerateTypeTreeTransferEEvRS4_RT_
JGg:_GUIUtility_Internal_GetHotControl_m2510727642
xK:__ZN12AudioManager29ShutdownReinitializeAndReloadEv
bEi:_NetscapeCertTypeExtension_Decode_m2210025005
NQg:_RectTransform_GetLocalCorners_m1836626405
LCf:_BaseFixupRecord_DoFixup_m1821597450
I2i:__ZN15dense_hashtableINSt3__24pairIK10KeyWrapperIPK22Il2CppGenericParameterEP11Il2CppClassEES6_N6il2cpp5utils11PointerHashIS4_EEN14dense_hash_mapIS6_S9_SE_NS6_14EqualsComparerINS0_8equal_toIS5_EEEENS0_9allocatorISA_EEE9SelectKeyESJ_SL_E6insertERKSA_
rje:_FileLoadException__ctor_m1356374414
_Fa:__ZN14DataBufferGLES16RecreateWithDataEjPKv
nac:__Z29GetGlobalAllowNameConversionsv
Jab:__ZN8Material8SetColorEN9ShaderLab16FastPropertyNameERK10ColorRGBAf
Cxg:_Module_GetCustomAttributes_m3581287913
jO:__ZN11AudioSource23VirtualRedirectTransferER18StreamedBinaryReadILb0EE
Y7:__ZN21AssetReferenceStorageC2Ev
rxc:__ZNSt3__26vectorIN4core12basic_stringIcNS1_20StringStorageDefaultIcEEEE13stl_allocatorIS5_L18MemLabelIdentifier34ELi16EEEC2INS_11__wrap_iterIPS5_EEEET_SE_RKS8_PNS_9enable_ifIXaasr21__is_forward_iteratorISE_EE5valuesr16is_constructibleIS5_NS_15iterator_traitsISE_E9referenceEEE5valueEvE4typeE
n2:__ZL41AssemblyNameMatchesWithOrWithoutExtensionPKcS0_
qKa:__ZN14GfxContextGLES43AddRenderSurfaceToDeferredFBOInvalidateListEPK17RenderSurfaceGLES
fqj:__ZN6il2cpp6icalls8mscorlib6System9Threading6Thread15Thread_internalEP12Il2CppThreadP14Il2CppDelegate
Qka:__ZN11NamedObject23VirtualRedirectTransferER14SafeBinaryRead
Uzc:__ZNSt3__26vectorIN20TextRenderingPrivate8FontImpl13CharacterInfoE13stl_allocatorIS3_L18MemLabelIdentifier1ELi16EEE6insertENS_11__wrap_iterIPKS3_EERS9_
$ra:__ZN23PreloadManagerOperation6IsDoneEv
Scj:__ZN6il2cpp2vm7Runtime15InvokeWithThrowEPK10MethodInfoPvPS5_
kBe:_X509Certificate_get_RawData_m3000055075
C5b:__Z33GetHasChangedDeprecatedSystemMaskv
ECj:__ZN6il2cpp5utils11StringUtils11Utf16ToUtf8ERKNSt3__212basic_stringIDsNS2_11char_traitsIDsEENS2_9allocatorIDsEEEE
KSg:_Enumerator_VerifyState_m1165543189_AdjustorThunk
pMd:_DateTime_AddSeconds_m722082155_AdjustorThunk
yBd:_SynchronizedArrayListWrapper_CopyTo_m956887031
r8i:__ZNSt3__213__lower_boundIRN6il2cpp5utils11collections13ArrayValueMapIPK10Il2CppType17Il2CppInteropData26InteropDataToTypeConverterNS1_8metadata14Il2CppTypeLessENSA_26Il2CppTypeEqualityComparerEE22LowerBoundFindComparerEPKS8_S7_EET0_SI_SI_RKT1_T_
Bwa:__ZN21LightProbeProxyVolume18HasHardwareSupportEv
epa:__ZN6prcoreL31inner_stretch_argb8888_bilinearEPKNS_9InnerInfoE
MNb:__Z18Transfer_BlittableI18StreamedBinaryReadILb1EELb1E8BitFieldEvRK29SerializationCommandArgumentsR31RuntimeSerializationCommandInfo
WBc:_UNITY_FT_Outline_Decompose
Whf:_TlsClientCertificate_get_ClientCertificate_m3062440489
r2c:_StrongNamePublicKeyBlob_ToString_m3721281223
yni:_InternalEnumerator_1_get_Current_m198513457_AdjustorThunk
LYa:__Z20scripting_object_new17ScriptingClassPtr
Lce:_TextInfo__ctor_m2782608694
mTe:_Queue_1_System_Collections_ICollection_CopyTo_m772787461_gshared
Hjc:__Z58Register_UnityEngine_Object_Internal_CloneSingleWithParentv
Uce:_TextInfo_ToUpper_m299550697
O_h:_AnimationOffsetPlayable_INTERNAL_CALL_SetRotationInternal_m2809009466
csc:__ZN9JSONWrite8TransferI13dynamic_arrayI8BitFieldLj4EEEEvRT_PKc17TransferMetaFlags
b3a:__ZN18ShadowMapJobHeaderD0Ev
Vkd:_Graphic_OnRectTransformDimensionsChange_m1610753363
oKd:_Convert_ToUInt16_m3265369225
P:Math_exp
Lpe:_MonoEnumInfo_get_Cache_m3551569711
No:FUNCTION_TABLE_iiifi
Ayj:__ZN6il2cpp2os5posix13PosixAutoLockD2Ev
VVd:_Array_InternalArray__ICollection_Contains_TisVector3_t2243707580_m3625701788_gshared
aza:__ZNSt3__26vectorINS_4pairIyP17VertexDeclarationEENS_9allocatorIS4_EEE6insertENS_11__wrap_iterIPKS4_EERS9_
cGc:_cff_get_advances
G8a:__ZN13MonoBehaviour9SetScriptERK4PPtrI10MonoScriptE18ScriptingObjectPtr
LVd:_Array_InternalArray__ICollection_Contains_TisPlayableBinding_t2498078091_m4267109606_gshared
CBc:_UNITY_FT_Create_Class_sfnt_module_class
JOd:_Decimal_IsZero_m3557909184_AdjustorThunk
dzd:_Char_ToString_m1401375624
RYc:_MD5CryptoServiceProvider__cctor_m3309191799
kfa:__ZNK10FileSystem16LastErrorMessageEv
kOg:_ScriptPlayableOutput__ctor_m3107656159
Edg:__Z74RuntimeInvoker_Vector2_t2243707579_Vector2_t2243707579_Vector2_t2243707579PFvvEPK10MethodInfoPvPS4_
QFe:_Enumerator_System_Collections_IEnumerator_Reset_m3052395060_gshared
naf:_Kernel_DwordDivMod_m3728402123
KBb:__ZN13MonoBehaviour13AwakeFromLoadE17AwakeFromLoadMode
zIb:__ZL26Transfer_SimpleNativeClassI17RemapPPtrTransfer8GradientLb1EEvRK29SerializationCommandArgumentsR31RuntimeSerializationCommandInfo
Q5b:__ZN12CachedWriter9InitWriteER15CacheWriterBase
o4b:__Z21UnsignedInt64ToStringy
GLf:_UTF7Decoder__ctor_m549434986
Oti:_InternalEnumerator_1_get_Current_m1025321669_AdjustorThunk
Rfc:__Z36MonoBehaviour_CUSTOM_InvokeRepeatingP12Il2CppObjectP12Il2CppStringff
ijc:__Z66Register_UnityEngine_Transform_INTERNAL_CALL_InverseTransformPointv
Aaa:__ZZN15DirectorManager15InitializeClassEvEN41FixedUpdateDirectorFixedUpdateRegistrator7ForwardEv
$Ij:__ZN6il2cpp2os9MutexImpl7TryLockEjb
Yvf:_Group__ctor_m4103922028
ZUa:__ZN6Camera26ClearIntermediateRenderersEj
__j:_glLinkProgram__wrapper
Opa:__ZN6prcoreL12RemapGenericI17TexFormatARGB888815TexFormatBGR888EEvPKNS_9InnerInfoE
XYc:_MD5CryptoServiceProvider_ProcessFinalBlock_m1052610785
HG:__Z79AnimatorControllerPlayable_CUSTOM_INTERNAL_CALL_GetNextAnimatorClipInfoInternalR9HPlayablei
OBd:_BitArray_Set_m2878881714
MUh:_Selectable_get_colors_m3501193396
cuj:__ZN6il2cpp6icalls8mscorlib6System13Globalization11CultureInfo35construct_internal_locale_from_nameEP17Il2CppCultureInfoP12Il2CppString
zKb:__ZL22Transfer_ManagedObjectI24GenerateTypeTreeTransferLb1EEvRK29SerializationCommandArgumentsR31RuntimeSerializationCommandInfo
fii:_ContextAttribute_Equals_m53324298
d8h:_Canvas_ForceUpdateCanvases_m2446828475
_j:_emscripten_set_main_loop_timing
wVf:_WeakReference_AllocateHandle_m1783929473
VFa:__ZN14DataBufferGLES12RecordRenderEv
U4d:_Array_Sort_TisRuntimeObject_m3674422195_gshared
gab:__ZN14ImageReference10FlipImageYEv
Jlc:__Z14GetDefaultSkini
YH:__ZN4FMOD3DSP9setBypassEb
Zeb:__Z19NormalizeWheelInputf
bWd:_Array_InternalArray__ICollection_Remove_TisLink_t865133271_m1984184141_gshared
svc:__Z29Transfer_Blittable_ArrayFieldI8JSONReadhEvRT_R9ArrayInfoRK23StaticTransferFieldInfo
jsd:_LayoutRebuilder_IsDestroyed_m3442208294
a8b:__ZN11MonoManager25GetImageFromAssemblyIndexEi
lSg:_Enumerator_VerifyState_m1547102902_AdjustorThunk
zLj:__ZN6il2cpp2os20ThreadLocalValueImpl8SetValueEPv
jWa:__ZN22RenderingCommandBuffer20CleanupCommandBufferEv
m2f:__Z165RuntimeInvoker_Void_t1841601450_UInt32U26_t2197289955_Int32_t2071877448_UInt32U26_t2197289955_Int32_t2071877448_Int32_t2071877448_Int32_t2071877448_Int32_t2071877448PFvvEPK10MethodInfoPvPS4_
Iqc:__Z18Transfer_BlittableI9JSONWriteLb1EtEvRK29SerializationCommandArgumentsR31RuntimeSerializationCommandInfo
sje:_FileLoadException__ctor_m918124939
rk:___syscall85
d_i:__ZL25UnresolvedVirtualCall_198P12Il2CppObjectfPK10MethodInfo
_Xa:__ZNSt3__26__sortIRPFbP10GUIElementS2_EPS2_EEvT0_S7_T_
Waf:_SequentialSearchPrimeGeneratorBase_GenerateSearchBase_m2930465198
_2b:__ZN16GraphicsSettings12CleanupClassEv
rzj:__ZN6il2cpp2os6Thread19DetachCurrentThreadEv
b3i:__ZN6il2cpp2vmL21SetupInterfacesLockedEP11Il2CppClassRKNS_2os12FastAutoLockE
cEb:__ZN11MonoManager23VirtualRedirectTransferER24GenerateTypeTreeTransfer
Jy:__ZN23AnimationPlayableOutput17SetSourcePlayableEP8Playable
yvf:_Capture__ctor_m885749277
fGg:_GUIStyle_set_clipOffset_m3871613343
aod:_SubmitEvent__ctor_m222860306
WV:__ZN11UnityEngine15CloudWebService14DataDispatcher15SetupWebRequestEv
Dne:_TextWriter__cctor_m4047845042
oSc:__ZN11UnityEngine15PlatformWrapper13GetShaderCapsEv
h4a:__ZNSt3__211__sift_downIR26RenderDeferredObjectSorterP16RenderObjectDataEEvT0_S5_T_NS_15iterator_traitsIS5_E15difference_typeES5_
zZh:_AnimationClipPlayable_SetApplyFootIK_m4007156901_AdjustorThunk
uod:_InputField_CaretBlink_m3960486606
bk:_emscripten_glGetProgramiv
dye:_SmallXmlParser_ReadCharacters_m1966365555
Rlf:_InternalAsyncResult_get_CompletedWithError_m3993955322
J3b:__ZN21FixedBehaviourManager6UpdateEv
Cac:__ZN9Transform9SetParentEPS_NS_15SetParentOptionE
j3e:_ReadOnlyCollection_1_System_Collections_IList_Add_m527174473_gshared
i0:__ZN19ShaderPropertySheet8SetFloatEN9ShaderLab16FastPropertyNameEfNS_8SetFlagsE
EKh:__ZL68InputField_t1631627530_CustomAttributesCacheGenerator_m_AsteriskCharP21CustomAttributesCache
nta:__ZN19RuntimeSceneManager24BeginIntegrateMainThreadEP10UnityScene
iLi:_Transform_TransformPoint_m3272254198
kAj:__ZNSt3__2plIcNS_11char_traitsIcEENS_9allocatorIcEEEENS_12basic_stringIT_T0_T1_EERKS9_S6_
uoe:_LocalDataStoreSlot__cctor_m1192669356
$Tb:__ZN9ShaderLab20SerializedSubProgramaSERKS0_
tRj:_roundf
s7c:_String_CreateString_m2556700934
Zib:__ZN18StreamedBinaryReadILb0EE21TransferSTLStyleArrayINSt3__26vectorI17SortingLayerEntryNS2_9allocatorIS4_EEEEEEvRT_17TransferMetaFlags
Bs:__ZN8Animator15SetPrepareStageEv
fWh:_Slider_get_axis_m162140813
c3i:__ZN6il2cpp2vmL24SetupTypeHierarchyLockedEP11Il2CppClassRKNS_2os12FastAutoLockE
efb:__ZL11TextHandleriPK23EmscriptenKeyboardEventPv
tsd:_LayoutRebuilder_U3Cs_RebuildersU3Em__0_m3768099182
DUh:_ScrollRect_SetLayoutHorizontal_m3486408020
szc:_destroy_face
URg:_Enumerator_VerifyState_m1547102902_gshared
lXj:_glBlendEquationSeparate__wrapper
AIj:__ZN6il2cpp6icalls8mscorlib6System8Security12Cryptography24RNGCryptoServiceProvider13RngInitializeEP11Il2CppArray
Apf:_IPAddress__cctor_m3624830012
sO:__ZN20SoundChannelInstance7setMuteEb
Gzh:__ZL115AnimatorStateInfo_t2577870592_CustomAttributesCacheGenerator_AnimatorStateInfo_t2577870592____nameHash_PropertyInfoP21CustomAttributesCache
srf:_AsnEncodedData_EnhancedKeyUsageExtension_m1452131166
LOb:__Z19TransferField_ArrayI18StreamedBinaryReadILb1EE27Converter_SimpleNativeClassI17AnimationCurveTplIfEEEvRK23StaticTransferFieldInfoR31RuntimeSerializationCommandInfoRT0_
zGa:__ZN18GfxFramebufferGLES22MakeCurrentFramebufferENS_7BuiltinE
Ewf:_Interpreter_Close_m1500459069
vk:_JS_SystemInfo_GetWidth
Xva:__ZN12CachedReader4ReadEPvj
yGc:_cf2_blues_init
Cni:_InternalEnumerator_1_System_Collections_IEnumerator_get_Current_m3600601141_gshared
v$c:_SHA1Internal_HashFinal_m3188468925
dNi:_Vector3_op_Inequality_m799191452
Kyd:_Char_GetHashCode_m2343577184
I0a:__Z24CalculateLightShadowFadeRK6CamerafffR8Vector4f
s2:__ZN19RuntimeSceneManagerD2Ev
Sfi:_ChannelData_get_CustomProperties_m1470957369
j6d:_Dictionary_2_Do_ICollectionCopyTo_TisRuntimeObject_m545661084_gshared
kX:__ZN11UnityEngine15CloudWebService25WebRequestDownloadHandler17OnCompleteContentEv
dpa:__ZN6prcore17GetIntegerBlitterE13TextureFormatS0_N14ImageReference8BlitModeE
t7h:_Camera_INTERNAL_CALL_ScreenPointToRay_m2752248646
$ij:__ZN6il2cpp2gc19AppendOnlyGCHashMapINSt3__24pairIPK11Il2CppImageP11Il2CppClassEEP22Il2CppReflectionModule17ReflectionMapHashIS9_ENS2_8equal_toIS9_EEE11TryGetValueERKS9_PSB_
hTg:_Enumerator_VerifyState_m3173176371_AdjustorThunk
Eof:_TypeConverterAttribute__cctor_m506796812
mac:__ZN9BlobWrite14ReduceCopyImplERK14ReduceCopyDataj
nwi:_Comparer_1_System_Collections_IComparer_Compare_m1790257529_gshared
bWj:_glShaderSource__wrapper
TQa:__ZN25MultiBlocksMemoryFileData17AdjustBlocksCountEj
Lqj:__ZNSt3__214__split_bufferIN6il2cpp2vm22EmbeddedResourceRecordERNS_9allocatorIS3_EEED2Ev
Rff:_TlsClientHello__ctor_m1699671541
Axc:__ZN13TextRendering4Font8TransferI24GenerateTypeTreeTransferEEvRT_
L_h:_AnimationOffsetPlayable_GetRotation_m3608800497_AdjustorThunk
BTa:__ZN23ManagedAttributeManager15InitializeClassEv
Ncc:__Z27CullingGroup_CUSTOM_DisposeP12Il2CppObject
_pj:__ZN6il2cpp6icalls8mscorlib6SystemL23CheckWideningConversionEjjj
CWa:__ZN13ComputeShader15SetTextureParamEjRKN9ShaderLab16FastPropertyNameE9TextureID16TextureDimension
wVh:_Shadow_set_effectDistance_m1951993364
cDg:_GUILayoutEntry_ApplyStyleSettings_m371609721
Q_g:_Dictionary_2_ContainsKey_m416495915_gshared
Bm:_glStencilMask
Ozj:__ZN6il2cpp2os10ThreadImpl16GetCurrentThreadEv
tDd:_Hashtable__ctor_m2337481811
OSg:_Enumerator_System_Collections_IEnumerator_get_Current_m2010873149_gshared
EMh:__ZL74SpriteState_t1353336012_CustomAttributesCacheGenerator_m_HighlightedSpriteP21CustomAttributesCache
kBf:_RealProxy__ctor_m2505535530
bGj:_GC_push_conditional_with_exclusions
PSf:_UInt32_System_IConvertible_ToUInt16_m2798641702_AdjustorThunk
gDf:_BinaryFormatter_get_DefaultSurrogateSelector_m219714691
yB:__ZN12_GLOBAL__N_121ProcessAnimationBeginER35AnimationPlayableEvaluationConstantR32AnimationPlayableEvaluationInputR33AnimationPlayableEvaluationOutput
i2h:_AnimatorControllerPlayable_CrossFadeInFixedTime_m3016214003
H_f:__Z136RuntimeInvoker_Void_t1841601450_Int32_t2071877448_RuntimeObject_RuntimeObject_RuntimeObject_RuntimeObject_RuntimeObject_SByte_t454417549PFvvEPK10MethodInfoPvPS4_
Xzg:_MonoProperty_GetOptionalCustomModifiers_m3827844355
yOj:_strrchr
L0h:_AnimatorControllerPlayable_IsParameterControlledByCurve_m3990583163_AdjustorThunk
mte:_SimpleCollator_GetSortKey_m2188419329
wNh:__ZL56LayoutElement_t2808691390_CustomAttributesCacheGeneratorP21CustomAttributesCache
Pmb:__ZN14RenderSettings27UpdateIndirectSpecularColorEv
Gzb:__ZN14PlayerSettings8TransferI18StreamedBinaryReadILb0EEEEvRT_
Mbj:__ZN6il2cpp6icalls8mscorlib6System8MonoType16GetMethodsByNameEP20Il2CppReflectionTypeP12Il2CppStringibS5_
Cei:_GCHandle__ctor_m2952050298
EPh:_Mask_IsRaycastLocationValid_m62488857
fza:__ZNSt3__27__sort3IRNS_4lessIN22BuiltinResourceManager8ResourceEEEPS3_EEjT0_S7_S7_T_
Bvi:_DefaultComparer_Compare_m3472472212_gshared
Sje:_MonoIO_GetLength_m2812344043
gFc:_ps_hints_t2mask
wLi:_RequestAtlasCallback_Invoke_m2414509569
pwb:__ZN10BlendShape8TransferI19StreamedBinaryWriteILb0EEEEvRT_
oLi:_Transform_IsChildOf_m10844547
jhe:__Z21il2cpp_codegen_sizeofP11Il2CppClass
Pga:__Z19GetTimeSinceStartupv
$3c:_SecurityFrame_get_Assembly_m2816566490
xKc:_TT_Load_Composite_Glyph
QNi:_NetFxCoreExtensions_CreateDelegate_m2492743074
dud:_Array_Sort_m2994254654
WRe:_List_1__ctor_m593058937_gshared
a$a:__ZN29RenderNodeQueuePrepareContextC2Ev
FR:__ZN10SampleClipC2E18MemLabelIdentifier18ObjectCreationMode
$Ub:__ZN9ShaderLab20SerializedSubProgram16TextureParameter8TransferI24GenerateTypeTreeTransferEEvRT_
cKj:__ZN6il2cpp2os11MutexHandle4WaitEj
n9b:__ZL34GetComponentsImplementationRecurseILb1ELi1ELi1EEbR10GameObjectbRK17CompareParametersRK39GetComponentsImplementation_ReturnValue
bKj:__ZN6il2cpp2os11MutexHandle4WaitEv
yzd:_ArrayList_set_Capacity_m592558035
Yqa:__ZN6prcoreL17RemapGenericFloatI15TexFormatRGHalf18TexFormatARGBFloatEEvPKNS_9InnerInfoE
Hga:__Z18SimulateMouseInputi
zVa:__ZN13RenderManager23AddRemoveCamerasDelayedEv
Mrc:__ZN9JSONWrite8TransferI13dynamic_arrayIdLj8EEEEvRT_PKc17TransferMetaFlags
wWd:_Array_InternalArray__ICollection_Remove_TisILTokenInfo_t149559338_m1523907845_gshared
MDd:_Hashtable_Rehash_m2877670513
F7a:__ZN13RenderTexture8SetWidthEi
sqd:_InputField_Insert_m1593238693
zKc:_UNITY_FT_GlyphLoader_CheckSubGlyphs
uaj:__ZN6il2cpp2vm21ThreadPoolCompartment20SpawnNewWorkerThreadEv
Y$d:_Array_InternalArray__ICollection_Add_TisCustomAttributeTypedArgument_t1498197914_m3260005285_gshared
k1a:__Z25SetupObjectBakedOcclusionbRK15SharedLightDataRK26SharedLightmapSettingsDataRK15LightmapIndicesR17ShaderPassContext
BEd:_SyncHashtable_GetObjectData_m3774367030
zde:_Guid_GetHashCode_m1401300871
toc:__Z42Register_UnityEngine_GUIStyle_set_fontSizev
NH:__Z82Register_UnityEngine_Animations_AnimatorControllerPlayable_INTERNAL_CALL_GetBoolIDv
Qz:__ZN8Animator9BuildJobsERK13dynamic_arrayIP14PlayableOutputLj4EERS0_INS_11AnimatorJobELj4EEPS7_bb
y$:__ZN9ShaderLab16FastPropertyName4InitEPKc
y_b:__Z13RegisterClassIN2UI13RectTransformEEvv
Kse:_MSCompatUnicodeTable_ToWidthCompat_m2299599532
d2i:__ZN13Il2CppHashMapIPK22Il2CppGenericParameterP11Il2CppClassN6il2cpp5utils11PointerHashIS1_EENSt3__28equal_toIS2_EENS9_9allocatorINS9_4pairIK10KeyWrapperIS2_ES4_EEEEEC2EjRKS8_RKSB_
vre:_NumberFormatter_get_IsFloatingSource_m2830957202
qia:__ZN13RenderTexture9SetMipMapEb
DTh:_ScrollRect_set_verticalScrollbarSpacing_m2356851539
wga:__Z18GetDirectorManagerv
FNg:_PlayableHandle_INTERNAL_CALL_SetTimeInternal_m3873000891
cse:_OperatingSystem_GetObjectData_m2276196875
Iic:__Z38Transform_CUSTOM_INTERNAL_get_rotationP12Il2CppObjectP11Quaternionf
Wfj:__ZNSt3__26vectorIN6il2cpp2vm17TypeNameParseInfoENS_9allocatorIS3_EEE8allocateEj
Qij:__ZNK15dense_hashtableINSt3__24pairIK10KeyWrapperINS1_IPK10MethodInfoP11Il2CppClassEEEjEES9_17ReflectionMapHashIS8_EN14dense_hash_mapIS9_jSD_NS9_14EqualsComparerINS0_8equal_toIS8_EEEENS0_9allocatorISB_EEE9SelectKeyESI_SK_E5beginEv
MIa:__ZN7ApiGLES19UploadBufferSubDataEjN2gl12BufferTargetEllPKv
Lca:__ZNSt3__216__rotate_forwardINS_11__wrap_iterIPN4core12basic_stringIcNS2_20StringStorageDefaultIcEEEEEEEET_S9_S9_S9_
y5c:_String_System_IConvertible_ToInt32_m1927223638
SWd:_Array_InternalArray__ICollection_Remove_TisContentType_t1028629049_m3085152315_gshared
U7h:_Canvas_set_sortingOrder_m2922819993
k9h:_Color_get_red_m2410286591
G5h:_AudioMixerPlayable_Create_m3525453973
H7c:_ASCIIEncoding__ctor_m4127831672
ZFb:__Z19TransferField_ArrayI14SafeBinaryRead27Converter_SimpleNativeClassI8GUIStyleEEvRK23StaticTransferFieldInfoR31RuntimeSerializationCommandInfoRT0_
b2f:__Z63RuntimeInvoker_Void_t1841601450_RuntimeObject_Int16_t4041245914PFvvEPK10MethodInfoPvPS4_
FJf:_UTF8Encoding__ctor_m3336862259
HIj:__ZN6il2cpp5utils10MemoryPoolC2Ej
Ntf:_X509Chain_GetAuthorityKeyIdentifier_m2607407678
DIj:__ZN6il2cpp5utils10MemoryPoolC2Ev
smb:__ZN14RenderSettings5ResetEv
oZb:__ZN6Sprite9BindAtlasERK4PPtrI11SpriteAtlasE
frj:__ZNSt3__212basic_stringIDsNS_11char_traitsIDsEENS_9allocatorIDsEEE6appendEPKDsj
UD:__ZZN8Animator15InitializeClassEvEN37FunctorImpl_421kDidModifyOverrideClip4CallEPviR11MessageData
Isi:_InternalEnumerator_1_get_Current_m3724267862_AdjustorThunk
C6d:_Dictionary_2_Do_ICollectionCopyTo_TisKeyValuePair_2_t3716250094_m1740410536_gshared
ZBg:_GUI_CallWindowDelegate_m2039577415
jze:_RSAManaged_Dispose_m3018788098
tpc:__ZN8Gradient8TransferI9JSONWriteEEvRT_
FHd:_DateTime_ToUniversalTime_m1815024752
MEi:_X509CertificateEnumerator_MoveNext_m1422952050
Efb:__ZNK12TLSAllocatorI14StackAllocatorE22GetAllocatedMemorySizeEv
Rbh:__ZL54AssemblyName_t894705941_CustomAttributesCacheGeneratorP21CustomAttributesCache
BKd:_Convert_ToUInt32_m3394039268
I9a:__ZN17RemapPPtrTransfer12PushMetaFlagE17TransferMetaFlags
IRa:__ZN12HandlerChain4NameEv
gyb:__ZNSt3__26vectorI9InputAxisNS_9allocatorIS1_EEE10deallocateEv
xee:_Int16_Equals_m3925135434_AdjustorThunk
lQc:__Z44Register_UnityEngine_CanvasRenderer_get_cullv
A9g:__ZL60IHashCodeProvider_t1980576455_CustomAttributesCacheGeneratorP21CustomAttributesCache
V_b:__ZN13ProduceHelperI13MonoBehaviourLb0EE7ProduceE18MemLabelIdentifier18ObjectCreationMode
eFe:_Enumerator_VerifyState_m1677639504_AdjustorThunk
$ef:_CipherSuiteCollection_get_Item_m280627160
vEb:__Z44InitializeTransferFunctionScriptingTraitsForI17RemapPPtrTransferEvR31TransferFunctionScriptingTraits
byf:_SerializationInfoEnumerator_MoveNext_m1876990879
iPf:_TimeSpan_Duration_m4205681645
abb:__ZN14UnityWebStream24UpdateAllUnityWebStreamsEv
a8g:__ZL60ObsoleteAttribute_t3878847927_CustomAttributesCacheGeneratorP21CustomAttributesCache
hW:__ZN11UnityEngine15CloudWebService14DataErrorEventD2Ev
w1d:_Array_InternalArray__ICollection_CopyTo_TisRaycastHit2D_t4063908774_m3837098618_gshared
lta:__ZN18LoadSceneOperation21MustCompleteNextFrameEv
tO:__ZNK12AudioManager16GetAudioListenerEv
pqh:__ZL48Camera_t189460977_CustomAttributesCacheGeneratorP21CustomAttributesCache
d7a:__ZNSt3__26vectorI11CameraStackNS_9allocatorIS1_EEE8__appendEj
Bpd:_InputField_OnDisable_m1865339380
MSf:_UInt32_System_IConvertible_ToType_m747769316
St:__ZN7mecanim9animation12GetHumanPoseERKNS0_18ClipMuscleConstantEPKNS0_10ValueDeltaERNS_5human9HumanPoseE
xv:__ZN22AnimationMixerPlayable17ProcessRootMotionEP35AnimationPlayableEvaluationConstantP32AnimationPlayableEvaluationInputP33AnimationPlayableEvaluationOutput
H5:__Z13GetFileSystemv
Y6:__ZNK5Unity4Type21FindAllDerivedClassesER13dynamic_arrayIPKS0_Lj4EENS0_17TypeFilterOptionsE
f8:__ZN13RuntimeStaticI15GUIEventManagerLb0EE16StaticInitializeEPv
zYg:_Dictionary_2_ToTKey_m2900575080_gshared
tbe:_DaylightTime_get_Delta_m2316831491
RVd:_Array_InternalArray__ICollection_Contains_TisUILineInfo_t3621277874_m1175659630_gshared
yOf:_WaitHandle_WaitOne_m370363697
Tvf:_FactoryCache_Lookup_m1681894361
JMd:_DateTime_Subtract_m698282245_AdjustorThunk
QWa:__ZN19ShaderPropertySheet9SetMatrixEN9ShaderLab16FastPropertyNameERK10Matrix4x4fNS_8SetFlagsE
VZc:_RIPEMD160Managed_Initialize_m3365407578
q6b:__Z29GetTextureSizeAllowedMultiple13TextureFormat
zpf:_IPAddress_HostToNetworkOrder_m1092199707
UXd:_SetPropertyUtility_SetStruct_TisSpriteState_t1353336012_m2898060836_gshared
d2c:_SecurityAttribute__ctor_m3425755778
g4b:__ZN21IntermediateRenderers3AddEP20IntermediateRenderer
mdj:_il2cpp_array_element_size
aci:_InvokableCall__ctor_m738302370
bg:_glCheckFramebufferStatus
iZd:_Array_compare_TisInt32_t2071877448_m840310202_gshared
_ui:_InternalEnumerator_1_System_Collections_IEnumerator_get_Current_m442726479_AdjustorThunk
uY:__ZN19CloudServiceHandler20StartEventDispatcherERKN11UnityEngine15CloudWebService18CloudServiceConfigERNS1_23WebRequestRestHeaderMapE
gti:_InternalEnumerator_1_System_Collections_IEnumerator_get_Current_m790514740_AdjustorThunk
yse:__Z37il2cpp_codegen_get_executing_assemblyPK10MethodInfo
AHg:_GUIStyle_Internal_DrawPrefixLabel_m1693575069
o_d:_Array_InternalArray__IndexOf_TisByte_t3683104436_m3605266236_gshared
xHg:_GUIStyle_set_richText_m1853532836
HRh:_RaycastAllCallback_Invoke_m981876639
rJf:_UnicodeEncoding__ctor_m72484327
dtj:__ZN14dense_hash_mapI10KeyWrapperIP14Il2CppIUnknownEjN6il2cpp5utils11PointerHashIS1_EENS3_14EqualsComparerINSt3__28equal_toIS2_EEEENS9_9allocatorINS9_4pairIKS3_jEEEEE15set_deleted_keyERSF_
P7:__ZN22BuiltinResourceManager16StaticInitializeEPv
wae:_NumberFormatter_ScaleOrder_m1915154678
rlj:__ZN13Il2CppHashMapIPK14Il2CppAssemblyPK22Il2CppMonoAssemblyNameN6il2cpp5utils11PointerHashIS1_EENSt3__28equal_toIS2_EENSA_9allocatorINSA_4pairIK10KeyWrapperIS2_ES5_EEEEEC2EjRKS9_RKSC_
eri:_InternalEnumerator_1_System_Collections_IEnumerator_get_Current_m3576641073_AdjustorThunk
Wgf:_ClientSessionInfo_SetContext_m2649357891
ofe:_Int32_System_IConvertible_ToInt64_m3790029067_AdjustorThunk
oad:_RaycasterManager_GetRaycasters_m1154876874
hmf:_SslStreamBase_InternalReadCallback_m2524917586
C6:__ZN8Remapper6RemoveEi
dKe:_List_1_CheckCollection_m2608305187_gshared
_zc:__ZL36CleanupTextRenderingScriptingClassesv
I4e:_ReadOnlyCollection_1__ctor_m3532148437_gshared
Ltd:_Array_BinarySearch_m3270245097
rfc:__Z34Mesh_CUSTOM_SetArrayForChannelImplP12Il2CppObject30InternalScriptingShaderChannel34InternalScriptingVertexChannelTypeiP11Il2CppArrayi
eje:_MonoIO_DeleteFile_m3273821223
uue:_BigInteger_GenerateRandom_m2507308768
zLd:_DateTime_System_IConvertible_ToDouble_m1431748426_AdjustorThunk
DVd:_Array_InternalArray__ICollection_Contains_TisUInt16_t986882611_m510319131_gshared
z2d:_Array_InternalArray__Insert_TisRaycastHit2D_t4063908774_m3174907903_gshared
ZOd:_Decimal_ToString_m541380585
P_h:_AnimationOffsetPlayable_SetRotation_m1448934280_AdjustorThunk
Edj:_il2cpp_class_is_valuetype
ED:__ZN11UnityEngine9Animation28GenericAnimationBindingCache25RegisterIAnimationBindingEPKN5Unity4TypeEiP17IAnimationBinding
pQc:__Z70RectTransformUtility_CUSTOM_INTERNAL_CALL_RectangleContainsScreenPointP12Il2CppObjectRK13Vector2fIcallS0_
bSd:_Enum_ToObject_m2601523252
VZa:__Z20RenderSceneDepthPassRK19SharedRendererSceneRK17ShaderReplaceDatabR17ShaderPassContext
D5a:__Z40ProcessCameraIndexListIsNodeVisibleInOutRK22SceneCullingParametersPK9SceneNodePK4AABBR9IndexList
olb:__ZN16GraphicsSettings8TransferI17RemapPPtrTransferEEvRT_
mme:_StreamReader__ctor_m2654332332
PNc:__ZN2UI6Canvas13UpdateBatchesEb
Gy:__ZNK23AnimationPlayableOutput11DerivesFromE17ScriptingClassPtr
jIe:_List_1_CheckCollection_m3968030679_gshared
mKf:_StringBuilder_ToString_m617673931
NSc:__ZN11UnityEngine7Connect13ConfigHandler12GetListenersERKN4core12basic_stringIcNS2_20StringStorageDefaultIcEEEE
YBa:__ZN9GfxDevice18AllocRenderSurfaceEb
iZb:__ZN10TagManager32GetSortingLayerUniqueIDFromValueEi
IAi:_AnchorInfo_get_IsComplete_m1247624133
wjd:_Dropdown_Show_m324374589
Y1:__ZL27CleanupCoreScriptingClassesv
Y_f:__Z68RuntimeInvoker_RuntimeObject_RuntimeObject_DSAParameters_t1872138834PFvvEPK10MethodInfoPvPS4_
I5h:_AudioMixerPlayable_INTERNAL_CALL_CreateAudioMixerPlayableInternal_m3355685531
Zfg:__Z101RuntimeInvoker_Void_t1841601450_RuntimeObject_Int32_t2071877448_Single_t2076509932_Single_t2076509932PFvvEPK10MethodInfoPvPS4_
M2h:_AnimatorControllerPlayable_PlayInFixedTime_m1932606764_AdjustorThunk
Hcd:_RaycastResult_get_isValid_m2482925612
gfc:__Z26AnimationCurve_CUSTOM_InitP12Il2CppObjectP11Il2CppArray
FZj:_glUniform1uiv__wrapper
clj:__ZN6il2cpp2vm10Reflection7IsEventEP12Il2CppObject
c3:__ZN17PersistentManager26GetStreamNameSpaceInternalEi
KI:__ZN4FMOD6System11createSoundEPKcjP22FMOD_CREATESOUNDEXINFOPPNS_5SoundE
M8h:_CanvasRenderer_get_cull_m3577089379
eo:FUNCTION_TABLE_iiifiiii
PLg:_Object_Destroy_m4145850038
vgj:__ZN6il2cpp2vm4Type14IsSystemDBNullEPK10Il2CppType
F0:__ZN9ShaderLab19CommonPropertyNames13StaticCleanupEPv
K_h:_AnimationOffsetPlayable_INTERNAL_CALL_GetRotationInternal_m3411582030
j4:__Z31scripting_method_get_returntype18ScriptingMethodPtr
LTh:_ScrollRect_UpdateBounds_m3266596336
vqb:__ZN15SerializeTraitsI12LightmapDataE8TransferI24GenerateTypeTreeTransferEEvRS0_RT_
$gd:_ColorBlock_GetHashCode_m649325222
dWj:_glStencilOpSeparate__wrapper
A6b:__ZN4Mesh5SetUvEiPKfjj
Pta:__ZN7Texture13SetAnisoLimitENS_20AnisotropicFilteringE
hua:__ZN28LightProbeProxyVolumeManager25UpdateSHCoeffsTextureDataER21LightProbeProxyVolume
KPa:__Z18CreateDecompressor15CompressionType18MemLabelIdentifier
BS:__ZN11AudioModule16SetListenerPauseEb
Uh:_emscripten_glCompressedTexSubImage2D
eKa:__ZN13GfxDeviceGLES22MemoryBarrierImmediateEyN2gl17MemoryBarrierTypeE
wca:__ZZN18SpriteAtlasManagerC1EvEN46EarlyUpdateSpriteAtlasManagerUpdateRegistrator7ForwardEv
Rrj:__ZN6il2cpp6icalls8mscorlib6System4Type18internal_from_nameEP12Il2CppStringbb
kra:__ZN6prcoreL26RemapGenericFloatToIntegerI18TexFormatARGBFloat17TexFormatARGB8888EEvPKNS_9InnerInfoE
l6b:__Z46GetShaderModelNumericValueFromRequirementsMask18ShaderRequirements
GIc:_cff_ps_has_glyph_names
ePi:_InvokableCall_1__ctor_m2837611051_gshared
uyi:_PatternCompiler_EmitPosition_m3013268572
pvf:_X509SubjectKeyIdentifierExtension__ctor_m1109455121
Ild:_Graphic_CreateColorFromAlpha_m2614574534
Foc:__Z44Register_UnityEngine_GUIStyle_SetDefaultFontv
aNb:__Z18Transfer_BlittableI18StreamedBinaryReadILb1EELb1EiEvRK29SerializationCommandArgumentsR31RuntimeSerializationCommandInfo
xA:__ZN9BlobWrite8TransferI22OffsetPtrArrayTransferIKN4math7_float3EEEEvRT_PKc17TransferMetaFlags
_0c:_TripleDES_IsWeakKey_m483013953
Tjj:__ZN15dense_hashtableINSt3__24pairIK10KeyWrapperINS1_IPK12PropertyInfoP11Il2CppClassEEEjEES9_17ReflectionMapHashIS8_EN14dense_hash_mapIS9_jSD_NS9_14EqualsComparerINS0_8equal_toIS8_EEEENS0_9allocatorISB_EEE9SelectKeyESI_SK_E12maybe_shrinkEv
o5f:__Z75RuntimeInvoker_RuntimeObject_RuntimeObject_Single_t2076509932_RuntimeObjectPFvvEPK10MethodInfoPvPS4_
vNb:__Z18Transfer_BlittableI18StreamedBinaryReadILb1EELb1EsEvRK29SerializationCommandArgumentsR31RuntimeSerializationCommandInfo
gx:__ZN26AnimatorControllerPlayable17IsMultithreadableEv
xfg:__Z54RuntimeInvoker_Void_t1841601450_ColorBlock_t2652774230PFvvEPK10MethodInfoPvPS4_
D4c:_Single_System_IConvertible_ToSByte_m3757385387
eke:_StreamAsyncResult_SetComplete_m2141125667
Vta:__ZL21SetAnisoLimitEnumImplN7Texture20AnisotropicFilteringEb
sRc:__ZN22BaseUnityConnectClient17OnEnterStateReadyEv
Nwa:__ZN14GrowableBufferD2Ev
zec:__Z29Input_CUSTOM_GetMouseButtonUpi
kcj:__ZN6il2cpp6icalls8mscorlib6System8MonoType16InternalGetEventEP20Il2CppReflectionTypeP12Il2CppStringi
OMf:_Interlocked_CompareExchange_m3339239614
pCc:_UNITY_tt_face_load_maxp
Lec:__Z46Input_CUSTOM_INTERNAL_set_compositionCursorPosRK13Vector2fIcall
Ys:__ZN7mecanim5human12FullBodyMaskEv
d0:__ZN19ShaderPropertySheet11ComputeHashEv
F6i:__ZN30dense_hashtable_const_iteratorI10KeyWrapperIPK19Il2CppGenericMethodES4_N6il2cpp8metadata23Il2CppGenericMethodHashEN14dense_hash_setIS4_S7_NS4_14EqualsComparerINS6_26Il2CppGenericMethodCompareEEENSt3__29allocatorIS4_EEE8IdentityESB_SE_EppEv
VW:__ZN11UnityEngine15CloudWebService20WebRequestRestClient6IsDoneEv
Pi:_llvm_fabs_f32
dgd:_CanvasScaler_HandleScaleWithScreenSize_m80056230
yW:__ZN11UnityEngine15CloudWebService16SessionContainer16GetJsonDataBlockEjRKN4core12basic_stringIcNS2_20StringStorageDefaultIcEEEERS6_PjSA_
pGf:_SByte_System_IConvertible_ToUInt64_m2174352876_AdjustorThunk
xLf:_UTF7Encoding_InternalGetBytes_m2772055844
JYg:_Dictionary_2_System_Collections_IDictionary_set_Item_m2290664072_gshared
d1f:__Z76RuntimeInvoker_Void_t1841601450_Int64_t909078037_ResourceInfoU26_t3126209420PFvvEPK10MethodInfoPvPS4_
Wse:_SimpleCollator__cctor_m2693747668
SOd:_Decimal_CompareTo_m2454501434_AdjustorThunk
q3:__ZN14SafeBinaryReadD2Ev
xRf:_UInt16_System_IConvertible_ToChar_m4055364664
r_b:__Z13RegisterClassI7TextureEvv
JOb:__ZN8Gradient8TransferI18StreamedBinaryReadILb1EEEEvRT_
poc:__Z45Register_UnityEngine_GUIStyle_SetFontInternalv
Urj:__ZN6il2cpp6icalls8mscorlib6System4Type15MakeGenericTypeEP20Il2CppReflectionTypeP11Il2CppArray
oj:_SDL_PauseAudio
Jdj:_il2cpp_class_from_type
rud:_Array_Sort_m2323017822
nSh:_Scrollbar_UpdateDrag_m3839695926
WDg:_GUILayoutUtility__cctor_m2957755459
E0:__ZN9ShaderLab19CommonPropertyNames16StaticInitializeEPv
Soe:_MissingMemberException__ctor_m3710131950
wC:__ZN7mecanim9animation18CreateAvatarOutputEPKNS0_14AvatarConstantEbbRNS_6memory9AllocatorE
Poc:__Z45GUIUtility_CUSTOM_Internal_GetKeyboardControlv
x7f:__Z91RuntimeInvoker_Void_t1841601450_RuntimeObject_Int32_t2071877448_RuntimeObject_RuntimeObjectPFvvEPK10MethodInfoPvPS4_
oHf:_CspParameters__ctor_m2546931874
lO:__ZN11AudioSource23VirtualRedirectTransferER24GenerateTypeTreeTransfer
b7b:__ZN7Texture11SetWrapModeE15TextureWrapMode
vub:__ZN14Texture2DArray23VirtualRedirectTransferER14SafeBinaryRead
D0a:__ZNK6Camera21CalculateCanDoShadowsEv
Mld:_Graphic__cctor_m1643894470
kzj:__ZN6il2cpp2os6Thread12SetStackSizeEj
oXf:__Z99RuntimeInvoker_Void_t1841601450_Int32_t2071877448_RuntimeObject_Int32_t2071877448_Int32_t2071877448PFvvEPK10MethodInfoPvPS4_
_sf:_X509ChainElementEnumerator_get_Current_m2232618221
Bfd:_U3COnFinishSubmitU3Ec__Iterator0_Reset_m2080388334
W6b:__ZNK8Renderer16IsVisibleInSceneEv
F6h:_Behaviour_get_isActiveAndEnabled_m3838334305
FTh:_ScrollRect_set_onValueChanged_m3957749575
r$:__Z13VFormatBufferPciPKcz
CPb:__Z18Transfer_BlittableI18StreamedBinaryReadILb0EELb1EhEvRK29SerializationCommandArgumentsR31RuntimeSerializationCommandInfo
D0i:_U3CCreateWhereIteratorU3Ec__Iterator1D_1_Dispose_m1879652802_gshared
Fnd:_Image_GenerateSimpleSprite_m4275440988
_ai:_Display_get_systemHeight_m3377672024
mSf:_UInt16_ToString_m3280699191
ora:__ZN6prcoreL27StretchGenericFloatBilinearI15TexFormatRFloatEEvPKNS_9InnerInfoE
Zdh:__ZL56_PropertyInfo_t1567586598_CustomAttributesCacheGeneratorP21CustomAttributesCache
Cv:__Z24ProcessAnimationMixBeginP35AnimationPlayableEvaluationConstantP32AnimationPlayableEvaluationInputP33AnimationPlayableEvaluationOutput
ZPg:_Rect_Overlaps_m4145874649
_Zd:_Array_IndexOf_TisCustomAttributeNamedArgument_t94157543_m745056346_gshared
oIa:__Z14PadImageBorderR14ImageReferenceii
wij:__ZN15dense_hashtableINSt3__24pairIK10KeyWrapperINS1_IPK10MethodInfoP11Il2CppClassEEEjEES9_17ReflectionMapHashIS8_EN14dense_hash_mapIS9_jSD_NS9_14EqualsComparerINS0_8equal_toIS8_EEEENS0_9allocatorISB_EEE9SelectKeyESI_SK_E4findERSA_
Acg:__Z116RuntimeInvoker_Void_t1841601450_Rect_t3681755626_SByte_t454417549_SByte_t454417549_SByte_t454417549_SByte_t454417549PFvvEPK10MethodInfoPvPS4_
oki:_ArrayReadOnlyList_1_ReadOnlyError_m2289309720_gshared
dw:__ZN27AnimationLayerMixerPlayableD2Ev
ycj:__ZN6il2cpp2vm8basepathEPKc
Z7:__ZN15dense_hashtableINSt3__24pairIKiiEEi21InstanceIDHashFunctorN14dense_hash_mapIiiS4_NS0_8equal_toIiEE13stl_allocatorIS3_L18MemLabelIdentifier137ELi16EEE9SelectKeyES7_SA_E14squash_deletedEv
CK:__ZN12AudioManager39HandlePendingAudioConfigurationCallbackEv
kk:_emscripten_glIsFramebuffer
x3b:__ZN12_GLOBAL__N_16qAtan2Eff
LJd:_Convert_ToInt64_m954367741
ok:_JS_Sound_SetLoopPoints
qzd:_ArrayList__ctor_m1467563650
yP:__ZN12AudioManager17ShouldSourcePauseEb
YIj:__ZN6il2cpp2vm26MetadataAllocGenericMethodEv
FMa:__ZN19ConstantBuffersGLES12RecordRenderEv
Frc:__ZN9JSONWrite8TransferI10RectOffsetEEvRT_PKc17TransferMetaFlags
WHa:__ZN4crnd12symbol_codec11decode_bitsEj
_Gc:_cf2_doFlex
i5d:_Array_Sort_TisRaycastResult_t21186376_TisRaycastResult_t21186376_m38820193_gshared
j3h:_Animator_ResetTriggerString_m1445965342
oje:_StreamReader__ctor_m3454466728
GK:__ZN4FMOD6System12createReverbEPPNS_6ReverbE
ZLi:_Vector2_get_Item_m2792130561
Xv:__ZN7mecanim19ValueArrayBlendNodeILb1EEEvRKNS_10ValueArrayERKNS_14ValueArrayMaskERS1_RS4_RNS_16ValueArrayWeightEf
xsa:__Z16MarkDependenciesR27GarbageCollectorThreadStatej
Suf:_X509ChainElementEnumerator_Reset_m3832280427
T$h:_AnimatorControllerPlayable_SetBoolString_m4011560969
_qe:_MulticastDelegate_RemoveImpl_m2024746777
ngd:_CanvasUpdateRegistry_ParentCount_m2367607495
Uqe:_MulticastDelegate_Equals_m3064081489
fCe:_Activator_CreateInstance_m1465989661
A0:__ZNK9Transform11GetPositionEv
hCi:_PositionAssertion_GetWidth_m2294218483
CNg:_PlayableHandle_SetPlayStateInternal_m3829195293
HXa:__ZN23SharedMeshRenderingData18UnloadVertexStreamEi
kNi:_Vector4_set_Item_m3077071044
f4b:__ZN31CanvasBatchIntermediateRenderer11AddSubBatchERK16DrawBuffersRangePK19ShaderPropertySheet
H2b:__ZN19RenderEventsContextC2Ei
MU:__Z6simd4fRKf
r1d:_Array_InternalArray__ICollection_CopyTo_TisColor32_t874517518_m379086718_gshared
dWh:_Slider_ClampValue_m2851810895
Rk:_emscripten_glEnable
uEg:_GUISkin_set_font_m4009958323
LQi:_UnityEvent_1_FindMethod_Impl_m3813546_gshared
Cib:__ZN10TagManager23VirtualRedirectTransferER14SafeBinaryRead
LBc:_UNITY_FT_Init_Class_ft_grays_raster
v3a:__Z15InitLightMeshesv
wjh:__ZL97WaitHandle_t677569169_CustomAttributesCacheGenerator_WaitHandle_t677569169____Handle_PropertyInfoP21CustomAttributesCache
gDe:_KeyValuePair_2_ToString_m1391611625_AdjustorThunk
En:FUNCTION_TABLE_iifiii
PId:_Double_Parse_m1617409931
l6f:__Z70RuntimeInvoker_Boolean_t3825574718_Int32_t2071877448_Int16_t4041245914PFvvEPK10MethodInfoPvPS4_
mWa:__ZN22RenderingCommandBuffer36AcquireAndRegisterSharedMaterialDataEP8Material
xLb:__Z18Transfer_BlittableI19StreamedBinaryWriteILb0EELb1E8Vector2fEvRK29SerializationCommandArgumentsR31RuntimeSerializationCommandInfo
GGc:_cf2_arrstack_init
gdh:__ZL65ClassInterfaceAttribute_t910653559_CustomAttributesCacheGeneratorP21CustomAttributesCache
Kgj:__ZN15dense_hashtableINSt3__24pairIK10KeyWrapperINS1_IPK14Il2CppAssemblyP11Il2CppClassEEEjEES9_17ReflectionMapHashIS8_EN14dense_hash_mapIS9_jSD_NS9_14EqualsComparerINS0_8equal_toIS8_EEEENS0_9allocatorISB_EEE9SelectKeyESI_SK_E15insert_noresizeERKSB_
d$:__Z15CleanLogHandler7LogTypePKcz
CVb:__ZN9ShaderLab19SerializedSubShader8TransferI19StreamedBinaryWriteILb0EEEEvRT_
cLf:_UTF32Encoding_GetBytes_m2290150495
fCb:__ZN6Camera17RemoveImageFilterERK11ImageFilter
CJa:__ZNSt3__218__insertion_sort_3IR25ValueParameterArraySorterPN20GpuProgramParameters14ValueParameterEEEvT0_S6_T_
fCd:_CaseInsensitiveHashCodeProvider_AreEqual_m2456617355
bPh:_LayoutUtility_GetLayoutProperty_m4052007472
iPi:_InvokableCall_1_Invoke_m3239892614_gshared
oXa:__ZNSt3__214__split_bufferI20ComputeShaderVariantRNS_9allocatorIS1_EEED2Ev
oxc:__ZNSt3__26vectorIN4core12basic_stringIcNS1_20StringStorageDefaultIcEEEE13stl_allocatorIS5_L18MemLabelIdentifier34ELi16EEE7reserveEj
shf:_Context_set_WriteSequenceNumber_m3356252710
vOc:__ZN2UI26InitializeDeviceForOverlayEi
xde:_Guid_Equals_m2389236871
V0:__Z27LogRepeatingStringWithFlagsRKN4core12basic_stringIcNS_20StringStorageDefaultIcEEEE15LogMessageFlagsi
gGe:_Enumerator_MoveNext_m3483405135_gshared
xt:__ZN17AnimationPlayable28ComputeNeedsBindingRebuildedEv
lHe:_List_1_CheckIndex_m3609163576_gshared
Tzb:__ZN15ResourceManagerD0Ev
Asf:_X509ExtensionCollection__ctor_m1324282194
MTc:__ZN18UnityConnectClient33OnPlayerSessionStateChangedStaticEPS_jyy
e9g:__ZL74CaseInsensitiveHashCodeProvider_t2307530285_CustomAttributesCacheGeneratorP21CustomAttributesCache
DX:__ZNK11UnityEngine15CloudWebService23WebRequestUploadHandler11GetProgressEv
nFa:__ZN7ApiGLES4LoadE16GfxDeviceLevelGL
Iqb:__ZN18StreamedBinaryReadILb0EE21TransferSTLStyleArrayI13dynamic_arrayI31EnlightenSystemAtlasInformationLj8EEEEvRT_17TransferMetaFlags
PHa:__ZN4crnd12crn_unpacker22decode_color_endpointsEv
$vj:__ZN15dense_hashtableI10KeyWrapperIP18Il2CppGenericClassES3_N6il2cpp8metadata22Il2CppGenericClassHashEN14dense_hash_setIS3_S6_NS3_14EqualsComparerINS5_25Il2CppGenericClassCompareEEENSt3__29allocatorIS3_EEE8IdentityESA_SD_E15insert_noresizeERKS3_
k3e:_ReadOnlyCollection_1_System_Collections_IList_Clear_m3006875897_gshared
O1b:__ZZL31RegisterOtherRendererPropertiesR22GenericPropertyBindingEN30Wrapper_RendererReceiveShadows13GetFloatValueEPv
yGe:_Enumerator_System_Collections_IEnumerator_get_Current_m3866069145_gshared
jha:__ZN8Material11SetPassFastEPN9ShaderLab4PassER17ShaderPassContextP6Shaderib
KTc:__ZN11UnityEngine7Connect20BasePersistentValues10SaveValuesER9JSONWrite
EPg:_Rect_get_max_m96665935_AdjustorThunk
obd:_ExecuteEvents_get_pointerDownHandler_m1172742772
F7b:__Z14ScaleCurveTimeR17AnimationCurveTplIfEf
nuf:_X509CertificateEnumerator_System_Collections_IEnumerator_MoveNext_m3708362145
zZa:__Z12SetupLODFadeR9GfxDeviceR17ShaderPassContextf
rnb:__ZNK14PlayableOutput7GetTypeEv
D_f:__Z203RuntimeInvoker_Boolean_t3825574718_RuntimeObject_Int32U26_t455636984_Int32_t2071877448_Int32_t2071877448_RuntimeObject_SByte_t454417549_Int32_t2071877448_ContractionU26_t2019974048_ContextU26_t3131521781PFvvEPK10MethodInfoPvPS4_
i3a:__ZL24CollectForwardObjectsJobP27CollectForwardObjectsHeader
yRg:_Enumerator_System_Collections_IDictionaryEnumerator_get_Entry_m345330700_gshared
Y6a:__ZNK25CameraStackRenderingState24ResolveTempToEyeTexturesEv
$4a:__Z13IsNodeVisibleRK9SceneNodeRK4AABBRK22SceneCullingParameters
rQc:__Z57RectTransformUtility_CUSTOM_INTERNAL_CALL_PixelAdjustRectP12Il2CppObjectS0_R5RectTIfE
PCf:_DelayedFixupRecord_FixupImpl_m4249966635
C$j:_emscripten_glStencilMask__wrapper
v6i:__ZN15dense_hashtableI10KeyWrapperIPK19Il2CppGenericMethodES4_N6il2cpp8metadata23Il2CppGenericMethodHashEN14dense_hash_setIS4_S7_NS4_14EqualsComparerINS6_26Il2CppGenericMethodCompareEEENSt3__29allocatorIS4_EEE8IdentityESB_SE_EC2ERKSH_j
Gue:_BigInteger_ToString_m3837784224
QOd:_Decimal_decimalCompare_m26009298
kwc:__ZN16NovodexAllocator8allocateEjPKcS1_i
I2a:__Z17PrepareShadowMapsRK11CullResultsRK11ActiveLightRK10MinMaxAABB
AMf:_NativeEventCalls_CreateEvent_internal_m1605829321
pEh:__ZL73RuntimePlatform_t1869584967_CustomAttributesCacheGenerator_MetroPlayerX64P21CustomAttributesCache
_pi:_InternalEnumerator_1_System_Collections_IEnumerator_get_Current_m3239681450_AdjustorThunk
f3a:__ZN9ShaderLab10GrabPassesD2Ev
iLg:_MonoBehaviour_set_useGUILayout_m2666356651
Gub:__ZN14Texture2DArray13UploadTextureEv
ZDc:_tt_cmap14_done
ota:__ZN18AwakeFromLoadQueue25RegisterObjectInstanceIDsEv
Jwd:_Buffer_BlockCopy_m1586717258
ggh:__ZL93X509Certificate_t283079845_CustomAttributesCacheGenerator_X509Certificate_GetName_m2354987368P21CustomAttributesCache
iw:__ZNK27AnimationLayerMixerPlayable11DerivesFromE17ScriptingClassPtr
iyc:__ZN20TextRenderingPrivate19NativeTextGenerator15InsertCharacterEiPj
Hqj:__ZNSt3__26vectorIN6il2cpp2vm22EmbeddedResourceRecordENS_9allocatorIS3_EEE21__push_back_slow_pathIS3_EEvOT_
NTd:_CompareInfo_GetSortKey_m3691382873
MNd:_DBNull_ToString_m3228904745
Klc:__ZN5IMGUI20MoveWindowFromLayoutER8GUIStateiRK5RectTIfE
hdf:_RC4_get_IV_m506011366
wGi:_X509Crl__ctor_m2469408229
LRg:_Enumerator_get_CurrentValue_m3562053380_AdjustorThunk
vvf:_X509SubjectKeyIdentifierExtension_CopyFrom_m136762226
G_h:_AnimationOffsetPlayable_INTERNAL_CALL_SetPositionInternal_m3711322547
vEe:_Enumerator_System_Collections_IEnumerator_Reset_m610822832_AdjustorThunk
$fc:__Z41MonoBehaviour_Set_Custom_PropUseGUILayoutP12Il2CppObjecth
czc:_UNITY_FT_Open_Face
sXj:_glGenRenderbuffers__wrapper
e7h:_Bounds_ToString_m1966597703
Bve:_BigInteger_op_Division_m1581119694
HRb:__ZN16ScriptingManagerD0Ev
aEf:_CallbackHandler_Invoke_m1498072969
VHf:_DSACryptoServiceProvider__ctor_m701823690
MDg:_Mathf_Clamp_m2354025655
nqg:_CustomAttributeData_GetCustomAttributes_m2421330738
Nuj:__ZN30dense_hashtable_const_iteratorINSt3__24pairIK10KeyWrapperINS1_IPKcS4_EEEiEES6_24NamespaceAndNamePairHashN14dense_hash_mapIS6_iS9_NS6_14EqualsComparerI26NamespaceAndNamePairEqualsEENS0_9allocatorIS8_EEE9SelectKeyESD_SF_EppEv
eQf:_Type_get_IsEnum_m313908919
Fcc:__Z44Register_UnityEngine_Component_get_transformv
GXe:_Collection_1_System_Collections_ICollection_CopyTo_m1335644572_gshared
BB:__ZN12_GLOBAL__N_120ProcessPlayableGraphERN8Animator11AnimatorJobER35AnimationPlayableEvaluationConstantR32AnimationPlayableEvaluationInputR33AnimationPlayableEvaluationOutputPFvS4_R17AnimationPlayableEPFvS4_S6_S8_EPFvS8_S4_S6_S8_fESE_MS9_FvPS3_PS5_PS7_E
MNe:_List_1_CheckMatch_m2830747427_gshared
DPa:__ZN17ArchiveFileSystem12MountArchiveEPKcS1_
Lqc:__Z18Transfer_BlittableI9JSONWriteLb1E8Vector4fEvRK29SerializationCommandArgumentsR31RuntimeSerializationCommandInfo
zn:FUNCTION_TABLE_viififiii
MMc:__ZN2UI13CanvasManagerD0Ev
tSg:_Enumerator_System_Collections_IEnumerator_Reset_m70453843_gshared
mrb:__ZThn32_NK8Renderer14GetSubsetIndexEi
i1f:__Z58RuntimeInvoker_Byte_t3683104436_IntPtr_t_Int32_t2071877448PFvvEPK10MethodInfoPvPS4_
u6d:_Dictionary_2_Do_CopyTo_TisKeyValuePair_2_t1174980068_TisRuntimeObject_m3279061992_gshared
CMi:_Vector3_get_Item_m3616014016
y0b:__ZN13ProduceHelperI15ResourceManagerLb0EE7ProduceE18MemLabelIdentifier18ObjectCreationMode
RCa:__ZN9GfxDevice15ImmediateVertexEfff
$Zb:__Z13RegisterClassI8MaterialEvv
Tpb:__ZNK16LightmapSettings22GetTypeVirtualInternalEv
TSd:_FieldAccessException__ctor_m3893881490
yAa:__ZN13GfxDeviceGLES15SetStencilStateEPK18DeviceStencilStatei
I8f:__Z107RuntimeInvoker_Void_t1841601450_Single_t2076509932_Single_t2076509932_Single_t2076509932_Single_t2076509932PFvvEPK10MethodInfoPvPS4_
BNj:_cycle
KJi:_TextGenerator_Populate_m4139823822
Ld:_emscripten_glUniform1iv
AXh:_Text_get_preferredHeight_m452532789
w5c:_String_System_IConvertible_ToDouble_m3860911722
Zdb:__ZN16MemoryFileSystemD2Ev
gui:_InternalEnumerator_1_get_Current_m3732458101_AdjustorThunk
Bbf:_ARC4Managed__ctor_m2922048522
tyc:__Z17dynamic_pptr_castIP9Texture2D7TextureET_RK4PPtrIT0_E
B4e:_ReadOnlyCollection_1_System_Collections_IList_set_Item_m1272038804_gshared
sli:_InternalEnumerator_1_System_Collections_IEnumerator_get_Current_m1931522460_AdjustorThunk
$1c:_SecurityPermission_IsEmpty_m1869313067
jcc:__Z37Register_UnityEngine_Camera_get_depthv
Oye:_EncryptedPrivateKeyInfo_get_Salt_m2734354394
x6e:_ReadOnlyCollection_1_System_Collections_Generic_IListU3CTU3E_set_Item_m1918537449_gshared
iWe:_Collection_1_System_Collections_ICollection_CopyTo_m3896480607_gshared
Ubd:_PointerEventData_set_position_m794507622
Oba:__ZN15dense_hashtableINSt3__24pairIKPKcPK4RTTIEES3_N11TypeManager23ConstCharPtrHashFunctorEN14dense_hash_mapIS3_S7_SA_NS9_19ConstCharPtrEqualToE13stl_allocatorIS8_L18MemLabelIdentifier6ELi16EEE9SelectKeyESC_SF_E12resize_deltaEjj
vdb:__Z23ConvertIntegerToTypePtrItEbPvR14SafeBinaryRead
cC:__ZN7mecanim5human29HumanGetGoalOrientationOffsetENS0_4GoalE
_Db:__ZNK11MonoManager22GetTypeVirtualInternalEv
pzg:_MonoMethod_MakeGenericMethod_impl_m2063853616
S3c:__Z46il2cpp_codegen_get_marshal_directive_exceptionPKc
GWb:__ZN9ShaderLab20SerializedSubProgram14AddMatrixParamEPKcii15ShaderParamTypei
ge:_glGetActiveUniformBlockName
AF:__ZN26AnimatorControllerPlayable23ValidateParameterStringE17GetSetValueResultRKN4core12basic_stringIcNS1_20StringStorageDefaultIcEEEE
Fde:_Guid_AppendByte_m2890893073
Vxd:_Char_System_IConvertible_ToType_m3106771703_AdjustorThunk
yxf:_Interval_Intersects_m3480157390_AdjustorThunk
bfc:__Z39Quaternion_CUSTOM_INTERNAL_CALL_InverseRK11QuaternionfRS_
Jei:_GCHandle_Alloc_m1063472408
yL:__ZN4FMOD7Channel20set3DConeOrientationEP11FMOD_VECTOR
qn:FUNCTION_TABLE_iiifii
bHf:_CryptoConfig_CreateFromName_m391442950
dyj:__ZN6il2cpp2vm12GenericClass11SetupEventsEP11Il2CppClass
fKc:_tt_delta_interpolate
SDc:_tt_cmap12_get_info
UEd:_SortedList__ctor_m3698381356
C2h:_AnimatorControllerPlayable_PlayInFixedTimeInternal_m3876843019
Gtj:__ZN6il2cpp2vm15ReboxIReferenceEP14Il2CppIUnknownP11Il2CppClass
Rme:_StreamWriter_LowLevelWrite_m4205372900
M1i:__ZN6il2cpp6icalls8mscorlib6System7Decimal14decimalCompareEP19il2cpp_decimal_reprS5_
jEj:__ZThn4_N6il2cpp2vm13CachedCCWBaseINS0_13ManagedObjectEE7ReleaseEv
yCd:_CollectionBase_System_Collections_IList_get_Item_m2370387510
Z4d:_Array_Sort_TisCustomAttributeNamedArgument_t94157543_m3436077809_gshared
GYj:_glCopyTexImage2D__wrapper
jHi:_ResourceRequest__ctor_m3340010930
ird:_LayoutElement__ctor_m789941073
x7h:_Camera_FireOnPreCull_m1679634170
sae:_NumberFormatter_CountTrailingZeros_m2398864634
Ooa:__Z18ClearByDrawingQuad13GfxClearFlagsRK10ColorRGBAffjR17ShaderPassContext
uhi:_DynamicPropertyCollection_FindProperty_m1233265924
Nqa:__ZN6prcoreL17RemapGenericFloatI14TexFormatRHalf15TexFormatRFloatEEvPKNS_9InnerInfoE
nZa:__Z16ShouldUseShadowsb
jaa:__ZN15DirectorManager21RebuildStageCallbacksEv
Ora:__ZN19RuntimeSceneManager9LoadSceneERKN4core12basic_stringIcNS0_20StringStorageDefaultIcEEEES6_S6_RK9UnityGUIDiNS_11LoadingModeE
FIa:__ZN7ApiGLES10DrawArraysE16GfxPrimitiveTypejjj
Mbi:_Event_PopEvent_m1952528237
h0h:_AnimatorControllerPlayable_SetIntegerString_m3665225671
lJ:__ZN10SampleClip13LoadBaseSoundEv
gxj:__ZN15dense_hashtableINSt3__24pairIK10KeyWrapperIP12Il2CppObjectEN6il2cpp2gc9CachedCCWEEES5_NS7_5utils11PointerHashIS3_EEN14dense_hash_mapIS5_S9_SD_NS5_14EqualsComparerINS0_8equal_toIS4_EEEENS0_9allocatorISA_EEE9SelectKeyESI_SK_E15insert_noresizeERKSA_
Q_e:_Collection_1_Contains_m643401393_gshared
Noa:__ZN22DeviceMVPMatricesStateC2ER9GfxDevice
o5c:_String__ctor_m372528291
$m:FUNCTION_TABLE_iifii
$F:__Z64AnimationOffsetPlayable_CUSTOM_INTERNAL_CALL_SetRotationInternalR9HPlayableRK11Quaternionf
Ysb:__ZNSt3__26vectorI13dynamic_arrayI8Vector2fLj4EENS_9allocatorIS3_EEE6assignINS_11__wrap_iterIPS3_EEEENS_9enable_ifIXaasr21__is_forward_iteratorIT_EE5valuesr16is_constructibleIS3_NS_15iterator_traitsISC_E9referenceEEE5valueEvE4typeESC_SC_
SIf:_Encoding_SetFallbackInternal_m1682842442
rnj:__ZN6il2cpp2vm10Reflection12HasAttributeEP9FieldInfoP11Il2CppClass
x$h:_AnimatorControllerPlayable_GetFloat_m1229536053_AdjustorThunk
Zsa:__ZNSt3__26__treeIiNS_4lessIiEE13stl_allocatorIiL18MemLabelIdentifier1ELi16EEE7destroyEPNS_11__tree_nodeIiPvEE
pc:invoke_viiifi
Ppe:_LongComparer_Compare_m3981323622
u2g:_EqualityComparer_1__cctor_m3033994022_gshared
gya:__ZNK11AssetBundle14GetPreloadDataEiR13dynamic_arrayIiLj4EE
Wze:_EncryptedData_get_EncryptedContent_m2732115576
qf:_JS_Sound_SetPosition
Kzi:_Assertion_set_FalseExpression_m1781616372
rvf:_X509SubjectKeyIdentifierExtension_FromHexChars_m2515150420
Nha:__ZN19RenderBufferManager13GetTempBufferEii17DepthBufferFormat19RenderTextureFormatj22RenderTextureReadWrite14VRTextureUsagei23RenderTextureMemoryless
j9i:__ZL13GetSharedInstPK17Il2CppGenericInst
S7g:__ZL51IReflect_t3412036974_CustomAttributesCacheGeneratorP21CustomAttributesCache
Udd:_StandaloneInputModule_SendSubmitEventToSelectedObject_m3421155293
Tci:_RenderPipelineManager_CleanupRenderPipeline_m2242901458
C9h:_Component_GetComponentsInChildren_m908027537
ARc:__ZN22BaseUnityConnectClient17SaveSessionValuesEv
hji:_CallContextRemotingData_Clone_m2226242476
S2:__Z63ThreadAndSerializationSafeCheckSetMonoBehaviourBeingTransferredP13MonoBehaviour
l3a:__Z24SetupActiveLightsContextR21ActiveLightingContextRK12ActiveLightsRK11CullResultsP14ShadowMapCacheRK10MinMaxAABB
Phc:__Z38Sprite_CUSTOM_INTERNAL_get_textureRectP12Il2CppObjectP5RectTIfE
INd:_DBNull_System_IConvertible_ToUInt32_m2681284284
dmj:__ZNK15dense_hashtableINSt3__24pairIK10KeyWrapperIPK22Il2CppGenericParameterEPK24MonoGenericParameterInfoEES6_N6il2cpp5utils11PointerHashIS4_EEN14dense_hash_mapIS6_SA_SF_NS6_14EqualsComparerINS0_8equal_toIS5_EEEENS0_9allocatorISB_EEE9SelectKeyESK_SM_E3endEv
b5b:__ZN9TextAsset7SetTextERKN4core12basic_stringIcNS0_20StringStorageDefaultIcEEEE
Tjb:__ZN6Camera8TransferI24GenerateTypeTreeTransferEEvRT_
l3g:_EqualityComparer_1__cctor_m416314417_gshared
Ia:invoke_iiiiiiif
Ea:invoke_iiiiiiii
wKg:_Mesh_GetUVChannel_m364477864
Ktf:_X509ChainElementCollection_Contains_m3599995067
I6a:__ZN8Renderer17PendingAddToSceneEv
u0j:b123
t0j:b122
T0h:_AnimatorControllerPlayable_GetLayerName_m1429074517_AdjustorThunk
v0j:b124
y0j:b127
x0j:b126
A0j:b129
dhc:__Z52Register_UnityEngine_RectTransform_INTERNAL_get_rectv
M1:__Z21PostprocessStacktracePKcRN4core12basic_stringIcNS1_20StringStorageDefaultIcEEEE
Ddh:__ZL70TypeLibImportClassAttribute_t2390314680_CustomAttributesCacheGeneratorP21CustomAttributesCache
Kzb:__ZN18StreamedBinaryReadILb0EE21TransferSTLStyleArrayI13dynamic_arrayI16SplashScreenLogoLj4EEEEvRT_17TransferMetaFlags
CWd:_Array_InternalArray__ICollection_Remove_TisX509ChainStatus_t4278378721_m4127982424_gshared
tcc:__Z47Register_UnityEngine_Camera_get_allCamerasCountv
uXc:___clang_call_terminate
DRc:__ZN22BaseUnityConnectClient20StartEventDispatcherEv
J6b:__ZNSt3__26vectorIj13stl_allocatorIjL18MemLabelIdentifier1ELi16EEE6assignIPKtEENS_9enable_ifIXaasr21__is_forward_iteratorIT_EE5valuesr16is_constructibleIjNS_15iterator_traitsIS9_E9referenceEEE5valueEvE4typeES9_S9_
TA:__ZN7mecanim9animation16EvaluateAvatarIKEPKNS0_14AvatarConstantEPKNS0_11AvatarInputEPNS0_12AvatarOutputEPNS0_12AvatarMemoryEPNS0_15AvatarWorkspaceEb
gJa:__ZL25ProgramUniformMatrix4x3fvPK7ApiGLESjiihPKv
fNg:_PlayableGraph_INTERNAL_CALL_CreateScriptOutputInternal_m348659249
VUa:__ZN12InputManager13InputEndFrameEv
zEd:_SyncHashtable__ctor_m2029869827
ppj:__ZN6il2cpp2vm6Thread5SetupEP12Il2CppThread
M7e:_ReadOnlyCollection_1_System_Collections_IList_Remove_m2200089035_gshared
dWe:_Collection_1_CheckWritable_m2756357359_gshared
GOj:___munmap
Dod:_InputField_get_characterLimit_m2386380888
kJh:__ZL68ColorBlock_t2652774230_CustomAttributesCacheGenerator_m_PressedColorP21CustomAttributesCache
xJd:_Convert_ToInt64_m1722087499
hg:_localtime_r
oNg:_PlayableHandle_GetInputCount_m3249715311
wQ:__ZN4FMOD5Sound11getDefaultsEPfS1_S1_Pi
pdh:__ZL65InterfaceTypeAttribute_t4113096249_CustomAttributesCacheGeneratorP21CustomAttributesCache
jg:_strftime
Xha:__ZN7Texture33SetStoredColorSpaceNoDirtyNoApplyE17TextureColorSpace
f6:__ZN12FileAccessorD2Ev
jvb:__ZN14VertexDataInfoC2Ev
OSd:_Exception_GetObjectData_m2653827630
JMi:_Vector3_Equals_m2692262876_AdjustorThunk
Joi:_InternalEnumerator_1_get_Current_m2415979394_gshared
gOb:__ZL17Transfer_GUIStyleI18StreamedBinaryReadILb1EELb1EEvRK29SerializationCommandArgumentsR31RuntimeSerializationCommandInfo
pTh:_ScrollRect_SetDirtyCaching_m1491302821
sNg:_PlayableHandle_SetInputCount_m2001045454
acj:__ZN6il2cpp6icalls8mscorlib6SystemL9IsPrivateEPK12PropertyInfo
t4f:__Z72RuntimeInvoker_DateTime_t693205669_DateTime_t693205669_Int32_t2071877448PFvvEPK10MethodInfoPvPS4_
pqg:_CustomAttributeData_GetCustomAttributes_m3258419955
Q0:__ZN9shadertag10InitializeEv
BZa:__ZN13BatchRenderer20RenderSingleWithPassER17ShaderPassContextPK18SharedMaterialDataP6ShaderPN9ShaderLab4PassEiPKNS7_10GrabPassesEjib15BatchBreakCause
wsb:__ZN15QualitySettings14QualitySetting8TransferI24GenerateTypeTreeTransferEEvRT_
d1d:_Array_InternalArray__ICollection_CopyTo_TisParameterModifier_t1820634920_m4127516211_gshared
Z7c:_DecoderReplacementFallback__ctor_m2344783488
oog:_OutOfMemoryException__ctor_m239206850
Ykd:_GraphicRegistry_UnregisterGraphicForCanvas_m820096873
jLc:__Z28Font_Get_Custom_PropMaterialP12Il2CppObject
VHj:__ZN6il2cpp6icalls8mscorlib6System9Threading16NativeEventCalls19ResetEvent_internalE12Il2CppIntPtr
v7f:__Z88RuntimeInvoker_RuntimeObject_RuntimeObject_RuntimeObject_RuntimeObject_Int32_t2071877448PFvvEPK10MethodInfoPvPS4_
dYe:_Collection_1_Remove_m4136193368_gshared
Iad:_EventTrigger_OnPointerUp_m2791622548
yVh:_Shadow_set_useGraphicAlpha_m141905402
Y5b:__ZN22BlockMemoryCacheWriter14LockCacheBlockEjPPhS1_
guc:__Z22TransferField_NonArrayI8JSONRead27Converter_SimpleNativeClassI8GUIStyleEEvRK23StaticTransferFieldInfoR31RuntimeSerializationCommandInfoRT0_
Pg:_llvm_eh_typeid_for
O3b:__Z13RegisterClassI10GameObjectEvv
C7i:__ZNK15dense_hashtableINSt3__24pairIK10KeyWrapperIN6il2cpp5utils13dynamic_arrayIPK10Il2CppTypeLj4EEEEPFvvEEESA_NS3_8metadata19Il2CppSignatureHashEN14dense_hash_mapISA_SD_SG_NSA_14EqualsComparerINSF_22Il2CppSignatureCompareEEENS0_9allocatorISE_EEE9SelectKeyESK_SM_E5beginEv
u9g:__ZL53HashValues_t2390200547_CustomAttributesCacheGeneratorP21CustomAttributesCache
usf:_X509BasicConstraintsExtension_get_PathLengthConstraint_m3004531343
y0h:_AnimatorControllerPlayable_INTERNAL_CALL_ResetTriggerString_m2112584758
Fy:__ZNK23AnimationPlayableOutput7GetTypeEv
DPg:_Rect_get_max_m96665935
Yoe:_MissingMemberException__ctor_m4277447068
bIe:_List_1_Find_m1881447651_gshared
GAg:_StrongNameKeyPair_System_Runtime_Serialization_ISerializable_GetObjectData_m1693082120
o9b:__Z26scripting_class_has_parent17ScriptingClassPtrS_
bQb:__Z18Transfer_BlittableI18StreamedBinaryReadILb0EELb1E8Vector4fEvRK29SerializationCommandArgumentsR31RuntimeSerializationCommandInfo
_zj:__ZN6il2cpp2vm6Method8GetParamEPK10MethodInfoj
Age:_Int64_CompareTo_m1953686218
Jsj:__ZN6il2cpp6icalls8mscorlib6System2IO6MonoIO4ReadE12Il2CppIntPtrP11Il2CppArrayiiPi
c$j:_glBindVertexArray__wrapper
RHf:_DSA_Create_m3450041777
Gma:__ZN8Material8TransferI14SafeBinaryReadEEvRT_
Lai:_Debug_LogWarningFormat_m79553173
hob:__ZN12CubemapArray17UploadToGfxDeviceEv
RTh:_ScrollRect_AdjustBounds_m1033723448
_qa:__ZN6prcoreL17RemapGenericFloatI15TexFormatRGHalf17TexFormatRGBAHalfEEvPKNS_9InnerInfoE
uFe:_Enumerator_System_Collections_IEnumerator_Reset_m2200349770_gshared
jog:_OrdinalComparer__ctor_m2952942058
gtf:_X509Chain_CheckRevocationOnChain_m2441901351
cEj:__ZN6il2cpp2vm13ManagedObject14QueryInterfaceERK10Il2CppGuidPPv
JQf:_Type_GetMethod_m3650909507
HJ:__ZN11AudioSource4StopEb
hNj:_frexp
aHb:__ZN14SafeBinaryRead21TransferSTLStyleArrayI13dynamic_arrayI10Matrix4x4fLj4EEEEvRT_17TransferMetaFlags
R$e:_Collection_1_CheckWritable_m732350052_gshared
Wwd:_Byte_System_IConvertible_ToDecimal_m1036493607
Rga:__Z25GetSplashScreenBackgroundRK5RectTIfE
Nba:__ZN14dense_hash_mapIPKcPK4RTTIN11TypeManager23ConstCharPtrHashFunctorENS5_19ConstCharPtrEqualToE13stl_allocatorINSt3__24pairIKS1_S4_EEL18MemLabelIdentifier6ELi16EEEixERSB_
IUc:__ZN13RuntimeStaticI19UnityConnectServiceLb0EE16StaticInitializeEPv
Uvi:_DefaultComparer_Compare_m1247109616_gshared
adi:_ResourceManager__ctor_m498829021
nNa:__ZN18GlslGpuProgramGLESD2Ev
Pab:__ZN13RenderTexture14SetVolumeDepthEi
sig:__Z88RuntimeInvoker_Int32_t2071877448_UIVertex_t1204258818_UIVertex_t1204258818_RuntimeObjectPFvvEPK10MethodInfoPvPS4_
bEf:_SerializationCallbacks__ctor_m722356782
Muc:__ZN10Matrix4x4f8TransferI8JSONReadEEvRT_
G2:__ZN17PersistentManager18ReadObjectThreadedEi
CEa:__ZN25TransformFeedbackSkinning31CleanupTransformFeedbackShadersEv
xEj:__ZN6il2cpp6icalls8mscorlib6System7Runtime16CompilerServices14RuntimeHelpers15InitializeArrayEP11Il2CppArray12Il2CppIntPtr
EYa:__Z22scripting_object_unbox18ScriptingObjectPtr
kyc:__ZNK20TextRenderingPrivate8FontImpl19GetCharacterAdvanceEjijfPj
kKj:__ZN6il2cpp6icalls8mscorlib4Mono8Security12Cryptography18KeyPairPersistence16_IsUserProtectedEP12Il2CppString
Iof:_DefaultUriParser__ctor_m4218024811
Prg:_DerivedType_GetField_m3960169619
jOd:_Decimal_System_IConvertible_ToInt16_m3159038792_AdjustorThunk
Btb:__ZN10VertexData8TransferI18StreamedBinaryReadILb0EEEEvRT_
zAe:_PKCS12_GetExistingParameters_m2413397265
J0i:_Nullable_1_get_Value_m1743067844_gshared
$ab:__ZN14PreloadManager16UpdatePreloadingEv
gYj:_emscripten_glGenVertexArrays__wrapper
zBj:__ZN14dense_hash_mapI10KeyWrapperIPK19Il2CppGenericMethodEP10MethodInfoN6il2cpp8metadata23Il2CppGenericMethodHashENS4_14EqualsComparerINS8_26Il2CppGenericMethodCompareEEENSt3__29allocatorINSD_4pairIKS4_S6_EEEEEC2EjRKS9_RKSC_
egb:__ZNK21UnityDefaultAllocatorI17LowLevelAllocatorE8ContainsEPKv
Yh:_emscripten_get_main_loop_timing
Wie:_DirectoryInfo__ctor_m3750996792
lfd:_BaseMeshEffect_ModifyMesh_m2134816219
vsb:__ZN24GenerateTypeTreeTransfer21TransferSTLStyleArrayINSt3__26vectorIN15QualitySettings14QualitySettingENS1_9allocatorIS4_EEEEEEvRT_17TransferMetaFlags
g8d:_Array_InternalArray__get_Item_TisAnimatorClipInfo_t3905751349_m2163447872_gshared
cyb:__ZNSt3__26vectorI9InputAxisNS_9allocatorIS1_EEE6resizeEj
IZa:__ZN13BatchRendererC2ER15RenderLoopStatsRK15RenderNodeQueuebbb
g2c:_SecurityElement_IsValidAttributeValue_m483287146
MXb:__ZNK2UI13RectTransform22GetTypeVirtualInternalEv
op:getTempRet0
Nnd:_Image_AddQuad_m1603575622
cdf:_PrivateKeyInfo_RemoveLeadingZero_m3396807048
kqj:__ZN6il2cpp6icalls8mscorlib6System9ThreadingL21lookup_cached_cultureEP12Il2CppThreadi
i4a:__ZN18DeferredRenderLoopD2Ev
qja:__ZNK16TypeTreeIterator4NameEv
F5:__ZN15FileSystemEntry3SetEPKc
DYc:_MACTripleDES__ctor_m884945242
fbc:__Z52Register_UnityEngine_Application_set_targetFrameRatev
hL:__ZN20SoundChannelInstance15ParameterBuffer5ApplyEPN4FMOD7ChannelE
hyc:__ZN20TextRenderingPrivate19NativeTextGenerator9InsertTabEv
aDg:_Rect_set_y_m4294916608
QRc:__ZN11UnityEngine15PlatformWrapper24GetRuntimePlatformStringEv
Hi:_glIsEnabled
MCb:__Z25scripting_class_get_image17ScriptingClassPtr
Li:_emscripten_glDrawElementsInstanced
wx:__ZN26AnimatorControllerPlayable27SetupStateMachineBehavioursEv
Ebf:_ARC4Managed_Dispose_m4102232694
Ybf:_HMAC_Initialize_m3052649104
Hrf:_OidCollection_get_Item_m1091387424
HXb:__ZN9Transform17MainThreadCleanupEv
HGj:_GC_clear_hdr_marks
aWj:_glScissor__wrapper
_$j:_emscripten_glCreateShader__wrapper
iGc:_cff_fd_select_get
Wch:__ZL73CompilationRelaxationsAttribute_t238494011_CustomAttributesCacheGeneratorP21CustomAttributesCache
j0c:_SHA512Managed_processBlock_m3220567420
Xnf:_NameObjectCollectionBase_get_Keys_m446053925
Vi:_emscripten_glGetShaderiv
jM:__ZN4FMOD6System10getVersionEPj
vje:_FileLoadException_GetObjectData_m2047020314
R_d:_Array_InternalArray__IndexOf_TisSByte_t454417549_m1427585061_gshared
SLc:__ZN2UI6Canvas23VirtualRedirectTransferER24GenerateTypeTreeTransfer
FGd:_Decimal_u64_m3991988111
o1i:_Predicate_1_BeginInvoke_m2959352225_gshared
y$g:_Dictionary_2_CopyToCheck_m2147716750_gshared
EEi:_X509Certificate_Parse_m1764345628
Rwc:__ZN13TextRendering4Font13AwakeFromLoadE17AwakeFromLoadMode
yBa:__ZN9GfxDevice21ReleaseSharedMeshDataEP14SharedMeshData
Tyb:__ZNSt3__27__sort5IRNS_6__lessINS_4pairIPKN5Unity4TypeE7Hash128EES8_EEPS8_EEjT0_SC_SC_SC_SC_T_
YYe:_Collection_1_ConvertItem_m3168406667_gshared
OFj:_GC_unreachable_finalize_mark_proc
Xfg:__Z70RuntimeInvoker_Single_t2076509932_Int32_t2071877448_Single_t2076509932PFvvEPK10MethodInfoPvPS4_
rji:_ConstructionCall_GetObjectData_m3974358557
Xgc:__Z43RectTransform_CUSTOM_INTERNAL_get_anchorMaxP12Il2CppObjectP13Vector2fIcall
dYf:__Z50RuntimeInvoker_Void_t1841601450_Single_t2076509932PFvvEPK10MethodInfoPvPS4_
pNd:_DateTimeOffset_get_DateTime_m229084964_AdjustorThunk
tma:__ZN8Material28UpdateHashesOnPropertyChangeEN9ShaderLab16FastPropertyNameE
Hhc:__Z53Register_UnityEngine_SortingLayer_GetLayerValueFromIDv
qie:_DirectoryInfo_get_Parent_m1198766078
cCd:_CaseInsensitiveComparer_Compare_m1192858479
aFb:__Z18Transfer_BlittableI14SafeBinaryReadLb1E8Vector4fEvRK29SerializationCommandArgumentsR31RuntimeSerializationCommandInfo
gsd:_LayoutRebuilder_Clear_m2390054824
HDa:__ZN13GfxDeviceGLES20SetComputeBufferDataE15ComputeBufferIDPKvjj
$pg:_Default_SelectMethod_m622251293
pO:__ZN11AudioSource12AddToManagerEv
ss:__ZN8Animator23VirtualRedirectTransferER19StreamedBinaryWriteILb0EE
az:__ZN11UnityEngine9Animation32CreateAnimatorGenericBindingsOptERKNS0_20AnimationSetBindingsER9TransformPKN7mecanim9animation14AvatarConstantEPKNS0_21AvatarBindingConstantEbRNS6_6memory9AllocatorER8Animator
kuj:__ZN6il2cpp2vm5Image13ClassFromNameEPK11Il2CppImagePKcS6_
_Rj:dynCall_vdddddd
PUb:__ZN24GenerateTypeTreeTransfer21TransferSTLStyleArrayINSt3__26vectorIN9ShaderLab14SerializedPassENS1_9allocatorIS4_EEEEEEvRT_17TransferMetaFlags
A1:__ZL32MarkLevelGameManagerDependenciesR27GarbageCollectorThreadState
ODa:__ZNK13GfxDeviceGLES26HasActiveRandomWriteTargetEv
wWc:__ZN20UnityWebRequestProtoI19TransportJavaScript16AtomicRefCounter14RedirectHelper14ResponseHelper15DownloadHandler13UploadHandler12HeaderHelper14AsyncOperationE5BeginEv
TWj:_glGetActiveUniformsiv__wrapper
Ehc:__Z43Register_UnityEngine_Material_EnableKeywordv
K3:__ZN13MonoBehaviour19SetupScriptingCacheE17ScriptingClassPtrP10MonoScript
vr:__Z20AnimationEventToMonoRK14AnimationEventR18MonoAnimationEvent
VTg:_ShimEnumerator_get_Current_m3610131784_gshared
lFh:__ZL74UnityEventBase_t828812576_CustomAttributesCacheGenerator_m_PersistentCallsP21CustomAttributesCache
Gaa:__ZZN15DirectorManager15InitializeClassEvEN52PreLateUpdateDirectorUpdateAnimationBeginRegistrator7ForwardEv
lsj:__ZN6il2cpp2vm13LivenessState18ShouldProcessValueEP12Il2CppObjectP11Il2CppClass
Wsg:_EnumBuilder_GetElementType_m1228393631
qNg:_PlayableHandle_GetInputCountInternal_m2692879798
lUb:__ZNSt3__26vectorIN9ShaderLab14SerializedPassENS_9allocatorIS2_EEE8__appendEj
DTb:__ZNSt3__26vectorIN9ShaderLab20SerializedSubProgram13BufferBindingENS_9allocatorIS3_EEEC2INS_11__wrap_iterIPS3_EEEET_SB_RKS5_PNS_9enable_ifIXaasr21__is_forward_iteratorISB_EE5valuesr16is_constructibleIS3_NS_15iterator_traitsISB_E9referenceEEE5valueEvE4typeE
egg:__Z133RuntimeInvoker_RuntimeObject_Vector2_t2243707579_Vector2_t2243707579_Single_t2076509932_Int32_t2071877448_RuntimeObject_RuntimeObjectPFvvEPK10MethodInfoPvPS4_
Bpb:__ZN9Texture2D23VirtualRedirectTransferER18StreamedBinaryReadILb0EE
SQd:_Double_System_IConvertible_ToUInt16_m286326038_AdjustorThunk
lCf:_TypeInfo__ctor_m1475908211
Rib:__ZNSt3__26__treeINS_12__value_typeIN4core12basic_stringIcNS2_20StringStorageDefaultIcEEEEjEENS_19__map_value_compareIS6_S7_NS_4lessIS6_EELb1EEE13stl_allocatorIS7_L18MemLabelIdentifier6ELi16EEE7destroyEPNS_11__tree_nodeIS7_PvEE
q4:__ZN16ScriptingManager27NativeTypeForScriptingClassE17ScriptingClassPtr
htf:_X509Chain_WrapUp_m1072032285
_Fi:_X509CertificateEnumerator_System_Collections_IEnumerator_MoveNext_m1448966539
kDc:_get_sfnt_table
Dgf:_TlsServerHelloDone__ctor_m2125611008
SGg:_GUIStyle_GetNumCharactersThatFitWithinWidth_m3760066083
Wbd:_PointerEventData_set_pressPosition_m2094137883
zHf:_DES_get_Key_m2584608215
w5a:__ZL22ScheduleSceneNodesJobsP25ScheduleSceneNodesJobDataj
Jk:_emscripten_set_canvas_size
wDd:_Hashtable__ctor_m741952536
VTb:__ZNSt3__26vectorIN9ShaderLab20SerializedSubProgramENS_9allocatorIS2_EEE8__appendEj
o_:__ZN20DynamicHeapAllocatorI17LowLevelAllocatorE8AllocateEji
i_a:__ZN20DynamicPropertySheet15SetVectorQueuedERKN9ShaderLab16FastPropertyNameERK8Vector4fN19ShaderPropertySheet8SetFlagsE
u5e:_ReadOnlyCollection_1_System_Collections_IEnumerable_GetEnumerator_m4248982967_gshared
bA:__ZN7mecanim9animation22EvaluateAvatarRetargetEPKNS0_14AvatarConstantEPKNS0_11AvatarInputEPNS0_12AvatarOutputEPNS0_12AvatarMemoryEPNS0_15AvatarWorkspaceEb
umb:__ZN14RenderSettings23VirtualRedirectTransferER19StreamedBinaryWriteILb0EE
_qc:__ZL26Transfer_SimpleNativeClassI9JSONWrite10RectOffsetLb0EEvRK29SerializationCommandArgumentsR31RuntimeSerializationCommandInfo
$Ga:__ZN17GenericDynamicVBO10AllocateVBEjR21DynamicVBOChunkHandle
sJe:_List_1_get_Item_m1547593893_gshared
Hie:_Path_GetPathRoot_m1269357080
Nvj:__ZN30dense_hashtable_const_iteratorI10KeyWrapperIP18Il2CppGenericClassES3_N6il2cpp8metadata22Il2CppGenericClassHashEN14dense_hash_setIS3_S6_NS3_14EqualsComparerINS5_25Il2CppGenericClassCompareEEENSt3__29allocatorIS3_EEE8IdentityESA_SD_EppEv
lad:_EventSystem_SetSelectedGameObject_m2211816110
gl:_glMapBufferRange
tpb:__ZN9Texture2D8TransferI18StreamedBinaryReadILb0EEEEvRT_
yec:__Z31Input_CUSTOM_GetMouseButtonDowni
zgc:__Z75Register_UnityEngine_Playables_PlayableHandle_INTERNAL_CALL_IsValidInternalv
D4b:__ZN13PlayableGraph4PlayEv
cYa:__ZNK9Transform16GetLocalPositionEv
lya:__ZN13LoadOperation19IntegrateTimeSlicedEi
bki:_ArrayReadOnlyList_1_get_Item_m176001975_gshared
eBe:_X501__cctor_m3795360380
ZDa:__ZN13GfxDeviceGLES22DispatchComputeProgramE12ObjectHandleI18ComputeProgram_TagPvE15ComputeBufferIDj
oHg:_GUIStyle_set_contentOffset_m2138084868
VWe:_Collection_1_System_Collections_ICollection_CopyTo_m4193844941_gshared
qJd:_Convert_ToInt32_m2297793940
twa:__Z17TransformAABBSlowRK4AABBRK10Matrix4x4fRS_
oqb:__ZN15SerializeTraitsI13dynamic_arrayI7Hash128Lj8EEE19ResizeSTLStyleArrayERS2_i18MemLabelIdentifier
Vsf:_X509Chain_Build_m1140429528
FSb:__ZN9ShaderLab21SerializedShaderState8TransferI14SafeBinaryReadEEvRT_
_$i:_Terminal_NotifyCommandHandlers_m2901839470
i$c:_RSAPKCS1SignatureFormatter_SetKey_m2365816458
fHc:_cf2_stack_pushInt
oMf:_CompressedStack__ctor_m276924800
Abd:_ExecuteEvents_get_cancelHandler_m1964324668
Bna:__ZN15SerializeTraitsINSt3__24pairIN4core12basic_stringIcNS2_20StringStorageDefaultIcEEEES6_EEE8TransferI24GenerateTypeTreeTransferEEvRS7_RT_
RJg:_Matrix4x4__ctor_m2771358574_AdjustorThunk
CYj:b81
BYj:b80
eLa:__ZN7ApiGLES19CreateSparseTextureEjj14GraphicsFormatiiiiRiS1_S1_
W4:__ZN18ResourceImageGroup7CleanupEv
MYj:b85
LYj:b84
UYj:b87
TYj:b86
y2b:__ZN13ProduceHelperI4MeshLb0EE7ProduceE18MemLabelIdentifier18ObjectCreationMode
adf:_PrivateKeyInfo_Decode_m1053025782
hAe:_PKCS12_Decrypt_m2457743414
gnb:__ZN8Playable19SetOutputConnectionEPS_i
I4i:__ZN15dense_hashtableINSt3__24pairIK10KeyWrapperIPK11Il2CppClassEPKcEES6_N6il2cpp5utils11PointerHashIS3_EEN14dense_hash_mapIS6_S9_SE_NS6_14EqualsComparerINS0_8equal_toIS5_EEEENS0_9allocatorISA_EEE9SelectKeyESJ_SL_EC2ERKSO_j
Vl:_glDeleteShader
JSd:_Exception_GetType_m3898489832
Vqa:__ZN6prcoreL17RemapGenericFloatI15TexFormatRGHalf16TexFormatRGFloatEEvPKNS_9InnerInfoE
WTe:_Stack_1_Peek_m1548778538_gshared
vVh:_Shadow_set_effectColor_m3110056844
bac:__Z27scripting_add_internal_callPKcPKv
s2d:_Array_InternalArray__Insert_TisUriScheme_t1876590943_m2728325409_gshared
Lmj:__ZN13Il2CppHashMapINSt3__24pairIPK9EventInfoP11Il2CppClassEEj17ReflectionMapHashIS7_ENS0_8equal_toIS7_EENS0_9allocatorINS1_IK10KeyWrapperIS7_EjEEEEEC2EjRKS9_RKSB_
rwj:__GLOBAL__sub_I_GarbageCollector_cpp
lGi:_X509Store_CheckStore_m1027496478
Js:__ZN26AnimatorControllerPlayable18SetLayerAutoWeightEv
Nb:invoke_vffff
NPj:__ZNSt3__212basic_stringIcNS_11char_traitsIcEENS_9allocatorIcEEEC2ERKS5_jjRKS4_
F6c:_String_Contains_m4017059963
yvi:_DefaultComparer_Compare_m1606207039_gshared
dOc:__ZN2UI14CanvasRenderer12SyncMaterialENS0_8SyncFlagE
ZJj:__ZN6il2cpp2vm9Parameter30GetDefaultParameterValueObjectEPK10MethodInfoPK13ParameterInfoPb
sZb:__ZN15dense_hashtableINSt3__24pairIKN4core12basic_stringIcNS2_20StringStorageDefaultIcEEEE10vector_setI4PPtrI11SpriteAtlasENS0_4lessISB_EE13stl_allocatorISB_L18MemLabelIdentifier79ELi16EEEEES6_20StringHash32FunctionIS6_EN14dense_hash_mapIS6_SH_SK_NS0_8equal_toIS6_EESE_ISI_LSF_79ELi16EEE9SelectKeyESN_SO_E12maybe_shrinkEv
g3d:_Array_InternalArray__set_Item_TisLabelData_t3712112744_m2253365137_gshared
RKg:_MonoBehaviour_Invoke_m666563676
Tjf:_RecordProtocol_InternalReceiveRecordCallback_m2228921492
Yme:_StringReader__ctor_m643998729
Dpf:_IPv6Address_TryParse_m2220524278
bDc:_UNITY_tt_face_done_kern
lhi:_Context_get_DefaultContext_m2211922324
Dnc:__Z59GUIStyle_CUSTOM_Internal_GetNumCharactersThatFitWithinWidth13Il2Cpp_IntPtrP12Il2CppStringf
Mvb:__ZN12BoneWeights48TransferI24GenerateTypeTreeTransferEEvRT_
rdf:_RSAManaged_GetPaddedValue_m2972141669
iG:__Z62AnimationPlayableOutput_CUSTOM_INTERNAL_CALL_InternalSetTargetR15HPlayableOutputP12Il2CppObject
cga:__Z19scripting_gc_enablev
cWc:__ZN20UnityWebRequestProtoI19TransportJavaScript16AtomicRefCounter14RedirectHelper14ResponseHelper15DownloadHandler13UploadHandler12HeaderHelper14AsyncOperationE9DoRequestEv
NTa:__ZZ23InitPlayerLoopCallbacksvEN41InitializationPlayerUpdateTimeRegistrator7ForwardEv
DAi:_AnchorInfo__ctor_m617409099
ZPc:__Z55Register_UnityEngine_CanvasRenderer_DisableRectClippingv
Cxf:_Interval_CompareTo_m2909556284_AdjustorThunk
fvb:__ZN14SafeBinaryRead21TransferSTLStyleArrayI13dynamic_arrayI11ColorRGBA32Lj4EEEEvRT_17TransferMetaFlags
M4h:_AudioClip_get_length_m3881628918
twf:_Interpreter_GetLastDefined_m2450713313
Uzi:_Parser_ParseAssertionType_m3316669790
pWb:__ZN9ShaderLab7Program27CreateFromSerializedProgramERKNS_17SerializedProgramE10ShaderTypeiP16PropertyNamesSetPK6Shader
YUh:_Selectable_get_isPointerDown_m774209881
BXb:__ZNSt3__27__sort4IRNS_6__lessIN4core12basic_stringIcNS2_20StringStorageDefaultIcEEEES6_EEPS6_EEjT0_SA_SA_SA_T_
ISj:dynCall_viiiifii
nlj:__ZN6il2cpp2gc19AppendOnlyGCHashMapINSt3__24pairIPK11Il2CppImageP11Il2CppClassEEP22Il2CppReflectionModule17ReflectionMapHashIS9_ENS2_8equal_toIS9_EEEC2Ev
D2:__Z20GetPersistentManagerv
sKc:_UNITY_TT_Set_Var_Design
uda:__ZN21SystemInfoStringCache16StaticInitializeEPv
Oef:_TlsStream__ctor_m4117943603
aij:__ZN15dense_hashtableINSt3__24pairIK10KeyWrapperIPK10Il2CppTypeEjEES6_N6il2cpp8metadata14Il2CppTypeHashEN14dense_hash_mapIS6_jSB_NS6_14EqualsComparerINSA_26Il2CppTypeEqualityComparerEEENS0_9allocatorIS8_EEE9SelectKeyESF_SH_E12maybe_shrinkEv
NWh:_Text_FontTextureChanged_m4236993972
RAj:__ZN6il2cpp2gc16GarbageCollector23MakeDescriptorForObjectEPji
uAg:_ParameterModifier_t1820634920_marshal_pinvoke
OBb:__ZNK13MonoBehaviour7GetNameEv
Dsa:__ZN19ScriptingInvocation28AdjustArgumentsToMatchMethodEv
Zvj:__ZN15dense_hashtableI10KeyWrapperIP18Il2CppGenericClassES3_N6il2cpp8metadata22Il2CppGenericClassHashEN14dense_hash_setIS3_S6_NS3_14EqualsComparerINS5_25Il2CppGenericClassCompareEEENSt3__29allocatorIS3_EEE8IdentityESA_SD_E6insertERKS3_
oQ:__Z15_CheckFMODError11FMOD_RESULTPKciS1_
Klb:__Z20RenderMultipleMeshesRK15RenderNodeQueueRK18RenderMultipleData17ShaderChannelMask
igj:__ZN6il2cpp2vm4Type19GetGenericParameterEPK10Il2CppType
zPc:__Z51Register_UnityEngine_CanvasGroup_get_blocksRaycastsv
Tti:_InternalEnumerator_1_get_Current_m2826780083_gshared
q0j:b119
yhi:_Context_UnregisterDynamicProperty_m4064851633
Juc:__ZN8JSONRead21TransferSTLStyleArrayI13dynamic_arrayI11ColorRGBA32Lj4EEEEvRT_18MemLabelIdentifier17TransferMetaFlags
wjj:__ZNK15dense_hashtableINSt3__24pairIK10KeyWrapperINS1_IPK11Il2CppImageP11Il2CppClassEEEjEES9_17ReflectionMapHashIS8_EN14dense_hash_mapIS9_jSD_NS9_14EqualsComparerINS0_8equal_toIS8_EEEENS0_9allocatorISB_EEE9SelectKeyESI_SK_E3endEv
Ad:_glBeginQuery
Pog:_Assembly_GetCustomAttributes_m95309865
lCg:_GUILayoutUtility_INTERNAL_CALL_Internal_GetWindowRect_m3236664463
GVa:__ZN6Camera12RenderStereoENS_10RenderFlagE8CullFlagPNS_24PerformEyeRenderFunctionE
tea:__ZN20LocalFileSystemPosix10ToAbsoluteEPKc
Alb:__ZN20TierGraphicsSettings8TransferI19StreamedBinaryWriteILb0EEEEvRT_
$Rd:_Enum_ToObject_m275924358
Dm:f0
iAd:_ArrayListWrapper_set_Capacity_m2792463350
cOj:_getcwd
sKf:_StringBuilder_Append_m1128243247
K$h:_AnimatorControllerPlayable_GetBool_m3606320557
Pfb:__ZN25ThreadsafeLinearAllocatorD2Ev
eLd:_DateTime_get_Year_m1985210972
Bga:__Z21SendMessageToEveryoneRK17MessageIdentifier11MessageData
D8:__ZN21BillboardBatchManager16StaticInitializeEPv
oFg:_Object_get_name_m2079638459
x$:__ZN12_GLOBAL__N_138ArchiveRedirectFileSystemStaticDestroyEPv
ASd:_EventHandler_Invoke_m1137722757
eob:__ZN12CubemapArray34UpdateFileTextureUploadInstructionEP26FileAssetUploadInstructionj
tqe:_MonoType_IsSubclassOf_m2211166238
rYe:_Collection_1_System_Collections_ICollection_CopyTo_m2859266050_gshared
dLa:__Z23CreateSparseTextureGLES9TextureIDii14GraphicsFormati
RGj:_GC_continue_reclaim
Dhe:_InvalidCastException__ctor_m2730571470
Ouf:_X509ChainElementCollection_System_Collections_IEnumerable_GetEnumerator_m2559704689
csf:_PublicKey_get_Key_m126090744
azc:__ZNSt3__23mapIN20TextRenderingPrivate7FontRefEP11FT_FaceRec_NS_4lessIS2_EENS_9allocatorINS_4pairIKS2_S4_EEEEEixERS9_
IPa:__ZN17ArchiveFileSystem10AddStorageEP20ArchiveStorageReader
f9h:_Color_Equals_m661618137
I8h:_CanvasRenderer_SplitIndicesStreamsInternal_m817541557
g2g:_EqualityComparer_1_System_Collections_IEqualityComparer_GetHashCode_m1203798961_gshared
W2i:__ZN6il2cpp2vm5Class15GetEnumBaseTypeEP11Il2CppClass
Nob:__ZNK9Texture2D16GetNpotTexelSizeEv
tPh:_Mask_get_rectTransform_m3304369086
iKi:_TooltipAttribute__ctor_m2640804852
eHa:__ZN9GfxDevice22GetDefaultVertexBufferE26GfxDefaultVertexBufferTypej
TWe:_Collection_1__ctor_m3903788797_gshared
R4e:_ReadOnlyCollection_1_System_Collections_ICollection_CopyTo_m1129689124_gshared
uOj:___fseeko_unlocked
OYj:_glGetActiveUniform__wrapper
mOj:_sscanf
zvb:__ZN14SafeBinaryRead21TransferSTLStyleArrayINSt3__26vectorI17BlendShapeChannelNS1_9allocatorIS3_EEEEEEvRT_17TransferMetaFlags
Roa:__Z17BeginSplashScreenv
AVb:__ZN9ShaderLab16SerializedShader8TransferI19StreamedBinaryWriteILb0EEEEvRT_
eSf:_UInt32_Parse_m2400360707
tC:__ZN7mecanim9animation18CreateAvatarMemoryEPKNS0_14AvatarConstantERNS_6memory9AllocatorE
SFd:_Stack_Pop_m3788808882
ORg:_Enumerator_VerifyCurrent_m4246196125_AdjustorThunk
QMd:_DateTime_op_Equality_m1867073872
lB:__ZN7mecanim8skeleton16SkeletonPoseCopyIN4math4trsXENS2_7affineXEEEvPKNS0_13SkeletonPoseTIT_EEPNS5_IT0_EE
LGa:__ZN18GfxFramebufferGLES18GetFramebufferNameERK20GfxRenderTargetSetup
Fsj:__ZN6il2cpp6icalls8mscorlib6System2IO6MonoIO11GetFileTypeE12Il2CppIntPtrPi
dmc:__Z30Event_Get_Custom_PropCharacterP12Il2CppObject
faa:__ZN13PlayableGraph27SchedulePlayableDestructionERK9HPlayable
WVj:_glGetFramebufferAttachmentParameteriv__wrapper
nVc:__Z13RegisterClassI20UnityConnectSettingsEvv
YFb:__Z22scripting_array_length17ScriptingArrayPtr
c2c:_SecurityElement_GetAttribute_m4288291176
xRi:_IndexedSet_1_get_Count_m2839545138_gshared
Uva:__ZN14SafeBinaryRead20TransferTypelessDataEjPvi
Rci:_RenderPipelineManager_get_currentPipeline_m679160301
Zch:__ZL66StringFreezingAttribute_t2691375565_CustomAttributesCacheGeneratorP21CustomAttributesCache
Spc:__ZN9rapidjson13GenericReaderINS_4UTF8IcEES2_13JSONAllocatorE10ParseFalseILj1ENS_25GenericInsituStringStreamIS2_EENS_15GenericDocumentIS2_S3_S3_EEEEvRT0_RT1_
xZh:_AnimationClipPlayable_INTERNAL_CALL_SetApplyFootIKInternal_m4116451205
HP:__ZN13dynamic_arrayI12SoundChannelLj4EE9push_backERKS0_
l0:__Z19GetActiveColorSpacev
z2g:_EqualityComparer_1__cctor_m1672307556_gshared
GAf:_SoapTypeAttribute_get_IsInteropXmlElement_m2941294827
Gxb:__ZN14SpriteRenderer18UpdateCachedSpriteEv
cGe:_Enumerator_System_Collections_IEnumerator_get_Current_m3542273247_gshared
zyd:_Char_System_IConvertible_ToUInt32_m1557991717_AdjustorThunk
wJf:_Encoding_get_UTF8Unmarked_m628720656
oae:_NumberFormatter_RoundBits_m1545255255
U0:__Z6StrCmpPKcS0_
ZWb:__Z21CheckGpuProgramUsable20ShaderGpuProgramType
Kpg:_Binder__cctor_m3736115807
hAj:__ZN6il2cpp2os9Directory20GetFileSystemEntriesERKNSt3__212basic_stringIcNS2_11char_traitsIcEENS2_9allocatorIcEEEESA_iiPi
oig:__Z84RuntimeInvoker_Int32_t2071877448_Color32_t874517518_Color32_t874517518_RuntimeObjectPFvvEPK10MethodInfoPvPS4_
I$g:_Dictionary_2_OnDeserialization_m2160537783_gshared
$xc:__ZN20TextRenderingPrivate19NativeTextGenerator5SetupEv
Izb:__ZN12AspectRatios8TransferI18StreamedBinaryReadILb0EEEEvRT_
Y3b:__ZN10GameObject14CopyPropertiesERS_
goc:__Z44Register_UnityEngine_GUIStyle_get_fixedWidthv
I_c:_RSACryptoServiceProvider_Common_m2581564813
r1h:_AnimatorControllerPlayable_INTERNAL_CALL_GetCurrentAnimatorClipInfoInternal_m3360626147
Yke:_MemoryStream_CheckIfClosedThrowDisposed_m2253054610
zki:_ArrayReadOnlyList_1_GetEnumerator_m634288642_gshared
wbb:__ZNK13ScreenManager12IsFullScreenEv
POj:_rand
xWj:_emscripten_glFramebufferRenderbuffer__wrapper
udg:__Z72RuntimeInvoker_Boolean_t3825574718_Ray_t2469606224_SingleU26_t4173844468PFvvEPK10MethodInfoPvPS4_
eBj:__ZN6il2cpp5utils9PathUtils7CombineIcEENSt3__212basic_stringIT_NS3_11char_traitsIS5_EENS3_9allocatorIS5_EEEERKNS0_10StringViewIS5_EERKSA_
MGb:__ZN14SafeBinaryRead21TransferSTLStyleArrayINSt3__26vectorI17AnimationCurveTplIfE13stl_allocatorIS4_L18MemLabelIdentifier1ELi16EEEEEEvRT_17TransferMetaFlags
Bbc:__Z60Register_UnityEngine_AsyncOperation_set_allowSceneActivationv
xDf:_ObjectManager_RegisterObject_m872610295
c5a:__Z22PrepareOptimizedPlanesPK5PlaneiPKN4math7_float4E
hQg:_RectOffset_t3387826427_marshal_pinvoke
Tkd:_Graphic_SetVerticesDirty_m1607014370
RY:__ZN11UnityEngine15CloudWebService17WebFileDownloaderINS0_20WebRequestRestClientENS0_23WebRequestRestHeaderMapEE10InitializeERKN4core12basic_stringIcNS5_20StringStorageDefaultIcEEEE
B8:__ZN17UniqueIDGenerator15CreatePureIndexEv
Coc:__Z59Register_UnityEngine_GUIStyle_Internal_GetCursorFlashOffsetv
ds:__ZN11UnityEngine9Animation28GenericAnimationBindingCache15DidReloadDomainEv
sCe:_AppDomain_InternalGetProcessGuid_m1278588156
gqd:_InputField_MoveRight_m386206014
lZf:__Z116RuntimeInvoker_Boolean_t3825574718_RuntimeObject_Int32_t2071877448_RuntimeObject_Int32_t2071877448_Int32_t2071877448PFvvEPK10MethodInfoPvPS4_
Zhe:_BinaryReader_ReadBoolean_m2892291883
k2i:__ZN15dense_hashtableINSt3__24pairIK10KeyWrapperIPK22Il2CppGenericParameterEP11Il2CppClassEES6_N6il2cpp5utils11PointerHashIS4_EEN14dense_hash_mapIS6_S9_SE_NS6_14EqualsComparerINS0_8equal_toIS5_EEEENS0_9allocatorISA_EEE9SelectKeyESJ_SL_E14squash_deletedEv
uAb:__ZNSt3__26__treeINS_12__value_typeIN4core12basic_stringIcNS2_20StringStorageDefaultIcEEEE4PPtrI6ObjectEEENS_19__map_value_compareIS6_SA_NS_4lessIS6_EELb1EEE13stl_allocatorISA_L18MemLabelIdentifier51ELi16EEE7destroyEPNS_11__tree_nodeISA_PvEE
zcg:__Z139RuntimeInvoker_Void_t1841601450_IntPtr_t_Rect_t3681755626_RuntimeObject_SByte_t454417549_SByte_t454417549_SByte_t454417549_SByte_t454417549PFvvEPK10MethodInfoPvPS4_
jkc:__Z14GUIClipTextureP9Texture2DPhiiii
Mif:_TlsServerCertificate_validateCertificates_m1988583701
B0:__ZNK9Transform18TransformDirectionERK8Vector3f
YCg:_GUILayoutEntry_SetHorizontal_m1828181654
A$j:_emscripten_glClearStencil__wrapper
w8i:__ZN15dense_hashtableINSt3__24pairIK10KeyWrapperIPK11Il2CppClassEPKcEES6_N6il2cpp5utils11PointerHashIS3_EEN14dense_hash_mapIS6_S9_SE_NS6_14EqualsComparerINS0_8equal_toIS5_EEEENS0_9allocatorISA_EEE9SelectKeyESJ_SL_E12resize_deltaEjj
yQj:__ZNK10__cxxabiv120__si_class_type_info27has_unambiguous_public_baseEPNS_19__dynamic_cast_infoEPvi
gUj:_glTexSubImage3D__wrapper
Qvf:_FactoryCache_Add_m2602974721
dHa:__Z30AddDefaultStreamsToMeshBuffersR9GfxDeviceR11MeshBuffersj17ShaderChannelMaskS3_
z7:__ZL16GetInterfaceImpl18UnityInterfaceGUID
jce:_RegionInfo_construct_internal_region_from_name_m3316088619
n3i:__ZN6il2cpp2vmL17SetupFieldOffsetsENS0_15FieldLayoutKindEP11Il2CppClassjRKNSt3__26vectorIjNS4_9allocatorIjEEEE
RHe:_List_1_System_Collections_IList_get_Item_m936612973_gshared
ZCj:__ZN6il2cpp6icalls8mscorlib6System15MonoCustomAttrs27GetCustomAttributesInternalEP12Il2CppObjectP20Il2CppReflectionTypeb
AKc:_UNITY_TT_Set_MM_Blend
HDf:_ObjectReader_ReadAssembly_m869834280
D0e:_Collection_1_IsSynchronized_m971497175_gshared
kbd:_ExecuteEvents_Execute_m1617536317
KWh:_Text_get_cachedTextGeneratorForLayout_m1357670532
EK:__ZL31InitializeAudioScriptingClassesv
ZXa:__Z14SortGUIByDepthP10GUIElementS0_
Xee:_NumberFormatter_NumberToString_m126384393
_Xj:_emscripten_glVertexAttrib4fv__wrapper
Zxf:_LogicalCallContext__ctor_m3173272863
UB:__ZN12_GLOBAL__N_120ProcessRootMotionMixER33AnimationPlayableEvaluationOutputR35AnimationPlayableEvaluationConstantR32AnimationPlayableEvaluationInputS1_f
fpe:_MonoCustomAttrs__cctor_m2608447972
Kee:_Int32_FindSign_m3803672540
vSg:_Enumerator_System_Collections_IEnumerator_Reset_m70453843_AdjustorThunk
dfa:__ZNK20LocalFileSystemPosix21GetAvailableDiskSpaceEPKcRy
xda:__ZNSt3__26__treeIiNS_4lessIiEENS_9allocatorIiEEE7destroyEPNS_11__tree_nodeIiPvEE
Eef:_CipherSuite_InitializeCipher_m229247572
MAa:__ZNK9GfxDevice14GetWorldMatrixEv
Lzg:_MonoProperty_GetGetMethod_m1100580870
q7a:__Z19scripting_array_new17ScriptingClassPtrjj
vP:__ZN11SoundHandle13CreateChannelEb
g1f:__Z90RuntimeInvoker_Void_t1841601450_IntPtr_t_Int32_t2071877448_RuntimeObject_Int32_t2071877448PFvvEPK10MethodInfoPvPS4_
aqb:__ZN14SafeBinaryRead21TransferSTLStyleArrayI13dynamic_arrayI12LightmapDataLj4EEEEvRT_17TransferMetaFlags
MCe:_ArgumentException__ctor_m3312963299
aUb:__ZNSt3__26vectorIN9ShaderLab20SerializedSubProgram16TextureParameterENS_9allocatorIS3_EEE6assignIPS3_EENS_9enable_ifIXaasr21__is_forward_iteratorIT_EE5valuesr16is_constructibleIS3_NS_15iterator_traitsISA_E9referenceEEE5valueEvE4typeESA_SA_
a7i:__ZN13Il2CppHashMapIN6il2cpp5utils13dynamic_arrayIPK10Il2CppTypeLj4EEEPFvvENS0_8metadata19Il2CppSignatureHashENS9_22Il2CppSignatureCompareENSt3__29allocatorINSC_4pairIK10KeyWrapperIS6_ES8_EEEEEC2EjRKSA_RKSB_
C0i:_U3CCreateWhereIteratorU3Ec__Iterator1D_1_MoveNext_m3533253043_gshared
Vlj:__ZN15dense_hashtableINSt3__24pairIK10KeyWrapperIPK22Il2CppGenericParameterEPK24MonoGenericParameterInfoEES6_N6il2cpp5utils11PointerHashIS4_EEN14dense_hash_mapIS6_SA_SF_NS6_14EqualsComparerINS0_8equal_toIS5_EEEENS0_9allocatorISB_EEE9SelectKeyESK_SM_E15set_deleted_keyERKSB_
FYb:__ZN6prcoreL11inner_clearILj2EEEvPhjjj
tvf:_X509SubjectKeyIdentifierExtension__ctor_m3887138480
kEe:_Enumerator_System_Collections_IEnumerator_get_Current_m2853089017_AdjustorThunk
Ng:_emscripten_exit_fullscreen
eod:_InputField_get_mesh_m3276583786
Mei:_GCHandle_Free_m1639542352_AdjustorThunk
Vyj:__ZN6il2cpp6icalls8mscorlib6System6String19InternalAllocateStrEi
fvc:__Z29Transfer_Blittable_ArrayFieldI8JSONRead11QuaternionfEvRT_R9ArrayInfoRK23StaticTransferFieldInfo
afh:__ZL65SoapParameterAttribute_t2780084514_CustomAttributesCacheGeneratorP21CustomAttributesCache
pcc:__Z45Register_UnityEngine_Camera_get_targetDisplayv
e2b:__ZNK24RendererAnimationBinding15GenerateBindingERKN4core12basic_stringIcNS0_20StringStorageDefaultIcEEEEbRN11UnityEngine9Animation14GenericBindingE
Pkb:__Z15GetFlareManagerv
_xi:_Enumerator_System_Collections_IEnumerator_get_Current_m1429268283
y2e:_ReadOnlyCollection_1_System_Collections_Generic_ICollectionU3CTU3E_Clear_m388357963_gshared
OMj:___toread
CY:__ZN19CloudServiceHandler10QueueEventEPN11UnityEngine15CloudWebService14CloudEventInfoE
$Qj:___cxa_is_pointer_type
Y6c:_String_Concat_m56707527
WB:__ZN7mecanim9animation16EvaluateAvatarDXEPKNS0_14AvatarConstantEPKNS0_11AvatarInputEPNS0_12AvatarMemoryEPNS0_15AvatarWorkspaceEPNS0_12AvatarOutputE
sKa:__ZN4gles20DestroyRenderSurfaceEP7ApiGLESP17RenderSurfaceGLES
jEe:_Enumerator_System_Collections_IEnumerator_get_Current_m2853089017_gshared
Uic:__Z34Transform_CUSTOM_SetAsFirstSiblingP12Il2CppObject
ooa:__ZN17PersistentManager40GlobalToLocalSerializedFileIndexInternalERK26SerializedObjectIdentifier
SV:__ZN11UnityEngine15CloudWebService17SessionEventQueue14ParseEventDataERKN4core12basic_stringIcNS2_20StringStorageDefaultIcEEEE
W8c:_BaseEventData_get_selectedObject_m3551206992
yte:_SimpleCollator_CompareOrdinal_m2176988387
nTd:_CCGregorianCalendar_GetYear_m1289900195
Vee:_Int16_ToString_m2592645088
pFa:__ZN13TranslateGLES4InitERK12GraphicsCaps16GfxDeviceLevelGL
LT:__Z60AudioClipPlayable_CUSTOM_INTERNAL_CALL_GetPauseDelayInternalR9HPlayable
eFf:_SerializationInfoEnumerator_Reset_m2206466680
vWj:_emscripten_glGetShaderPrecisionFormat__wrapper
IVi:_GenericEqualityComparer_1_Equals_m1934771410_gshared
fKj:__ZN6il2cpp5utils9Exception26FormatInvalidCastExceptionEPK11Il2CppClassS4_
gBb:__ZNSt3__26vectorIN30RuntimeInitializeOnLoadManager15ClassMethodInfoE13stl_allocatorIS2_L18MemLabelIdentifier12ELi16EEE8__appendEj
l0b:__ZN13ProduceHelperI10TagManagerLb0EE7ProduceE18MemLabelIdentifier18ObjectCreationMode
IKj:__ZN6il2cpp2os6Memory12AlignedAllocEjj
zEj:__ZN6il2cpp8metadataL7CompareEPK10Il2CppTypeS3_
krg:_TypeBuilder_get_is_created_m736553860
vBg:_GameObject_set_layer_m2712461877
jdf:_RSAManaged__ctor_m1370411656
Ynb:__ZN12CubemapArray23VirtualRedirectTransferER17RemapPPtrTransfer
r9b:__ZL27GetComponentsImplementationILb0ELi0EEbR10GameObjectbRK17CompareParametersRK39GetComponentsImplementation_ReturnValue
Z3:__Z21CreateMonoScriptCacheRKN4core12basic_stringIcNS_20StringStorageDefaultIcEEEE17ScriptingClassPtr22InitScriptingCacheTypeP6Objecti
vCb:__ZN9Scripting36IsSystemCollectionsGenericDictionaryE17ScriptingClassPtr
FRh:_Raycast3DCallback_EndInvoke_m3234280377
Hhd:_ColorTweenCallback__ctor_m3619686788
z5:__ZL16ReadTypeTreeImplILb0EEbR8TypeTreeRK16TypeTreeIteratorRPKhS6_i
Lgc:__Z28PlayableOutputValidityChecksRK15HPlayableOutput
Px:__ZN27AnimationLayerMixerPlayable16SetLayerMaskCopyEjRKN7mecanim6bitsetILj70EEEPKNS0_8skeleton12SkeletonMaskE
vH:__Z104Register_UnityEngine_Animations_AnimatorControllerPlayable_INTERNAL_CALL_GetNextAnimatorClipInfoInternalv
Lmb:__ZNK22BuiltinResourceManager21GetResourceInstanceIDEPKN5Unity4TypeERKN4core12basic_stringIcNS4_20StringStorageDefaultIcEEEE
fDa:__ZN9GfxDevice15BeginFrameStatsEv
xdc:__Z42Register_UnityEngine_RectOffset_set_bottomv
sAd:_ArrayListWrapper_IndexOf_m3574835167
IF:__Z92Register_UnityEngine_Animations_AnimationClipPlayable_INTERNAL_CALL_GetAnimationClipInternalv
y_a:__ZN28LightProbeProxyVolumeContext8CopyFromERKS_
NHg:_GUIUtility_TakeCapture_m3115231813
V6a:__ZN23TransformChangeDispatch32QueueTransformChangeIfHasChangedER18TransformHierarchy
s3a:__ZN18DeferredRenderLoop15RenderFinalPassEP13RenderTextureS1_
tKa:__ZN7ApiGLES18DeleteRenderbufferERj
hJa:__ZL23ProgramUniformMatrix4fvPK7ApiGLESjiihPKv
Uza:__ZN7ApiGLES13CreateTextureEjj14GraphicsFormatiiiii
KTb:__ZN9ShaderLab20SerializedSubProgram15MatrixParameter8TransferI14SafeBinaryReadEEvRT_
Hee:_Int32_Parse_m124693431
t9b:__ZL27GetComponentsImplementationILb0ELi1EEbR10GameObjectbRK17CompareParametersRK39GetComponentsImplementation_ReturnValue
CJc:_Round_Down_To_Grid
gMf:_UTF8Decoder__ctor_m1460357288
gka:__ZN13RenderTexture7ReleaseEv
Kwb:__ZN10MeshFilter23VirtualRedirectTransferER14SafeBinaryRead
LGd:_Convert_ToByte_m1201588964
Uwb:__ZN12MeshRenderer17MainThreadCleanupEv
pbc:__Z36AsyncOperation_Get_Custom_PropIsDoneP12Il2CppObject
$Ma:__ZN22CreateGpuProgramOutput12CreateParamsEv
hFa:__ZNK14GfxContextGLES13GetDefaultFBOEv
BWd:_Array_InternalArray__ICollection_Remove_TisSByte_t454417549_m2474211570_gshared
Nga:__ZN14GraphicsHelper5ClearE13GfxClearFlagsRK10ColorRGBAffjR17ShaderPassContext
r6b:__Z13GetImagePixelI10ColorRGBAfET_PKhii13TextureFormat15TextureWrapModeS5_ii
Mdj:_il2cpp_class_is_enum
Vmf:_AuthorityKeyIdentifierExtension_get_Identifier_m3535568551
pma:__ZNSt3__23mapIN9ShaderLab16FastPropertyNameEN18UnityPropertySheet11UnityTexEnvENS_4lessIS2_EENS_9allocatorINS_4pairIKS2_S4_EEEEEixERS9_
Vza:__ZNK13TranslateGLES25GetTextureTargetDimensionEj
M2d:_Array_InternalArray__set_Item_TisByte_t3683104436_m1694926640_gshared
Nyi:_PatternCompiler_EmitInfo_m597931026
Aaf:_ModulusRing_Multiply_m3113924743
kic:__Z47Texture2D_CUSTOM_INTERNAL_CALL_GetPixelBilinearP12Il2CppObjectffR10ColorRGBAf
gOc:__ZZN2UI6Canvas15InitializeClassEvEN39FunctorImpl_1413kCanvasHierarchyChanged4CallEPviR11MessageData
Mi:_emscripten_glVertexAttrib4f
c2e:_ReadOnlyCollection_1_System_Collections_IEnumerable_GetEnumerator_m531171980_gshared
yWb:__ZNSt3__26vectorIN20GpuProgramParameters14ConstantBufferENS_9allocatorIS2_EEE8__appendEj
s5d:_Array_Sort_TisUILineInfo_t3621277874_m3105833015_gshared
Pqe:_MonoType_GetGenericArguments_m2708198481
XHe:_List_1_AddEnumerable_m2489692396_gshared
INi:_WaitForSecondsRealtime__ctor_m1734539010
$w:__ZN7mecanim12statemachine24CreateStateMachineMemoryEPKNS0_20StateMachineConstantERNS_6memory9AllocatorE
SVg:_Enumerator_get_Current_m419581838_AdjustorThunk
kDa:__ZN9GfxDevice18SetGlobalDepthBiasEff
$aj:__ZN6il2cpp6icalls8mscorlib6System8MonoType12get_AssemblyEP20Il2CppReflectionType
Zi:_emscripten_glGetPointerv
LB:__ZN8Animator22ApplyBuiltinRootMotionEv
fWd:_Array_InternalArray__ICollection_Remove_TisKeyValuePair_2_t3716250094_m2566517826_gshared
rtj:__ZN30dense_hashtable_const_iteratorINSt3__24pairIK10KeyWrapperIP14Il2CppIUnknownEjEES5_N6il2cpp5utils11PointerHashIS3_EEN14dense_hash_mapIS5_jSB_NS5_14EqualsComparerINS0_8equal_toIS4_EEEENS0_9allocatorIS7_EEE9SelectKeyESG_SI_EppEv
Xrb:__ZN8Renderer23VirtualRedirectTransferER14SafeBinaryRead
osg:_DerivedType_get_UnderlyingSystemType_m3904230233
GXa:__Z27ConvertSubMeshesToTrianglesR13dynamic_arrayI7SubMeshLj4EERS_ItLj2EE
i3i:__ZN6il2cpp2vmL15GetBitmapNoInitEP11Il2CppClassPjRjj
Xtf:_X509Certificate2Collection__ctor_m819526826
lK:__ZN12AudioManager5ResetEv
bog:__Z75RuntimeInvoker_RuntimeObject_Single_t2076509932_RuntimeObject_RuntimeObjectPFvvEPK10MethodInfoPvPS4_
Nbf:_KeyBuilder_Key_m3814433741
NCe:_ArgumentException__ctor_m158205422
KZd:_Array_compare_TisVector3_t2243707580_m3709184876_gshared
Jmd:_HorizontalLayoutGroup_SetLayoutHorizontal_m3237355818
vB:__ZN7mecanim5human14RetargetToTDoFEPKNS0_5HumanEPNS0_9HumanPoseEPNS_8skeleton13SkeletonPoseTIN4math4trsXEEESB_
bBj:__ZN6il2cpp6icalls8mscorlib6System11Environment20GetWindowsFolderPathEi
UMh:__ZL60AspectRatioFitter_t3114550109_CustomAttributesCacheGeneratorP21CustomAttributesCache
Lv:__ZN7mecanim5human18HumanPoseBlendNodeERNS0_9HumanPoseEPS1_f
sFc:_UNITY_FT_RoundFix
HWb:__ZN9ShaderLab20SerializedSubProgram15AddTextureParamEPKcii16TextureDimension
OQ:__ZNK18AudioMixerPlayable11DerivesFromE17ScriptingClassPtr
OCi:_Uri_get_Parser_m2250631932
Wwb:__ZNK12MeshRenderer22GetTypeVirtualInternalEv
Ebi:_Event_GetHashCode_m2214628668
Mkd:_Graphic_set_color_m646149893
_Nj:_write
Ima:__ZN14SafeBinaryRead19TransferSTLStyleMapINSt3__23mapIN4core12basic_stringIcNS3_20StringStorageDefaultIcEEEES7_NS1_4lessIS7_EE13stl_allocatorINS1_4pairIKS7_S7_EEL18MemLabelIdentifier1ELi16EEEEEEvRT_17TransferMetaFlags
MNc:__ZN2UI6Canvas27UpdateEventIndexesRecursiveERi
YV:__ZN11UnityEngine15CloudWebService16SessionContainer21PrepareDataErrorEventERN4core12basic_stringIcNS2_20StringStorageDefaultIcEEEE
tBc:_UNITY_FT_Outline_New
zMb:__Z19TransferField_ArrayI19StreamedBinaryWriteILb0EE27Converter_SimpleNativeClassI8GUIStyleEEvRK23StaticTransferFieldInfoR31RuntimeSerializationCommandInfoRT0_
q2h:_AnimatorControllerPlayable_CrossFade_m1077061813_AdjustorThunk
aCf:_RemotingServices_RegisterInternalChannels_m1827304423
MFg:_GUIStyle_get_onNormal_m1675201777
zr:__ZL32CleanupAnimationScriptingClassesv
Hsc:__Z35Transfer_Blittable_FixedBufferFieldI8JSONReadiEvRK29SerializationCommandArgumentsR31RuntimeSerializationCommandInfo
eaj:__ZNSt3__213__vector_baseIN6il2cpp2os19SocketHandleWrapperENS_9allocatorIS3_EEED2Ev
KHg:_GUIStyleState_Cleanup_m705006206
W5f:__Z77RuntimeInvoker_RuntimeObject_Int32_t2071877448_RuntimeObject_SByte_t454417549PFvvEPK10MethodInfoPvPS4_
lc:invoke_viiffi
Iv:__ZN7mecanim18ValueArrayBlendEndILb0EEEvPKNS_10ValueArrayERKNS_14ValueArrayMaskERKNS_16ValueArrayWeightERS1_
Fbb:__ZN13sorted_vectorINSt3__24pairIN4core12basic_stringIcNS2_20StringStorageDefaultIcEEEEPK17MessageIdentifierEEN10vector_mapIS6_S9_NS0_4lessIS6_EENS0_9allocatorISA_EEE13value_compareESF_E10insert_oneERKSA_
uNf:_Thread_GetCachedCurrentUICulture_m5590127
PMi:_Vector3_Dot_m3161182818
AUb:__Z14resize_trimmedINSt3__26vectorIN9ShaderLab18SerializedPropertyENS0_9allocatorIS3_EEEEEvRT_j
ARe:_List_1_CheckMatch_m4018158235_gshared
$te:_Context_t2636657155_marshal_pinvoke_back
e8i:__ZN6il2cpp2vm13MetadataCache38GetMethodInfoFromMethodDefinitionIndexEi
Uwd:_Byte_System_IConvertible_ToDateTime_m1583041031
agc:__Z39MonoBehaviour_CUSTOM_GetScriptClassNameP12Il2CppObject
stb:__ZN10VertexData8TransferI24GenerateTypeTreeTransferEEvRT_
xBj:__ZN13Il2CppHashMapIPK19Il2CppGenericMethodP10MethodInfoN6il2cpp8metadata23Il2CppGenericMethodHashENS6_26Il2CppGenericMethodCompareENSt3__29allocatorINS9_4pairIK10KeyWrapperIS2_ES4_EEEEEC2EjRKS7_RKS8_
G4a:__ZL10CullLightsRK22SceneCullingParametersR11CullResults
Sjd:_Dropdown__cctor_m264401557
Vtd:_Array_IndexOf_m2819632474
cxi:_Comparer_1__cctor_m3996541505_gshared
Ww:__ZN7mecanim12statemachine20GetBlendTreeConstantERKNS0_13StateConstantEi
g5b:__Z40GetTemporaryCachePathApplicationSpecificv
tBa:__ZN9GfxDevice16EndAsyncJobFrameEv
nCc:_UNITY_tt_face_load_hhea
kci:_PersistentCall__ctor_m2079279187
jGd:_Convert_ToBase64String_m1936815455
Sk:___syscall3
Vk:___syscall6
Xk:___syscall4
$Od:_Decimal_ToString_m759431975
xfd:_ColorBlock_get_fadeDuration_m987725262
UGf:_CryptographicException__ctor_m2415891459
F9b:__ZN9Scripting25BroadcastScriptingMessageER10GameObjectPKc18ScriptingObjectPtr
ll:_emscripten_glShaderBinary
C7h:_Camera_INTERNAL_CALL_RaycastTry_m1030092423
clf:_SslStreamBase_Dispose_m747909841
Onf:_DictionaryNodeEnumerator_get_DictionaryNode_m3521889822
_t:__ZN7mecanim5human19MaskHasLeftFootGoalERKNS_6bitsetILj70EEE
Big:__Z101RuntimeInvoker_Int32_t2071877448_RuntimeObject_Color32_t874517518_Int32_t2071877448_Int32_t2071877448PFvvEPK10MethodInfoPvPS4_
GKg:_Mesh_get_colors32_m4153271224
hRc:__Z58Register_UnityEngine_Canvas_GetETC1SupportedCanvasMaterialv
MOb:__ZN17AnimationCurveTplIfE8TransferI18StreamedBinaryReadILb1EEEEvRT_
jNd:_DateTimeOffset_GetHashCode_m3312197462_AdjustorThunk
cTc:__ZN18UnityConnectClientD2Ev
cdj:_il2cpp_set_data_dir
JCi:_Uri_get_IsUnc_m2111738174
CIi:_DataUtility_INTERNAL_CALL_GetPadding_m1621366113
nwg:_TypeBuilder_IsValueTypeImpl_m1499671481
nSc:__ZN11UnityEngine15PlatformWrapper30GetGraphicsDriverLibraryStringEv
GTg:_Enumerator_VerifyState_m262343092_AdjustorThunk
cMi:_Vector2_ToString_m775491729
Vcf:_EncryptedPrivateKeyInfo_Decode_m1706190306
RPb:__Z18Transfer_BlittableI18StreamedBinaryReadILb0EELb0E4AABBEvRK29SerializationCommandArgumentsR31RuntimeSerializationCommandInfo
zD:__ZN16MecanimAnimation24DeleteAnimatedPropertiesERP26IAnimatedPropertyEvaluator
qKd:_Convert_ToUInt16_m1665900934
gce:_RegionInfo__ctor_m2058831971
fVa:__Z14DrawGUITextureRK5RectTIfEP7Texture11ColorRGBA32P8Materiali
RWh:_Text_get_supportRichText_m3291105891
TQg:_RectTransform_GetParentSize_m1571597933
yA:__ZN9BlobWrite8TransferI22OffsetPtrArrayTransferIKN4math7_float4EEEEvRT_PKc17TransferMetaFlags
Dja:__ZN15TextureSettings8TransferI24GenerateTypeTreeTransferEEvRT_
Xxi:_MatchCollection_GetEnumerator_m3516985966
tsc:__ZN9JSONWrite8TransferI4AABBEEvRT_PKc17TransferMetaFlags
uJf:_UTF7Encoding__ctor_m2365939916
QQa:__ZN25MultiBlocksMemoryFileData9SetLengthEy
lJi:_TextGenerationSettings_Equals_m3944651893_AdjustorThunk
vai:_DelegatePInvokeWrapper_StateChanged_t2480912210
KPh:_MatEntry__ctor_m3650167335
Dob:__ZNK9Texture2D20GetRuntimeMemorySizeEv
nRf:_TypeInitializationException__ctor_m2993591639
tm:_emscripten_glUniform2iv
gee:_Int16_System_IConvertible_ToInt64_m733340257
$Jg:_Matrix4x4_ToString_m1982554457_AdjustorThunk
Nyc:_UNITY_FT_Outline_Transform
eic:__Z60Register_UnityEngine_Sprites_DataUtility_Internal_GetMinSizev
B3i:__ZN6il2cpp2vm5Class10GetMethodsEP11Il2CppClassPPv
r0a:__Z30AddDefaultStreamsToMeshBuffersR9GfxDeviceR11MeshBuffersRK16DrawBuffersRange17ShaderChannelMaskS6_
N2c:_Hash_GetObjectData_m315532943
YJa:__ZN7ApiGLES17DeleteFramebufferERN2gl6HandleILNS0_10ObjectTypeE9EEES3_
dMa:__ZN15UniformTFMethod13MapBoneBufferEj
ggf:_RecordProtocol_SendAlert_m2816808523
OMc:__ZN2UI14CanvasRendererD2Ev
Gyf:_MethodCall_get_LogicalCallContext_m3769562079
Vpj:__ZN6il2cpp6icalls8mscorlib6System5Array8SetValueEP11Il2CppArrayP12Il2CppObjectS5_
jne:_SynchronizedReader_Read_m1399666181
lyg:_MonoEvent_get_Name_m2796714646
Nfa:__Z9SetupArgviPPKc
scd:_PointerEventData_set_worldNormal_m2025727441
nhf:_Context_get_SentConnectionEnd_m3114190867
Znb:__ZN12CubemapArray23VirtualRedirectTransferER24GenerateTypeTreeTransfer
d6:__ZN12FileAccessor4OpenER15FileSystemEntry14FilePermission16FileAutoBehavior
C3e:_ReadOnlyCollection_1__ctor_m2364452928_gshared
gAj:__ZN6il2cpp2os9Directory6CreateERKNSt3__212basic_stringIcNS2_11char_traitsIcEENS2_9allocatorIcEEEEPi
X2h:_AnimatorControllerPlayable_Play_m1490151611_AdjustorThunk
U6a:__ZN23TransformChangeDispatch32QueueTransformChangeIfHasChangedERK15TransformAccess
Xbd:_PointerEventData_set_clickTime_m3931922487
GX:__ZNSt3__24listIP19CloudServiceHandler13stl_allocatorIS2_L18MemLabelIdentifier86ELi16EEE6removeERKS2_
gae:_NumberFormatter_AppendNonNegativeNumber_m629862866
roa:__ZNSt3__26vectorINS_4pairIN9ShaderLab16FastPropertyNameEN18UnityPropertySheet11UnityTexEnvEEENS_9allocatorIS6_EEE21__push_back_slow_pathIKS6_EEvRT_
Gdi:_ResourceInfo__ctor_m2401359321_AdjustorThunk
BAj:__ZN6il2cpp2os26LibraryNamePrefixAndSuffixC2EPKcS3_
pDd:_Hashtable__ctor_m392789568
YMf:_Mutex_CreateMutex_internal_m2352956576
sLf:_UTF7Encoding__cctor_m4192443836
Q9h:_Component_SendMessage_m2241432133
knc:__Z31GUIStyle_CUSTOM_SetFontInternalP12Il2CppObjectS0_
B:tempValue
sLj:__ZN6il2cpp8metadata24Il2CppGenericContextHash4HashEPK20Il2CppGenericContext
kee:_Int16_System_IConvertible_ToSingle_m3277935657
h2:__Z29scripting_class_from_fullnamePKcS0_S0_
DRh:_Raycast3DCallback_Invoke_m2271859924
ux:__ZN26AnimatorControllerPlayable18DeallocateBindingsEv
b3h:_AnimatorControllerPlayable_HasState_m3003093532
MP:__ZN11AudioSource19CreateOpenALRolloffEfff
aDc:_UNITY_FT_Stream_ReadAt
iSg:_Enumerator_get_CurrentKey_m2387752419_AdjustorThunk
mGg:_GUIStyle_get_lineHeight_m2132859383
IH:__Z87Register_UnityEngine_Animations_AnimatorControllerPlayable_INTERNAL_CALL_GetFloatStringv
p7i:__ZN15dense_hashtableINSt3__24pairIK10KeyWrapperIN6il2cpp5utils13dynamic_arrayIPK10Il2CppTypeLj4EEEEPFvvEEESA_NS3_8metadata19Il2CppSignatureHashEN14dense_hash_mapISA_SD_SG_NSA_14EqualsComparerINSF_22Il2CppSignatureCompareEEENS0_9allocatorISE_EEE9SelectKeyESK_SM_E9set_valueEPSE_RKSE_
Gci:_UnityEvent_FindMethod_Impl_m3303953986
tRf:_UInt16_System_IConvertible_ToBoolean_m887616848
NS:__ZN11AudioModule22CreateAudioClipFromWWWEP10IWWWStreamPKcbbi
iKf:_StringBuilder_set_Length_m3039225444
B_e:_Collection_1_System_Collections_IList_Contains_m3870109702_gshared
JVd:_Array_InternalArray__ICollection_Contains_TisRaycastResult_t21186376_m3188614988_gshared
$Kd:_CultureAwareComparer_GetHashCode_m3681260951
KOc:__Z13RegisterClassIN2UI11CanvasGroupEEvv
HYb:__ZN6prcoreL11inner_clearILj4EEEvPhjjj
vf:_emscripten_glClear
MRh:_Selectable__ctor_m1440593935
TYi:__ZL25UnresolvedVirtualCall_132P12Il2CppObject17Color_t2020392075faaaPK10MethodInfo
eaa:__ZNK8Playable6HandleEv
m4:__ZN14MessageHandler28MessageIDToMessageIdentifierEi
fpf:_HttpRequestCreator_Create_m3607509610
Ptb:__ZNK11SpriteAtlas20GetRuntimeRenderDataEPK6Sprite
QIj:__ZN6il2cpp2vm10WaitHandle19NewManualResetEventEb
ELi:_UISystemProfilerApi_EndSample_m2059427490
V4e:_ReadOnlyCollection_1_System_Collections_IList_Contains_m3707723158_gshared
qVf:_Version_GetHashCode_m880841176
lv:__ZN7mecanim14ValueArrayCopyILb0EEEvPKNS_10ValueArrayEPS1_
qG:__Z51Register_UnityEngine_Animator_get_hasBoundPlayablesv
T0i:_Nullable_1_ToString_m1238126148_AdjustorThunk
Md:emscriptenWebGLGetUniform
Co:FUNCTION_TABLE_iiiiiiiiiii
n6a:__ZL10CleanUpJobP20CullingGroupsJobData
Eyd:_Char_CompareTo_m3044885427_AdjustorThunk
kje:_FileStream_GetSecureFileName_m508045384
yri:_InternalEnumerator_1_System_Collections_IEnumerator_get_Current_m2035754659_AdjustorThunk
Jwb:__ZN10MeshFilter23VirtualRedirectTransferER24GenerateTypeTreeTransfer
YUa:__ZN13RenderManager15BatchModeUpdateEv
Wsb:__ZN14SafeBinaryRead21TransferSTLStyleArrayI13dynamic_arrayI8Vector2fLj4EEEEvRT_17TransferMetaFlags
noa:__ZN17PersistentManager51InstanceIDToLocalSerializedObjectIdentifierInternalEiR31LocalSerializedObjectIdentifier
eIc:_UNITY_FT_Create_Class_cff_services
pd:_glVertexAttribIPointer
QXc:_HMAC_set_HashName_m457235014
_6b:__ZNK6Sprite10GetPaddingE20SpriteRenderDataMode
UUd:_Array_InternalArray__ICollection_Contains_TisTableRange_t2011406615_m605506746_gshared
qYg:_Dictionary_2_Add_m1296007576_gshared
_Jd:_Decimal_op_Explicit_m729046406
cHf:_CryptoConfig_CreateFromName_m2169102076
kld:_Graphic_OnEnable_m2900261811
fHf:_CryptographicUnexpectedOperationException__ctor_m3552441227
oAd:_ArrayListWrapper_Clear_m321161741
kqd:_InputField_LineDownCharacterPosition_m2690468785
$Cc:_UNITY_ft_glyphslot_alloc_bitmap
w5d:_Array_Sort_TisVector2_t2243707579_TisVector2_t2243707579_m2582252549_gshared
tTf:_UInt64_System_IConvertible_ToDouble_m2828923873
q$b:__ZZN2UI13RectTransform15InitializeClassEvEN31FunctorImpl_62kTransformChanged4CallEPviR11MessageData
zNe:_List_1_System_Collections_IList_set_Item_m1129584681_gshared
vEc:_ft_raster1_render
hhc:__Z57Register_UnityEngine_RectTransform_INTERNAL_set_anchorMaxv
tIe:_List_1_set_Capacity_m491101164_gshared
IPj:__ZNKSt3__221__basic_string_commonILb1EE20__throw_length_errorEv
GKf:_StringBuilder_Insert_m1733097906
Wlf:_SslStreamBase_get_HashStrength_m480059173
AWg:_ValueCollection_System_Collections_Generic_ICollectionU3CTValueU3E_Clear_m3271993638_gshared
WFd:_Enumerator_MoveNext_m1419609883
uL:__ZN4FMOD7Channel19setReverbPropertiesEPK29FMOD_REVERB_CHANNELPROPERTIES
M3:__ZN13MonoBehaviour22GetScriptFullClassNameEv
xMi:_Vector2__cctor_m3670745621
ppf:_ServicePointManager_FindServicePoint_m3137356168
Dua:__ZN20SphericalHarmonicsL211AddWeightedERKS_f
Kcd:_PointerInputModule_GetPointerData_m1695674453
j2f:__Z90RuntimeInvoker_Void_t1841601450_RuntimeObject_RuntimeObject_RuntimeObject_SByte_t454417549PFvvEPK10MethodInfoPvPS4_
_Ib:__Z19TransferField_ArrayI17RemapPPtrTransfer27Converter_SimpleNativeClassI8GUIStyleEEvRK23StaticTransferFieldInfoR31RuntimeSerializationCommandInfoRT0_
WKd:_Convert_ToUInt64_m345450801
W0i:_Predicate_1_BeginInvoke_m2559992383_gshared
upc:__ZN9JSONWrite8TransferI10ColorRGBAfEEvRT_PKc17TransferMetaFlags
Eai:_Debug_Log_m920475918
FPe:_List_1_Find_m1270109362_gshared
g4:__Z25scripting_method_get_name18ScriptingMethodPtr
qhc:__Z35Register_UnityEngine_Resources_Loadv
zHb:__Z19TransferField_ArrayI14SafeBinaryRead16Converter_StringEvRK23StaticTransferFieldInfoR31RuntimeSerializationCommandInfoRT0_
cPj:_rename
bHj:_GC_exit_check
fre:_NotSupportedException__ctor_m3232764727
Fof:_TypeConverterAttribute_Equals_m2330345916
w6f:__Z90RuntimeInvoker_Boolean_t3825574718_Int32_t2071877448_Int32U26_t455636984_Int32_t2071877448PFvvEPK10MethodInfoPvPS4_
m$i:_Hacker_Start_m3377866405
Mie:_MonoIO_CreateDirectory_m379525469
pA:__ZN9BlobWrite8TransferI22OffsetPtrArrayTransferI9OffsetPtrIN7mecanim12statemachine18StateMachineMemoryEEEEEvRT_PKc17TransferMetaFlags
CAc:_UNITY_ft_smooth_renderer_class_pic_free
jQe:_List_1_System_Collections_IList_Remove_m3763718607_gshared
cR:__ZN19AudioPlayableOutput22OnConnectionHashChangeEv
S5c:_String_Concat_m2000667605
baj:__ZN6il2cpp2os19SocketHandleWrapperC2ERKS1_
pCj:__ZN6il2cpp2vm6String8NewUtf16EPKDsi
Fzj:__ZN6il2cpp2os10ThreadImpl12QueueUserAPCEPFvPvES2_
VSc:__ZN22BaseUnityConnectClient10QueueEventERN11UnityEngine15CloudWebService17CloudServiceEventEPKcjb
tfg:__Z71RuntimeInvoker_Bounds_t3033363703_RuntimeObject_Matrix4x4U26_t266301477PFvvEPK10MethodInfoPvPS4_
m9d:_ExecuteEvents_GetEventHandler_TisRuntimeObject_m3333041576_gshared
WJc:_UNITY_FT_Hypot
ivd:_BitConverter_ToInt64_m1329623425
Z$b:__ZN8RendererC2E12RendererType18MemLabelIdentifier18ObjectCreationMode
Gdj:_il2cpp_class_is_abstract
Ff:_emscripten_glGetError
ylj:__ZN15dense_hashtableINSt3__24pairIK10KeyWrapperIPK14Il2CppAssemblyEPK22Il2CppMonoAssemblyNameEES6_N6il2cpp5utils11PointerHashIS4_EEN14dense_hash_mapIS6_SA_SF_NS6_14EqualsComparerINS0_8equal_toIS5_EEEENS0_9allocatorISB_EEE9SelectKeyESK_SM_E14squash_deletedEv
hM:__Z14FMOD_FILE_SeekPvjS_
Jyf:_MethodCall_get_Properties_m1893707917
LTg:_ShimEnumerator_get_Entry_m2387156530_gshared
P7i:__ZN14dense_hash_mapI10KeyWrapperIN6il2cpp5utils13dynamic_arrayIPK10Il2CppTypeLj4EEEEPFvvENS1_8metadata19Il2CppSignatureHashENS8_14EqualsComparerINSB_22Il2CppSignatureCompareEEENSt3__29allocatorINSG_4pairIKS8_SA_EEEEEC2EjRKSC_RKSF_
M7a:__ZNK13RenderTexture32CalculateNeedsInvertedProjectionEv
jfb:__ZN10systeminfo18GetOperatingSystemEv
Nf:emscriptenWebGLGet
cQg:_Rect_GetHashCode_m559954498_AdjustorThunk
n6:__Z19CanReplaceComponentRN5Unity9ComponentEPKNS_4TypeEPN4core12basic_stringIcNS5_20StringStorageDefaultIcEEEE
h1b:__ZN12CubemapArray11InitTextureEiii13TextureFormatb
W6i:__ZNSt3__27__sort4IRN6il2cpp5utils11collections13ArrayValueMapIPK10Il2CppType17Il2CppInteropData26InteropDataToTypeConverterNS1_8metadata14Il2CppTypeLessENSA_26Il2CppTypeEqualityComparerEE12SortComparerEPS8_EEjT0_SH_SH_SH_T_
LKg:_Mesh_SetUVs_m841280343
Hsf:_X509Certificate2_get_SignatureAlgorithm_m3069898012
qge:_Int64_System_IConvertible_ToSingle_m1678482180
YGg:_GUIStyle_INTERNAL_CALL_Internal_CalcSizeWithConstraints_m1203344891
YA:__ZN7mecanim5human13HumanFixTwistEPKNS0_5HumanEPNS_8skeleton13SkeletonPoseTIN4math4trsXEEES9_iiRKf
$0a:__ZL24AssignProjectorQueuesJobP30AssignProjectorQueuesJobHeader
MOf:_TimeSpan_get_Hours_m3804628138
uwj:__ZN14dense_hash_mapI10KeyWrapperIP12Il2CppObjectEN6il2cpp2gc9CachedCCWENS4_5utils11PointerHashIS1_EENS3_14EqualsComparerINSt3__28equal_toIS2_EEEENSB_9allocatorINSB_4pairIKS3_S6_EEEEEC2EjRKS9_RKSE_
v7i:__ZN15dense_hashtableINSt3__24pairIK10KeyWrapperIN6il2cpp5utils13dynamic_arrayIPK10Il2CppTypeLj4EEEEPFvvEEESA_NS3_8metadata19Il2CppSignatureHashEN14dense_hash_mapISA_SD_SG_NSA_14EqualsComparerINSF_22Il2CppSignatureCompareEEENS0_9allocatorISE_EEE9SelectKeyESK_SM_E4swapERSP_
EWb:__ZN9ShaderLab20SerializedSubProgram14SetConstBufferEPKci
RCe:_ArgumentNullException__ctor_m911049464
kTi:_Check_Source_m3385315029
$8e:_Comparison_1_Invoke_m345024424_gshared
vGc:_cf2_getStdVW
b6e:_ReadOnlyCollection_1_System_Collections_IList_Insert_m3936197025_gshared
b$:__Z40DebugStringToFilePostprocessedStacktraceRK21DebugStringToFileData
ouc:__Z29Transfer_Blittable_ArrayFieldI8JSONReadjEvRT_R9ArrayInfoRK23StaticTransferFieldInfo
aMg:_Object_GetInstanceID_m1920497914
_qi:_InternalEnumerator_1_get_Current_m314017974_AdjustorThunk
sg:__setLetterbox
ske:_MemoryStream__ctor_m1043059966
IJi:_TextGenerator_Populate_Internal_m1817393161
Lzf:__ZN21InterfaceFuncInvoker3IP12Il2CppObjectP6Type_t28StreamingContext_t1417235061PS1_E6InvokeEjP11Il2CppClassS1_S3_S4_S5_
Dvb:__ZNSt3__26vectorI17BlendShapeChannelNS_9allocatorIS1_EEE6assignINS_11__wrap_iterIPS1_EEEENS_9enable_ifIXaasr21__is_forward_iteratorIT_EE5valuesr16is_constructibleIS1_NS_15iterator_traitsISA_E9referenceEEE5valueEvE4typeESA_SA_
trd:_LayoutElement_set_preferredWidth_m3072758716
qrf:_AsnEncodedData_ToString_m724151831
wVa:__ZN11TimeManager11GetRealtimeEv
$Vc:__ZN20UnityWebRequestProtoI19TransportJavaScript16AtomicRefCounter14RedirectHelper14ResponseHelper15DownloadHandler13UploadHandler12HeaderHelper14AsyncOperationE26Job_ExecuteUnityWebRequestEPS8_
uM:__ZN29AudioEffectInternalDefinitionC2EP26UnityAudioEffectDefinitionb
Zxg:_MonoMethodInfo_GetDeclaringType_m4186531677
IAf:_SoapTypeAttribute_SetReflectionObject_m1566293812
OVi:_Enumerator_System_Collections_IEnumerator_Reset_m2573763156_AdjustorThunk
eCf:_RemotingServices_CreateClientProxy_m1631035355
ZTf:_UInt64_ToString_m2892887310
xva:_stbir_resize
EBj:__ZN15dense_hashtableINSt3__24pairIK10KeyWrapperIPK19Il2CppGenericMethodEP10MethodInfoEES6_N6il2cpp8metadata23Il2CppGenericMethodHashEN14dense_hash_mapIS6_S9_SD_NS6_14EqualsComparerINSC_26Il2CppGenericMethodCompareEEENS0_9allocatorISA_EEE9SelectKeyESH_SJ_EC2ERKSM_j
oQa:__Z37ReadDirectoryInfo_UnityWebAndUnityRawR12FileAccessorRKN20ArchiveStorageHeader6HeaderERNS1_13DirectoryInfoE
O0:__ZNSt3__26__treeINS_12__value_typeIPKciEENS_19__map_value_compareIS3_S4_15compare_tstringIS3_ELb1EEENS_9allocatorIS4_EEE7destroyEPNS_11__tree_nodeIS4_PvEE
N$g:_Dictionary_2_ToTValue_m1381983709_gshared
Zqe:_MulticastDelegate_KPM_m1592985119
m1e:_Collection_1_ConvertItem_m3941916604_gshared
j_a:__ZN20DynamicPropertySheet14SetValueQueuedEN9ShaderLab16FastPropertyNameEN19ShaderPropertySheet12PropertyTypeEjNS2_8SetFlagsE
xNc:__ZN2UI6Canvas26MarkAllNestedCanvasesDirtyEv
Ftj:__ZN6il2cpp2vm12ReboxIfBoxedEP14Il2CppIUnknownP11Il2CppClass
gOe:_List_1__ctor_m2766376432_gshared
zdb:__ZN25PathNamePersistentManagerD2Ev
F2:__ZN17PersistentManager48IntegrateObjectAndUnlockIntegrationMutexInternalEi
qda:__ZZ29InitializeSortingGroupManagerPvEN44PostLateUpdateSortingGroupsUpdateRegistrator7ForwardEv
tp:__ZN6Object12SetHideFlagsENS_9HideFlagsE
yWj:_emscripten_glGetFramebufferAttachmentParameteriv__wrapper
EVa:__ZN13RendererScene15InitializeUmbraEv
G3h:_AnimatorTransitionInfo_IsName_m2561957738_AdjustorThunk
nua:__Z28CalculateGlobalMatrixInverse23TransformAccessReadOnly
yrc:__ZN4PPtrI6ObjectE8TransferI9JSONWriteEEvRT_
g8g:__ZL60SecurityAttribute_t2016950496_CustomAttributesCacheGeneratorP21CustomAttributesCache
tvb:__ZN13dynamic_arrayI12BoneWeights4Lj16EE18resize_initializedEjRKS0_12ResizePolicy
Fcd:_PointerEventData_ToString_m1218584363
ALf:_UTF7Encoding_GetCharCount_m2589913583
J3:__ZN13MonoBehaviour19ReleaseMonoInstanceEv
jle:_MemoryStream_CalculateNewCapacity_m3533542025
qLj:__ZN6il2cpp6icalls8mscorlib6System6Object7GetTypeEP12Il2CppObject
lPf:_TimeSpan_Equals_m4102942751_AdjustorThunk
zWg:_ValueCollection_System_Collections_Generic_ICollectionU3CTValueU3E_Add_m1903672223_gshared
aWc:__ZN12HeaderHelper14SetUnvalidatedERKN4core12basic_stringIcNS0_20StringStorageDefaultIcEEEES6_b
PI:__ZN4FMOD6SoundI7releaseEv
cRa:__ZN10MemoryFile9SetLengthEy
jSf:_UInt16_ToString_m2038947049_AdjustorThunk
G1h:_AnimatorControllerPlayable_GetNextAnimatorClipInfoInternal_m1102604948
gqb:__ZN14SafeBinaryRead21TransferSTLStyleArrayI13dynamic_arrayI7Hash128Lj8EEEEvRT_17TransferMetaFlags
LCb:__Z28scripting_class_is_interface17ScriptingClassPtr
Hh:_glTexStorage2D
sWb:__ZNK9ShaderLab10SubProgram14EnsureCompiledEv
OVf:__Z79RuntimeInvoker_Boolean_t3825574718_RuntimeObject_RuntimeObject_SByte_t454417549PFvvEPK10MethodInfoPvPS4_
AEf:_ObjectManager_RecordFixup_m3572285566
TEd:_SortedList_InitTable_m460350503
Y3:__Z18BuildScriptClassId17ScriptingClassPtr
Sni:_InternalEnumerator_1_get_Current_m4279678504_AdjustorThunk
N1b:__ZN8Renderer28HandleParentHierarchyChangesEPK23TransformAccessReadOnlyj
nfa:__ZL31DeleteLastPathNameComponentImplRKN4core12basic_stringIcNS_20StringStorageDefaultIcEEEEPKc
OZb:__Z13RegisterClassI18DelayedCallManagerEvv
fTc:__ZN18UnityConnectClient15GetCloudServiceEv
mJb:__Z18Transfer_BlittableI24GenerateTypeTreeTransferLb0EiEvRK29SerializationCommandArgumentsR31RuntimeSerializationCommandInfo
FCb:__ZL28SerializationCommandGroupForRK31TransferFunctionScriptingTraits17ScriptingClassPtr17ScriptingFieldPtrRK20CoreScriptingClasses
Eib:__ZN10TagManager32RegisterDefaultTagsAndLayerMasksEv
LNg:_PlayableHandle_SetDuration_m1990009798_AdjustorThunk
C8i:__ZN15dense_hashtableINSt3__24pairIK10KeyWrapperIPKcEP11Il2CppClassEES5_N6il2cpp5utils11StringUtils12StringHasherIS4_EEN14dense_hash_mapIS5_S8_SE_NS5_14EqualsComparerINSB_13VmStringUtils21CaseSensitiveComparerEEENS0_9allocatorIS9_EEE9SelectKeyESJ_SL_E15insert_noresizeERKS9_
hNf:_SynchronizationLockException__ctor_m549086841
Mzd:_ArrayList_InsertRange_m1478230997
oFa:__ZN4gles8InitCapsEP7ApiGLESP12GraphicsCapsR16GfxDeviceLevelGL
bpa:__ZN6prcore14BlitImageFloatERK14ImageReferenceRS0_NS0_8BlitModeE
Hwa:__Z24CalculateVertexLightDataRK15SharedLightDataR14GfxVertexLight
WJg:_Matrix4x4_Equals_m1321236479_AdjustorThunk
pi:_glEnable
msa:__ZN15dense_hashtableINSt3__24pairIKiiEEi21InstanceIDHashFunctorN14dense_hash_mapIiiS4_NS0_8equal_toIiEE13stl_allocatorIS3_L18MemLabelIdentifier1ELi16EEE9SelectKeyES7_SA_E12maybe_shrinkEv
iYa:__ZNK25CameraStackRenderingState21GetImageEffectTextureEb
zFf:_RuntimeMethodHandle__ctor_m2437574937_AdjustorThunk
iqc:__Z35Transfer_Blittable_FixedBufferFieldI9JSONWriteiEvRK29SerializationCommandArgumentsR31RuntimeSerializationCommandInfo
KRf:_UInt16_System_IConvertible_ToInt64_m2835280558_AdjustorThunk
Cph:__ZL53g_UnityEngine_Assembly_CustomAttributesCacheGeneratorP21CustomAttributesCache
_Ni:_Predicate_1_BeginInvoke_m3926587117_gshared
nAb:__ZNSt3__26vectorI4PPtrI6ObjectE13stl_allocatorIS3_L18MemLabelIdentifier51ELi16EEE6assignINS_11__wrap_iterIPS3_EEEENS_9enable_ifIXaasr21__is_forward_iteratorIT_EE5valuesr16is_constructibleIS3_NS_15iterator_traitsISD_E9referenceEEE5valueEvE4typeESD_SD_
mx:__ZN26AnimatorControllerPlayable17ProcessRootMotionEP35AnimationPlayableEvaluationConstantP32AnimationPlayableEvaluationInputP33AnimationPlayableEvaluationOutput
mLe:_List_1_get_Item_m1231764300_gshared
eWf:__Z94RuntimeInvoker_Boolean_t3825574718_Int32_t2071877448_SByte_t454417549_ExceptionU26_t1467204777PFvvEPK10MethodInfoPvPS4_
vid:_DefaultControls_CreateToggle_m1568873127
x$g:_Dictionary_2_InitArrays_m2270022740_gshared
PRc:__ZN11UnityEngine7Connect15DeviceInfoEvent16CollectExtraInfoEv
RKf:_UnicodeEncoding_GetChars_m3765282346
ehe:_IntPtr__ctor_m4104029105
ksi:_InternalEnumerator_1_System_Collections_IEnumerator_get_Current_m771161214_AdjustorThunk
Xpe:_MonoType_get_attributes_m1493788675
TIj:__ZN6il2cpp6icalls8mscorlib6System10Reflection9FieldInfo25internal_from_handle_typeE12Il2CppIntPtrS5_
TId:_Convert_ToDouble_m4236754739
Ljd:_Dropdown_CreateItem_m2702141380
C9g:__ZL48Stack_t1043988394_CustomAttributesCacheGeneratorP21CustomAttributesCache
Ho:FUNCTION_TABLE_viifi
Io:FUNCTION_TABLE_viiff
eU:__Z75AudioPlayableGraphExtensions_CUSTOM_INTERNAL_CALL_InternalCreateAudioOutputR14HPlayableGraphP12Il2CppStringP15HPlayableOutput
iyg:_MonoEvent_GetAddMethod_m4289563120
I7g:__ZL37Type_t_CustomAttributesCacheGeneratorP21CustomAttributesCache
jKc:_UNITY_tt_face_free_hdmx
gfj:__ZN6il2cpp2vm14TypeNameParser5ParseEb
rRh:_ReflectionMethodsCache__ctor_m1835220
lVc:__ZN23UnityPurchasingSettingsC2Ev
fRd:_Double_ToString_m1864290157
vuj:__ZNK24NamespaceAndNamePairHashclERKNSt3__24pairIPKcS3_EE
Dva:__ZL37stbir__resample_horizontal_downsampleP11stbir__infoiPf
Ksa:__ZNK5Unity9Component38MarkGameObjectAndComponentDependenciesER27GarbageCollectorThreadState
q$:__ZL16OutOfMemoryErrorjj18MemLabelIdentifieriPKc
hgf:_RecordProtocol_SendRecord_m132002114
x4:__ZNK11TypeManager15ClassNameToRTTIEPKcb
CQb:__Z18Transfer_BlittableI18StreamedBinaryReadILb0EELb1EdEvRK29SerializationCommandArgumentsR31RuntimeSerializationCommandInfo
ade:_Guid__ctor_m2599802704
Kje:_FileStream_get_CanRead_m4148920720
THa:__ZN4crnd12symbol_codec32decode_receive_static_data_modelERNS_25static_huffman_data_modelE
l$b:__ZN18ScriptingArguments8AddFloatEf
vbe:_GregorianCalendar_set_CalendarType_m2438362222
UVd:_Array_InternalArray__ICollection_Contains_TisVector2_t2243707579_m3625698589_gshared
arc:__Z18Transfer_BlittableI9JSONWriteLb0EaEvRK29SerializationCommandArgumentsR31RuntimeSerializationCommandInfo
sV:__ZN11UnityEngine15CloudWebService14DataDispatcher34OnSessionContainerArchivedAndReadyERNS0_16SessionContainerE
ece:_NumberFormatInfo_GetFormat_m3247563525
uLb:__Z18Transfer_BlittableI19StreamedBinaryWriteILb0EELb0E8Vector3fEvRK29SerializationCommandArgumentsR31RuntimeSerializationCommandInfo
qCg:_RectOffset__ctor_m2227510254
DSb:__ZN14SafeBinaryRead19TransferSTLStyleMapINSt3__23mapIN4core12basic_stringIcNS3_20StringStorageDefaultIcEEEEiNS1_4lessIS7_EENS1_9allocatorINS1_4pairIKS7_iEEEEEEEEvRT_17TransferMetaFlags
SBc:_gray_move_to
gIf:_DSAParameters_t1872138834_marshal_pinvoke
jji:_ConstructionCall_InitDictionary_m4046452035
kkj:__ZN6il2cpp2vm10Reflection14GetEventObjectEP11Il2CppClassPK9EventInfo
qgf:_TlsStream_Write_m2271546135
X8b:__Z30RegisterValidateMethodCallbackiPF18ScriptingMethodPtrS_17ScriptingClassPtrP6ObjectEPKc
dUd:_CultureInfo_ConstructInternalLocaleFromCurrentLocale_m1342751405
WJf:_Latin1Encoding_GetString_m3553289597
oDc:_tt_cmap_init
Ja:invoke_viidi
cwj:__ZN15dense_hashtableI10KeyWrapperIP18Il2CppGenericClassES3_N6il2cpp8metadata22Il2CppGenericClassHashEN14dense_hash_setIS3_S6_NS3_14EqualsComparerINS5_25Il2CppGenericClassCompareEEENSt3__29allocatorIS3_EEE8IdentityESA_SD_E12maybe_shrinkEv
R_b:__ZN9TextAssetC2E18MemLabelIdentifier18ObjectCreationMode
bbi:_Display_RecreateDisplayList_m3412638488
c0j:_emscripten_glCheckFramebufferStatus__wrapper
Uoj:__ZNK15dense_hashtableINSt3__24pairIK10KeyWrapperIP11Il2CppClassES4_EES5_N6il2cpp8metadata16SZArrayClassHashEN14dense_hash_mapIS5_S4_SA_NS5_14EqualsComparerINS9_19SZArrayClassCompareEEENS0_9allocatorIS7_EEE9SelectKeyESE_SG_E12test_deletedEj
Itc:__Z18Transfer_BlittableI8JSONReadLb0EdEvRK29SerializationCommandArgumentsR31RuntimeSerializationCommandInfo
phg:__Z83RuntimeInvoker_Boolean_t3825574718_NavigationU26_t3929175072_Navigation_t1571958496PFvvEPK10MethodInfoPvPS4_
BNf:_Thread_ClrState_m822263449
Mte:_SimpleCollator_LastIndexOfOrdinalIgnoreCase_m550798345
paj:__ZN6il2cpp2vm21ThreadPoolCompartment13QueueWorkItemEP17Il2CppAsyncResult
NAa:__ZNK9GfxDevice13GetViewMatrixEv
Wsa:__ZN17RemapPPtrTransferC2E24TransferInstructionFlagsb
s5:__ZN8TypeTree8BlobReadERPKhS1_ib
SYg:_Dictionary_2_System_Collections_Generic_ICollectionU3CSystem_Collections_Generic_KeyValuePairU3CTKeyU2CTValueU3EU3E_Remove_m3080541539_gshared
fta:__ZN18LoadSceneOperation23GetAllowSceneActivationEv
Bjb:__ZN6CameraD0Ev
lve:_ModulusRing_Multiply_m386339435
xba:__ZN31CanvasBatchIntermediateRenderer16StaticInitializeEPv
bmd:_GraphicRaycaster_U3CRaycastU3Em__0_m3971200721
v4e:_ReadOnlyCollection_1_System_Collections_IList_RemoveAt_m3004588099_gshared
yw:__ZN7mecanim12AndValueMaskILb0EEEvPKNS_14ValueArrayMaskEPS1_
zId:_Decimal_op_Implicit_m4246329390
TCe:_ArgumentNullException__ctor_m2252076819
j9a:__ZN10GameObjectC2E18MemLabelIdentifier18ObjectCreationMode
UAc:_raccess_guess_apple_double
_pe:_MonoType_GetAttributeFlagsImpl_m250699879
YDf:_SerializationInfo__ctor_m4016423422
PIa:__ZL18ProgramUniform1uivPK7ApiGLESjiihPKv
s1b:__ZN14Texture2DArray13RebuildMipMapEv
w4i:__ZN13Il2CppHashSetIPK17Il2CppGenericInstN6il2cpp8metadata21Il2CppGenericInstHashENS4_24Il2CppGenericInstCompareENSt3__29allocatorI10KeyWrapperIS2_EEEEC2EjRKS5_RKS6_
OAj:__ZN6il2cpp2gc16GarbageCollector14RemoveWeakLinkEPPv
FWb:__ZN9ShaderLab20SerializedSubProgram14AddVectorParamEPKcii15ShaderParamTypei
c7e:_ReadOnlyCollection_1_System_Collections_IEnumerable_GetEnumerator_m1734360860_gshared
Sdi:_ResourceSet_ReadResources_m1669023823
aBe:_PKCS12_RemoveCertificate_m1590055870
Gpj:__ZN6il2cpp2vm6Thread7SetNameEP12Il2CppThreadP12Il2CppString
zga:__ZN13ScreenManager18SetAllowCursorLockEb
MW:__ZN11UnityEngine15CloudWebService10RestClientINS0_23WebRequestRestHeaderMapEE16SetRequestHeaderERKN4core12basic_stringIcNS4_20StringStorageDefaultIcEEEESA_
dBb:__ZN30RuntimeInitializeOnLoadManager15ClassMethodInfo8TransferI14SafeBinaryReadEEvRT_
aNh:__ZL73CanvasScaler_t2574720772_CustomAttributesCacheGenerator_m_ScreenMatchModeP21CustomAttributesCache
kT:__ZL22InitializeModule_Audiov
veb:__ZN16MemoryFileSystem8IsLockedERK13FileEntryData
_Li:_Vector2_get_Item_m2792130561_AdjustorThunk
Rxg:_MonoCMethod_Invoke_m931478014
EXf:__Z86RuntimeInvoker_Int32_t2071877448_Int16_t4041245914_Int32_t2071877448_Int32_t2071877448PFvvEPK10MethodInfoPvPS4_
Zdi:_SatelliteContractVersionAttribute__ctor_m2605651717
Yk:_emscripten_glBindRenderbuffer
Ymc:__Z32GUIStyle_Set_Custom_PropClippingP12Il2CppObjecti
YGj:_GC_dirty_init
Rtd:_Array_Copy_m1969461849
qDf:_MessageFormatter_ReadMethodResponse_m4134629501
Bxj:__ZN6il2cpp2vm5Field14GetValueObjectEP9FieldInfoP12Il2CppObject
zOc:__ZNK2UI6Canvas16GetTargetDisplayEv
nSd:_Environment_get_OSVersion_m1247315981
g9:__ZN6Object17FindObjectsOfTypeEPKN5Unity4TypeER13dynamic_arrayIPS_Lj4EEb
cCb:__ZN13MonoBehaviour17RemoveFromManagerEv
akb:__ZN12ImageFilters14AddImageFilterERK11ImageFilter
Gsb:__ZL11DecodeValuePPKcS0_
kUg:_ShimEnumerator_MoveNext_m2013866013_gshared
c_:__ZN13MemoryManagerC2Ev
MLa:__ZN12SkinMeshInfo10DeallocateEPS_
fLi:_Transform_SetParent_m1963830867
pTa:__ZN20ArchiveStorageReader28AcquireAndPrefillUnusedBlockEjPNS_11CacheResultE
l1b:__Z12NHxRoughnessIA4_tEvP9Texture2DPT_iiii
H9:__ZN18AsyncUploadManagerD2Ev
tYb:__ZN9Transform5ResetEv
fLb:__Z22TransferField_NonArrayI24GenerateTypeTreeTransfer16Converter_StringEvRK23StaticTransferFieldInfoR31RuntimeSerializationCommandInfoRT0_
fDc:_UNITY_FT_CMap_New
pga:__Z17MainLoopKeepalivePv
Pxi:_MatchCollection__ctor_m1944681790
tYc:_HMACSHA512__ctor_m1667460019
f6a:__Z24ScheduleCullingAllGroupsR8JobFenceRK22SceneCullingParameters4PPtrI6CameraERK13CullingOutputRK13dynamic_arrayIP12CullingGroupLj4EERKS_
ZMj:_printf_core
Oqe:_MonoType_ToString_m473949831
r5a:__Z14CalcHullBoundsPK8Vector3fPKhhRK5PlaneRK10Matrix4x4fR10MinMaxAABB
qBf:_RealProxy__ctor_m2147093603
vQ:__ZNK14SoundHandleAPI12GetFrequencyEv
e_a:__Z19SetupLODFadeKeywordR17ShaderPassContexti
CFj:_GC_set_fl_marks
fLa:__ZL25CheckCopyTextureArgumentsRK7ApiGLESP11GLESTextureS3_
A9:__ZN13dynamic_arrayI26EnlightenSystemInformationLj8EE6insertEPS0_PKS0_S4_
LCc:_tt_name_entry_ascii_from_utf16
$qe:_MulticastNotSupportedException__ctor_m2164514827
uLd:_DateTime_System_IConvertible_ToChar_m2489529194_AdjustorThunk
KKb:__Z29Transfer_Blittable_ArrayFieldI24GenerateTypeTreeTransferyEvRT_R9ArrayInfoRK23StaticTransferFieldInfo
ML:__ZN4FMOD7SystemI9playSoundE17FMOD_CHANNELINDEXPNS_5SoundEbPPNS_7ChannelE
D4h:_AttributeHelperEngine_GetRequiredComponents_m120894667
HZ:__GLOBAL__sub_I_runtime_graphics_mesh2_lump_cpp
fRg:_RectTransformUtility_PixelAdjustRect_m93024038
xw:__ZN27AnimationLayerMixerPlayable17LayerMixerProcessEP35AnimationPlayableEvaluationConstantP32AnimationPlayableEvaluationInputP33AnimationPlayableEvaluationOutputM17AnimationPlayableFvS1_S3_S5_EMS_FvS1_S3_S5_ESA_MS_FvS5_S1_S3_S5_ifE
dfj:__ZN6il2cpp2os4File4ReadEPNS0_10FileHandleEPciPi
oK:__ZN12AudioManager23VirtualRedirectTransferER18StreamedBinaryReadILb0EE
sPj:_realloc
$ic:__Z57Register_UnityEngine_Transform_INTERNAL_get_localRotationv
bQf:_Type_get_IsInterface_m3583817465
qTj:dynCall_viif
Byg:_MonoField_get_DeclaringType_m1591666235
Wxf:_Enumerator_MoveNext_m4234629003
wHc:_cf2_hint_lock
yIb:__ZL26Transfer_SimpleNativeClassI17RemapPPtrTransfer8GradientLb0EEvRK29SerializationCommandArgumentsR31RuntimeSerializationCommandInfo
eig:__Z59RuntimeInvoker_Boolean_t3825574718_RaycastHit2D_t4063908774PFvvEPK10MethodInfoPvPS4_
Ype:_MonoType_GetDefaultConstructor_m925465120
PQf:_Type_IsArrayImpl_m3073208555
uX:__ZN13UploadHandlerD2Ev
IRj:dynCall_viiiiiffi
Hc:_emscripten_glBlendFuncSeparate
Q1:__Z20scripting_string_newPKc
whc:__Z43Material_CUSTOM_Internal_CreateWithMaterialP12Il2CppObjectS0_
Fie:_Directory_GetCurrentDirectory_m44486537
bUe:_Collection_1_System_Collections_ICollection_CopyTo_m1047946700_gshared
GB:__ZNSt3__26__sortIRPFbPKN8Animator11AnimatorJobES4_EPS4_EEvT0_S9_T_
EJ:__ZN17AudioCustomFilterD2Ev
UH:__Z91Register_UnityEngine_Animations_AnimatorControllerPlayable_INTERNAL_CALL_ResetTriggerStringv
Blc:__ZNK8GUIStyle13GetLineHeightEv
pKa:__ZN18GfxFramebufferGLES18ReleaseFramebufferEP17RenderSurfaceBaseP14GfxContextGLES
shi:_Context_GetDynamicPropertyCollection_m1987747444
Ksf:_X509Certificate2_get_Version_m1927399907
j3b:__ZN13ProduceHelperI6CameraLb0EE7ProduceE18MemLabelIdentifier18ObjectCreationMode
Jnd:_Image_RadialCut_m3229543088
SY:__ZN19CloudServiceHandler34HandleSaveFileWebRequestPlayerLoopEv
Ox:__ZN7mecanim21ValueArrayReverseCopyEPKNS_18ValueArrayConstantEPKNS_10ValueArrayES2_PS3_PKi
pJ:__Z31GetParentSampleClipFromInstancePN11SoundHandle8InstanceE
s$b:__ZNK28RectTransformPropertyBinding13GetFloatValueERKN11UnityEngine9Animation10BoundCurveE
h8a:__ZN6Camera22StandaloneCustomRenderENS_10RenderFlagEP6ShaderRKN4core12basic_stringIcNS3_20StringStorageDefaultIcEEEEPNS_21PerformRenderFunctionE
NLj:__ZN6il2cpp2os16ThreadLocalValue8GetValueEPPv
J8i:__ZN6il2cpp2vm13MetadataCache14GetGenericInstEPKPK10Il2CppTypej
T$c:_SHA384Managed_Initialize_m712692291
Ufi:_ChannelInfo__ctor_m2502026239
Rb:invoke_iiidii
rjc:__Z52Object_CUSTOM_GetOffsetOfInstanceIDInCPlusPlusObjectv
mp:setThrew
d1b:__ZL21BuildEmptyCubeTexturePKci11ColorRGBA3217TextureColorSpace
GSb:__ZN14SafeBinaryRead21TransferSTLStyleArrayINSt3__26vectorIN9ShaderLab20SerializedSubProgramENS1_9allocatorIS4_EEEEEEvRT_17TransferMetaFlags
Psc:__Z15Transfer_StringI8JSONReadLb1EEvRK29SerializationCommandArgumentsR31RuntimeSerializationCommandInfo
xqa:__ZN6prcoreL17RemapGenericFloatI17TexFormatRGBFloat15TexFormatRGHalfEEvPKNS_9InnerInfoE
w$a:__Z25DoForwardShaderRenderLoopR17RenderLoopContextR13dynamic_arrayI16RenderObjectDataLj4EERK11CullResultsbbbN6Camera10RenderFlagE
D8d:_GameObject_GetComponent_TisRuntimeObject_m2812611596_gshared
jCc:_sfnt_load_face
jAe:_PKCS12_GetSymmetricAlgorithm_m1812022677
QLf:_UTF8Encoding_GetByteCount_m2372933408
phi:_Context_get_NeedsContextSink_m1907794755
aCc:_UNITY_ft_service_list_lookup
Mbf:_ARC4Managed_GenerateKey_m716135508
elc:__ZN5IMGUI21SelectReceivingWindowER8GUIStateb
$E:__ZNK26AnimatorControllerPlayable17ValidateGoToStateERiS0_
Rri:_InternalEnumerator_1_get_Current_m3179981210_gshared
Nfb:__ZN13BaseAllocator13TryDeallocateEPv
Btd:_Array_CreateInstance_m1054139389
pEg:_GUIStyleState_GetGUIStyleState_m2816150617
jkb:__ZNSt3__26vectorIN12FlareManager10FlareEntryENS_9allocatorIS2_EEE21__push_back_slow_pathIKS2_EEvRT_
bqg:_Default_check_arguments_with_score_m1714931543
tXc:_SHA1_Create_m4086509717
kzg:_MonoMethodInfo_GetMethodInfo_m3298558752
$J:__ZN13AudioListener17RemoveFromManagerEv
Bd:_glAttachShader
Pjd:_Dropdown_SetAlpha_m2769981009
_Ya:__ZNK6Camera19GetProjectionMatrixEv
g1i:_Predicate_1_BeginInvoke_m1856151290_gshared
fQd:_StackTrace__ctor_m2404985356
G3:__Z38PreallocateObjectFromPersistentManagerib
ILd:_DateTime_System_IConvertible_ToSingle_m3927769066
JZ:__GLOBAL__sub_I_runtime_interfaces_lump_cpp
Kob:__ZNK9Texture2D20GetUnscaledTextureIDEv
TJd:_Convert_ToSByte_m883113940
fZj:_glFenceSync__wrapper
KSd:_Exception_get_Message_m173095527
XH:__Z103Register_UnityEngine_Animations_AnimatorControllerPlayable_INTERNAL_CALL_IsParameterControlledByCurveIDv
sTe:_Queue_1_Peek_m1463479953_gshared
i5h:_AudioClipPlayable_INTERNAL_CALL_GetStartDelayInternal_m3715907549
zKh:__ZL53InputField_t1631627530_CustomAttributesCacheGeneratorP21CustomAttributesCache
ofd:_ButtonClickedEvent__ctor_m938038541
sRb:__ZN18StreamedBinaryReadILb0EE21TransferSTLStyleArrayI13dynamic_arrayI4AABBLj4EEEEvRT_17TransferMetaFlags
K2f:__Z119RuntimeInvoker_Int32_t2071877448_RuntimeObject_Int32_t2071877448_Int32_t2071877448_CharU26_t1894467670_SByte_t454417549PFvvEPK10MethodInfoPvPS4_
ERf:_UInt16_System_IConvertible_ToDouble_m4100549304_AdjustorThunk
Jta:__Z29ClearRepeatingLogMessageStatev
x4c:_Single_System_IConvertible_ToInt16_m962677079
W8:__ZN21EnlightenSceneMappingaSERKS_
dMj:__ZNK6il2cpp8metadata21Il2CppGenericInstHashclEPK17Il2CppGenericInst
L4c:_Single_System_IConvertible_ToUInt32_m2447833283
ePa:__ZN7ApiGLESD2Ev
U9a:__ZN9Transform47ClearTransformHierarchyAndApplyToSerializedDataEv
mqi:_InternalEnumerator_1_get_Current_m4083613828_AdjustorThunk
_6h:_Bounds_op_Equality_m2161830280
Fdb:__ZN17PersistentManager9AddStreamEv
JTj:dynCall_fidi
phj:__ZN15dense_hashtableINSt3__24pairIK10KeyWrapperINS1_IPK9FieldInfoP11Il2CppClassEEEjEES9_17ReflectionMapHashIS8_EN14dense_hash_mapIS9_jSD_NS9_14EqualsComparerINS0_8equal_toIS8_EEEENS0_9allocatorISB_EEE9SelectKeyESI_SK_E12resize_deltaEjj
Xnc:__Z47Register_UnityEngine_GUIStyle_set_imagePositionv
ync:__Z49GUIStyle_CUSTOM_INTERNAL_CALL_Internal_DrawCursor13Il2Cpp_IntPtrRK5RectTIfEP12Il2CppObjectiRK10ColorRGBAf
rQg:_RectTransform_set_anchorMin_m4247668187
S8b:__ZNK13MonoBehaviour13GetScriptTypeEv
ria:__ZN13RenderTexture12SetDimensionE16TextureDimension
CHi:_ScriptableObject_CreateInstance_m3921674852
qe:_SDL_FreeRW
Aye:_PKCS1_OS2IP_m1273945439
t$c:_SHA1Internal_FillBuff_m891541953
SPc:__Z34CanvasRenderer_Get_Custom_PropCullP12Il2CppObject
BP:__ZN20SoundChannelInstance8getDelayE14FMOD_DELAYTYPEPjS1_
Ood:_InputField_set_customCaretColor_m3534590098
oTh:_ScrollRect_set_viewport_m323693490
Cae:_NumberFormatter_FormatExponential_m3975285307
yxc:__ZNSt3__26vectorIN20TextRenderingPrivate8FontImpl13CharacterInfoE13stl_allocatorIS3_L18MemLabelIdentifier1ELi16EEE8__appendEj
v:tempBigInt
ye:_emscripten_glVertexAttrib1fv
kTb:__ZNSt3__26vectorIN9ShaderLab20SerializedSubProgram12UAVParameterENS_9allocatorIS3_EEE7reserveEj
CYh:_AnimationCurve_Init_m1486386337
I9h:_Component_GetComponents_m3712441745
pjh:__ZL99Thread_t241561612_CustomAttributesCacheGenerator_Thread_t241561612____ExecutionContext_PropertyInfoP21CustomAttributesCache
kQi:_UnityAction_4_Invoke_m3312096275_gshared
YQg:_RectTransformUtility_ScreenPointToRay_m1842507230
v7a:__ZN16ReflectionProbes16UpdateSampleDataEv
gEb:__ZN14SafeBinaryRead21TransferSTLStyleArrayI10vector_setI4PPtrI10MonoScriptENSt3__24lessIS4_EE13stl_allocatorIS4_L18MemLabelIdentifier76ELi16EEEEEvRT_17TransferMetaFlags
lfi:_SafeHandle_Finalize_m1839546519
uuc:__ZN8JSONRead21TransferSTLStyleArrayINSt3__26vectorI10RectOffset13stl_allocatorIS3_L18MemLabelIdentifier1ELi16EEEEEEvRT_S5_17TransferMetaFlags
_hi:_Context_AllocateNamedDataSlot_m3200404053
Irf:_X509EnhancedKeyUsageExtension_Decode_m3866320499
yae:_NumberFormatter_AppendIntegerStringWithGroupSeparator_m1401773574
Ve:_JS_Sound_Play
Ynd:_Image_IsRaycastLocationValid_m864962354
T_f:__Z181RuntimeInvoker_Void_t1841601450_RuntimeObject_Int32_t2071877448_Int32_t2071877448_RuntimeObject_Int32_t2071877448_Int32_t2071877448_RuntimeObject_Int32_t2071877448_Int32_t2071877448PFvvEPK10MethodInfoPvPS4_
hSb:__ZN9ShaderLab16SerializedShader8TransferI14SafeBinaryReadEEvRT_
_A:__ZN7mecanim8skeleton13SkeletonAlignEPKNS0_8SkeletonERKN4math7_float4ES7_i
Y1b:__ZN19ShaderPropertySheet16SetVectorIndexedEN9ShaderLab16FastPropertyNameEifRK8Vector4fNS_8SetFlagsE
Fq:__ZN14SafeBinaryRead21TransferSTLStyleArrayIN4core12basic_stringIcNS1_20StringStorageDefaultIcEEEEEEvRT_17TransferMetaFlags
MBf:_RemotingConfiguration_RegisterWellKnownServiceType_m2491506630
$dh:__ZL55_TypeBuilder_t2783404358_CustomAttributesCacheGeneratorP21CustomAttributesCache
tMe:_List_1_System_Collections_IList_IndexOf_m4061554721_gshared
zY:__ZN11UnityEngine15CloudWebService14DataDispatcher4StopEv
ZZh:_AnimationLayerMixerPlayable_SetLayerAdditive_m4206337590_AdjustorThunk
mTb:__ZNSt3__26vectorIN9ShaderLab20SerializedSubProgram12UAVParameterENS_9allocatorIS3_EEE8__appendEj
B1c:_X509Certificate_ToString_m1582581274
aWg:_Enumerator_get_Current_m2986380627_gshared
bla:__ZN17ScriptingGCHandle7AcquireE18ScriptingObjectPtr25ScriptingGCHandleWeakness
$gi:_LifetimeServices_set_LeaseTime_m1487876644
nrg:_ConstructorBuilder_not_supported_m3687319507
wT:__ZN19AudioPlayableOutputC2EjP13PlayableGraph
C4c:_Single_System_IConvertible_ToInt64_m3555853323_AdjustorThunk
zSj:dynCall_iifiii
nva:__Z21HasAlphaTextureFormat13TextureFormat
tS:__ZN12AudioManager6UpdateEv
iva:__ZN14ImageReference9BlitImageERKS_NS_8BlitModeE
zs:__ZN8Animator12AddToManagerEv
_Cb:__ZN23CachedSerializationDataD2Ev
$6a:__ZNK25CameraStackRenderingState31CalculateStereoCameraTargetTypeEv
ymb:__ZN14RenderSettings23VirtualRedirectTransferER14SafeBinaryRead
Nzj:__ZN6il2cpp2os10ThreadImpl15CurrentThreadIdEv
IVd:_Array_InternalArray__ICollection_Contains_TisColor32_t874517518_m2818328910_gshared
oKc:_UNITY_tt_face_load_fpgm
Lxb:__ZN12InputManagerD0Ev
YJj:__ZN6il2cpp6icalls8mscorlib6System11Diagnostics10StackTrace9get_traceEP15Il2CppExceptionib
hid:_DefaultControls_CreateUIObject_m2810394112
aGg:_GUIStyle_get_overflow_m1125058093
Iua:__ZNK16LightmapSettings14GetLightProbesEv
LKf:_UnicodeEncoding_GetBytes_m1337660232
_Pb:__Z18Transfer_BlittableI18StreamedBinaryReadILb0EELb1EtEvRK29SerializationCommandArgumentsR31RuntimeSerializationCommandInfo
xPj:_posix_memalign
m2b:__ZN13ProduceHelperI12MeshRendererLb0EE7ProduceE18MemLabelIdentifier18ObjectCreationMode
mvi:_InternalEnumerator_1_get_Current_m747506907_AdjustorThunk
k7h:_Camera_get_eventMask_m4241372419
L4:__ZNK15MonoScriptCache7ReleaseEv
l3i:__ZN6il2cpp2vm5Class13HasReferencesEP11Il2CppClass
ig:_glBindTexture
NNj:_snprintf
vpd:_InputField_set_caretPosition_m888572237
Eug:_ILGenerator__cctor_m3943061018
CAd:_ArrayListWrapper_Clone_m1506311066
Jbi:_Event_get_character_m3740896233
usa:__Z36scripting_liveness_calculation_begin17ScriptingClassPtriPFvPP12Il2CppObjectiPvES3_PFvvES7_
aNa:__ZN16UniformCacheGLES6CreateERK20GpuProgramParameters
ZLf:_UTF8Encoding_Fallback_m811555654
MTf:_UInt64_CompareTo_m3513742483
c$d:_Array_InternalArray__IndexOf_TisPlayableBinding_t2498078091_m398853908_gshared
Zte:_SimpleCollator_MatchesForwardCore_m558011650
U4e:_ReadOnlyCollection_1_System_Collections_IList_Clear_m1918003010_gshared
wWj:_emscripten_glGetProgramInfoLog__wrapper
DD:__ZN25AnimatedPropertyEvaluator29BindCurveToScriptingObjectPtrERKN13AnimationClip10FloatCurveEj18ScriptingObjectPtrb
bMf:_UTF8Encoding_InternalGetChars_m373801468
B6:__ZN17PersistentManager23DestroyFromFileInternalEi
cOd:_Decimal_System_IConvertible_ToChar_m2425091200_AdjustorThunk
I$a:__Z19SetupMotionMatricesR6CameraR18RPDataMotionVector
fSd:_Enum_ToString_m2112979707
vJi:_TextGenerator_ValidatedSettings_m1640214759
vzf:_MonoMethodMessage_get_MethodName_m3580519713
nC:__ZN26AnimatorControllerPlayable18PrepareForPlaybackERN7mecanim6memory9AllocatorE
VZd:_Array_FindLastIndex_TisRuntimeObject_m986818300_gshared
ULf:_UTF8Encoding_GetBytes_m4170182058
Xla:__ZN22CreateGpuProgramOutputC2Ev
Xke:_MemoryStream_InternalConstructor_m2423667240
qAf:_SoapMethodAttribute_SetReflectionObject_m3431595769
QVh:_Slider_set_maxValue_m2951480075
R2b:__ZN8GUILayer12CleanupClassEv
Jqd:_InputField_OnSubmit_m2856515494
k3i:__ZN6il2cpp2vm5Class4InitEP11Il2CppClass
ga:invoke_vidi
ZNc:__ZN2UI14CanvasRenderer17SyncDirtyElementsER8JobFence
_gd:_ColorBlock_op_Inequality_m1517672458
UCj:__ZN6il2cpp5utils11StringUtils15StringDuplicateEPKc
_8a:__Z15CanAddComponentR10GameObjectPKN5Unity4TypeE
ola:__ZNK9ShaderLab21ShaderRasterStateDesc16ToGfxRasterStateEPK19ShaderPropertySheetS3_R14GfxRasterState
R_:_tlsf_memalign
nHf:_CspParameters__ctor_m2480441577
ULj:__ZN6il2cpp2os9EventImplC2Ebb
Bhi:_DynamicPropertyCollection_NotifyMessage_m840388347
wCi:_Uri_ParseUri_m5711497
$7f:__Z98RuntimeInvoker_RuntimeObject_RuntimeObject_RayU26_t3651946800_Single_t2076509932_Int32_t2071877448PFvvEPK10MethodInfoPvPS4_
B$:__Z20IsMatrixBuiltinParamPKcPi
BXe:_Collection_1_CheckWritable_m2467777750_gshared
F1b:__ZN8Renderer19PostInitializeClassEv
wli:_InternalEnumerator_1_get_Current_m1943362081_AdjustorThunk
TMi:_Vector3_get_sqrMagnitude_m1814096310_AdjustorThunk
gIj:__ZN6il2cpp6icalls8mscorlib6System8Delegate23CreateDelegate_internalEP20Il2CppReflectionTypeP12Il2CppObjectP22Il2CppReflectionMethodb
Xpg:_Default_check_type_m2363631305
oCb:__ZN18DelayedCallManager18CancelCallDelayed2E4PPtrI6ObjectEPF15CallObjectStatePS1_PvES7_
Sfb:__ZN25ThreadsafeLinearAllocator10ReallocateEPvji
NEb:__Z18Transfer_BlittableI14SafeBinaryReadLb1E11QuaternionfEvRK29SerializationCommandArgumentsR31RuntimeSerializationCommandInfo
nda:__ZN18SpriteAtlasManagerD0Ev
e$d:_Array_InternalArray__IndexOf_TisRaycastHit2D_t4063908774_m3739817942_gshared
Kzg:_MonoProperty_GetAccessors_m3704698731
JHj:_GC_disable
wvb:__ZN10Matrix4x4f8TransferI14SafeBinaryReadEEvRT_
moe:_UnmanagedMemoryStream_ReadByte_m2501145010
ADf:_ObjectRecord_UnchainFixup_m3025030310
U6:__Z6AppendRKN4core12basic_stringIcNS_20StringStorageDefaultIcEEEEPKc
kNb:__Z18Transfer_BlittableI18StreamedBinaryReadILb1EELb0E8Vector3fEvRK29SerializationCommandArgumentsR31RuntimeSerializationCommandInfo
_7f:__Z81RuntimeInvoker_RuntimeObject_Ray_t2469606224_Single_t2076509932_Int32_t2071877448PFvvEPK10MethodInfoPvPS4_
cGa:__ZN7ApiGLES18ClearBufferSubDataEjN2gl12BufferTargetEll
dcc:__Z37Camera_Get_Custom_PropAllCamerasCountv
Jub:__ZN14Texture2DArray8TransferI18StreamedBinaryReadILb0EEEEvRT_
Qpj:__ZN6il2cpp6icalls8mscorlib6System5Array9GetLengthEP11Il2CppArrayi
a4a:__Z18ApplyOcclusionMaskR19ProbeOcclusionCacheRK17LightProbeContextRK10RenderNodeb
pke:_FileStreamAsyncResult__ctor_m1096228032
REc:_Split_Cubic
gb:invoke_fiiii
ENd:_DBNull_System_IConvertible_ToSByte_m1228193074
gWe:_Collection_1__ctor_m2818834331_gshared
p8d:_Array_InternalArray__get_Item_TisUICharInfo_t3056636800_m3872982785_gshared
t6f:__Z68RuntimeInvoker_UInt16_t986882611_UInt16_t986882611_UInt16_t986882611PFvvEPK10MethodInfoPvPS4_
dPe:_List_1__ctor_m2168280176_gshared
V0h:_AnimatorControllerPlayable_INTERNAL_CALL_GetLayerIndexInternal_m2875146206
QKj:__ZN6il2cpp2vm14MetadataLoader16LoadMetadataFileEPKc
Pzj:__ZN6il2cpp2os10ThreadImpl22CreateForCurrentThreadEv
Rje:_FileStream_FlushBuffer_m2594140542
qoc:__Z64Register_UnityEngine_GUIStyle_GetFontInternalDuringLoadingThreadv
GDj:__ZN6il2cpp2vm8Profiler12GCHeapResizeEx
PTj:dynCall_viiifi
TJa:__ZN18GfxFramebufferGLES20ActiveContextChangedEPP17RenderSurfaceBaseS2_
PJa:__Z19PluginsRenderMarkeri
cE:__ZN10HumanTrait18InitializeBoneNameEv
pvj:__ZNSt3__214__split_bufferIN6il2cpp2vm5Image20EmbeddedResourceDataERNS_9allocatorIS4_EEEC2EjjS7_
Nmd:_HorizontalOrVerticalLayoutGroup_get_spacing_m2859152439
kdh:__ZL57DispIdAttribute_t607560947_CustomAttributesCacheGeneratorP21CustomAttributesCache
NJ:__ZN12AudioManager17RemoveAudioSourceEP11AudioSource
eYj:_emscripten_glBindProgramARB__wrapper
qai:_CullingGroup_Finalize_m3172731580
aKg:_Matrix4x4__cctor_m3092679229
e8d:_Array_InternalArray__get_Item_TisUInt64_t2909196914_m2580870875_gshared
mMf:_UTF8Decoder_GetChars_m3819660582
tU:__ZN5physx14PxLightCpuTask12addReferenceEv
Lqb:__ZN21EnlightenSceneMapping8TransferI19StreamedBinaryWriteILb0EEEEvRT_
Swj:__ZN6il2cpp2gc16GarbageCollector19InitializeFinalizerEv
Qx:__ZN7mecanim8skeleton18CreateSkeletonMaskEjPKNS0_19SkeletonMaskElementERNS_6memory9AllocatorE
Kkc:__ZN10GUIManager10DoGUIEventER10InputEventb
MJb:__Z35Transfer_Blittable_FixedBufferFieldI24GenerateTypeTreeTransferxEvRK29SerializationCommandArgumentsR31RuntimeSerializationCommandInfo
C0:__Z20CalculateSqrDistanceRK8Vector3fRK4AABB
fyj:__ZN6il2cpp2vm12GenericClass8GetClassEP18Il2CppGenericClass
DN:__Z32AudioMixerDuckingProcessCallbackP21UnityAudioEffectStatePfS1_jii
Kqg:_CustomAttributeTypedArgument_GetHashCode_m999147081_AdjustorThunk
I0b:__ZN26CustomRenderTextureManagerD2Ev
Dec:__Z32Input_Get_Custom_PropInputStringv
_je:_FileStream_Read_m3880951166
tK:__ZN12AudioManager8TransferI24GenerateTypeTreeTransferEEvRT_
Yoa:__Z25GetBytesFromTextureFormat13TextureFormat
I4h:_AudioClipPlayable__ctor_m1273139759
wD:__ZN16MecanimAnimation25RegisterIAnimationBindingEPKN5Unity4TypeEiP17IAnimationBinding
H4:__Z32scripting_class_get_assemblyname17ScriptingClassPtr
DSc:__ZN11UnityEngine15PlatformWrapper15GetVRDeviceNameEv
pYg:_Dictionary_2_Resize_m2532139610_gshared
LIi:_StackTraceUtility__cctor_m1132099289
hPf:_TimeSpan_Equals_m2029123271_AdjustorThunk
g9i:__ZN6il2cpp2vm13MetadataCache23GetInvokerMethodPointerEPK10MethodInfoPK20Il2CppGenericContext
iOa:__ZN9GfxDevice21RegisterNativeTextureE9TextureIDi16TextureDimension
$Td:_CultureInfo__ctor_m456863818
jJj:__ZN6il2cpp6icalls8mscorlib6System10Reflection4Emit11TypeBuilder20create_generic_classEP27Il2CppReflectionTypeBuilder
MFe:_Enumerator_MoveNext_m2504790928_gshared
FEg:_GUISkin_set_button_m412653849
Yi:_emscripten_glUniformMatrix4fv
fXb:__ZN12ScriptMapperD2Ev
_Xc:_KeyedHashAlgorithm_Dispose_m1864300576
DEi:_X509Certificate_PEM_m49854707
Z1h:_AnimatorControllerPlayable_GetParameter_m4243058543_AdjustorThunk
Lrf:_X509BasicConstraintsExtension__ctor_m3320418592
NDi:_ExtendedKeyUsageExtension_Decode_m901297139
tic:__Z52Register_UnityEngine_RenderTexture_Internal_GetWidthv
tGj:_GC_check_leaked
NVb:__ZN9ShaderLab20SerializedSubProgram16TextureParameter8TransferI19StreamedBinaryWriteILb0EEEEvRT_
I2d:_Array_InternalArray__Insert_TisVector4_t2243707581_m1643342708_gshared
lhb:__ZNK7Hash12812PackToUInt32Ev
HY:__ZN11UnityEngine15CloudWebService16SessionContainer8AddEventEPNS0_14CloudEventInfoE
cNa:__Z4TrimRKN4core12basic_stringIcNS_20StringStorageDefaultIcEEEES5_
YWh:_Text_set_resizeTextMaxSize_m4034967714
h8g:__ZL55GuidAttribute_t222072359_CustomAttributesCacheGeneratorP21CustomAttributesCache
SBg:_GUIStyle_SetDefaultFont_m2095841351
vqg:_CustomAttributeNamedArgument_Equals_m2691468532
etb:__ZN10VertexData8TransferI14SafeBinaryReadEEvRT_
GL:__ZN4FMOD8ChannelI8setDelayE14FMOD_DELAYTYPEjj
GFd:_Stack__ctor_m2410583781
Vpg:_Default_GetBetterMethod_m4255740863
yrg:_ConstructorBuilder_GetILGenerator_m1731893569
rvj:__ZNSt3__214__split_bufferIN6il2cpp2vm5Image20EmbeddedResourceDataERNS_9allocatorIS4_EEED2Ev
N2:__ZL20SortItemByInstanceIDRKN18AwakeFromLoadQueue4ItemES2_
cwg:_TypeBuilder_create_runtime_class_m2719530260
w_c:_RNGCryptoServiceProvider_RngClose_m2921734810
iy:__ZNK34AnimationStateMachineMixerPlayable26GetInterruptedPosePlayableEv
kUc:__ZN20UnityConnectSettings8TransferI24GenerateTypeTreeTransferEEvRT_
BA:__ZN34BlobWriteTransferSTLStyleArrayImplI22OffsetPtrArrayTransferIbEEclERS1_17TransferMetaFlagsR9BlobWrite
_se:_SimpleCollator_IsHalfKana_m4255579023
eUe:_Collection_1_System_Collections_IList_Contains_m3365884450_gshared
WSa:__Z16FlaggedAsSkippedIN4core12basic_stringIcNS0_20StringStorageDefaultIcEEEEEbRK13FileEntryInfoRKT_19FileEnumerationFlag
M8:__ZL31InitializeRendererUpdateManagerPv
N4f:__Z106RuntimeInvoker_RuntimeObject_Int16_t4041245914_RuntimeObject_BooleanU26_t3168250738_BooleanU26_t3168250738PFvvEPK10MethodInfoPvPS4_
Z$i:_Terminal_Awake_m2961603900
Kgf:_ClientSessionInfo_Dispose_m2571428025
Trd:_LayoutGroup_DelayedSetDirty_m4276695617
Wjf:_RecordProtocol_decryptRecordFragment_m2510859489
Ayb:__ZN11TimeManager8TransferI19StreamedBinaryWriteILb0EEEEvRT_
Gke:_DelegatePInvokeWrapper_ReadDelegate_t3184826381
QFc:_compare_uni_maps
sSc:__ZN11UnityEngine15PlatformWrapper27GetGraphicsCapsSupportFlagsEv
VOd:_Decimal_Equals_m1115043331
VMb:__ZN12NativeBufferI16Converter_StringE15SetupForWritingER9ArrayInfo
zVj:___cxa_end_catch__wrapper
oXg:_ValueCollection_System_Collections_Generic_ICollectionU3CTValueU3E_Clear_m231380274_gshared
Uad:_Entry__ctor_m1176697586
I8a:__ZN13MonoBehaviour22DoScriptRebuildWarningEv
fcc:__Z38Camera_CUSTOM_INTERNAL_CALL_RaycastTryP12Il2CppObjectRK3Rayfi
fXh:_Text_get_verticalOverflow_m3134063496
_1h:_AnimatorControllerPlayable_StringToHash_m2562221043
Gei:_GCHandle_get_Target_m2327042781
kRj:_llvm_cttz_i32
esf:_PublicKey_DecodeDSA_m1169363495
Slc:__ZN11IMGUIModule25GetGUIStyleScriptingClassEv
OIc:_tt_get_interface
W4d:_Array_Sort_TisRuntimeObject_m143182644_gshared
Oqj:__ZN6il2cpp5utils9PathUtils7CombineIcEENSt3__212basic_stringIT_NS3_11char_traitsIS5_EENS3_9allocatorIS5_EEEERKSA_SC_
fof:_NameObjectCollectionBase_BaseGet_m667273025
E1f:__Z104RuntimeInvoker_RuntimeObject_Byte_t3683104436_RuntimeObject_SByte_t454417549_RuntimeObject_RuntimeObjectPFvvEPK10MethodInfoPvPS4_
Esc:__ZN9JSONWrite8TransferI13dynamic_arrayIiLj4EEEEvRT_PKc17TransferMetaFlags
T1:__Z18ConvertUTF16toUTF8PPKtS0_PPhS2_15ConversionFlags
jBj:__ZN6il2cpp2os20PathErrnoToErrorCodeERKNSt3__212basic_stringIcNS1_11char_traitsIcEENS1_9allocatorIcEEEEi
xQf:_TypeLoadException__ctor_m1903359728
F1i:__ZL16my_g_bit_nth_msfj
xYc:_KeySizes__ctor_m3526899007
fee:_Int16_System_IConvertible_ToInt32_m191782913_AdjustorThunk
yLi:_SpriteAtlasManager__cctor_m1344469326
YEh:__ZL69ArgumentCache_t4810721_CustomAttributesCacheGenerator_m_FloatArgumentP21CustomAttributesCache
qIf:_EncoderReplacementFallback__ctor_m2208438262
TYa:__Z23SetupStereoFlareElementP11FlareVertexRK8Vector2fS3_S3_RK11ColorRGBA32RK10Matrix4x4fRK8Vector3fb
sa:invoke_iiiifiiii
Ovc:__ZN9rapidjson8internal6u64toaEyPc
Qie:_Directory_GetFiles_m4036267478
_F:__Z64AnimationOffsetPlayable_CUSTOM_INTERNAL_CALL_GetRotationInternalR9HPlayableR11Quaternionf
vKa:__ZL19BlitFramebufferImplRN4gles23BlitFramebufferDrawQuadER9GfxDevice9TextureIDRK8Vector4f
Rhj:__ZN15dense_hashtableINSt3__24pairIK10KeyWrapperIPK10Il2CppTypeEjEES6_N6il2cpp8metadata14Il2CppTypeHashEN14dense_hash_mapIS6_jSB_NS6_14EqualsComparerINSA_26Il2CppTypeEqualityComparerEEENS0_9allocatorIS8_EEE9SelectKeyESF_SH_E4findERS7_
H2e:_ReadOnlyCollection_1_System_Collections_IList_Add_m2333231354_gshared
nzc:_UNITY_FT_List_Add
Uvg:_OpCodes__cctor_m939885911
jG:__Z87Register_UnityEngine_Animations_AnimationPlayableOutput_INTERNAL_CALL_InternalGetTargetv
zkf:_RSASslSignatureDeformatter_SetHashAlgorithm_m4048969080
GDi:_UriParser_InitializeAndValidate_m251943319
K0c:_SymmetricAlgorithm_set_Padding_m3081984460
jyb:__ZN9InputAxis8TransferI18StreamedBinaryReadILb0EEEEvRT_
fFf:_StreamingContext_t1417235061_marshal_pinvoke_back
Pzd:_ArrayList_RemoveAt_m2578928333
rFb:__Z18Transfer_BlittableI14SafeBinaryReadLb0EaEvRK29SerializationCommandArgumentsR31RuntimeSerializationCommandInfo
N1e:_ReadOnlyCollection_1_System_Collections_IList_set_Item_m1233322304_gshared
UDi:_GeneralNames_get_DNSNames_m2721668874
tRd:_Enum_System_IConvertible_ToByte_m38374586
v1e:_ReadOnlyCollection_1_System_Collections_Generic_IListU3CTU3E_RemoveAt_m1592158292_gshared
IUj:_emscripten_glFrustum__wrapper
mkf:_ReceiveRecordAsyncResult_get_CompletedWithError_m2670396551
GOd:_Decimal_Equals_m1798565377
Y6b:__ZNSt3__26vectorINS_4pairI11ShaderTagIDS2_EENS_9allocatorIS3_EEE6assignIPS3_EENS_9enable_ifIXaasr21__is_forward_iteratorIT_EE5valuesr16is_constructibleIS3_NS_15iterator_traitsISA_E9referenceEEE5valueEvE4typeESA_SA_
Ksg:_TypeBuilder_check_created_m2929267877
x5f:__Z121RuntimeInvoker_Int64_t909078037_Int32_t2071877448_Int32_t2071877448_Int32_t2071877448_Int32_t2071877448_Int32_t2071877448PFvvEPK10MethodInfoPvPS4_
LVa:__Z20SyncFenceCullResultsR11CullResults
TLa:__ZN15TextureTFMethod20IsBoneCountSupportedEi
bF:__ZN26AnimatorControllerPlayable9GotoStateEiifff
VEg:_GUISkin_set_horizontalScrollbarThumb_m2119687595
sXd:_PlayableHandle_IsPlayableOfType_TisAudioMixerPlayable_t1831808911_m1065481197_AdjustorThunk
xmb:__ZN14RenderSettings23VirtualRedirectTransferER24GenerateTypeTreeTransfer
HLd:_DateTime_System_IConvertible_ToSByte_m2575078084_AdjustorThunk
bJb:__Z22TransferField_NonArrayI17RemapPPtrTransfer27Converter_SimpleNativeClassI8GUIStyleEEvRK23StaticTransferFieldInfoR31RuntimeSerializationCommandInfoRT0_
A3h:_AnimatorStateInfo_IsTag_m1529621725_AdjustorThunk
L$b:__ZNK17AnimationCurveTplIfE20EvaluateWithoutCacheEfRf
ozj:__ZN6il2cpp2os6Thread12QueueUserAPCEPFvPvES2_
sma:__ZN19ShaderPropertySheet10SetTextureERK23FastTexturePropertyNameP7Texture
GHg:_GUIStyleState__ctor_m3611888666
OWe:_Collection_1_IsValidItem_m1304951912_gshared
y6b:__ZN4Mesh10SetNormalsEPK8Vector3fj
VHd:_Convert_ToDateTime_m4161927553
Qsg:_TypeBuilder_GetConstructors_m774120094
Er:__ZN17AnimationCurveTplIfE8TransferI14SafeBinaryReadEEvRT_
_Sd:_Calendar_get_EraNames_m452820602
osb:__ZNSt3__26vectorIN15QualitySettings14QualitySettingENS_9allocatorIS2_EEE6assignIPS2_EENS_9enable_ifIXaasr21__is_forward_iteratorIT_EE5valuesr16is_constructibleIS2_NS_15iterator_traitsIS9_E9referenceEEE5valueEvE4typeES9_S9_
cXa:__ZNK19ShaderPropertySheet11HasPropertyERKN9ShaderLab16FastPropertyNameE
sLd:_DateTime_System_IConvertible_ToByte_m2670443498_AdjustorThunk
WZ:__GLOBAL__sub_I_runtime_utilities4_lump_cpp
Eaf:_BigInteger_op_Addition_m1734797151
VKe:_List_1_CheckMatch_m1814522134_gshared
jtg:_EnumBuilder_CreateNotSupportedException_m62763134
RVc:__ZNK12HeaderHelper3GetERKN4core12basic_stringIcNS0_20StringStorageDefaultIcEEEE
otf:_X509Chain_CheckRevocation_m2480313486
Joe:_Math_Log_m3371716878
eCg:_GUILayoutUtility_Layout_m3812180708
ayb:__ZN9InputAxis8TransferI14SafeBinaryReadEEvRT_
a3:__ZNK21ExecutionOrderManager30GetCustomAwakeFromLoadQueueForEPKN5Unity4TypeE
oVc:__Z27RegisterModule_UnityConnectv
uDd:_Hashtable__ctor_m4280223555
iAg:_ParameterInfo_get_IsRetval_m1881464570
R6h:_Bounds_get_size_m1728027642_AdjustorThunk
lBf:_RealProxy__ctor_m3041043303
S9d:_NumberFormatter_Init_m2654758994
iYc:_HMACSHA1__ctor_m1168389339
MF:__Z96Register_UnityEngine_Animations_AnimationClipPlayable_INTERNAL_CALL_SetRemoveStartOffsetInternalv
_M:__ZN10ObjectPoolIN4FMOD12ChannelGroupENS0_13ChannelGroupIEE7SetSizeEi
Tve:_PrimalityTest_BeginInvoke_m966469054
m5e:_ReadOnlyCollection_1_System_Collections_Generic_ICollectionU3CTU3E_Clear_m1785953911_gshared
wTf:_UInt64_System_IConvertible_ToInt16_m2797150165_AdjustorThunk
S7d:_Array_InternalArray__get_Item_TisLabelData_t3712112744_m863115768_gshared
Lfe:_Int32_Parse_m753946802
tJg:_Material_DisableKeyword_m1204728089
NQe:_List_1_RemoveAt_m2331128844_gshared
v$h:_AnimatorControllerPlayable_GetFloatString_m3678921564
Awg:_UnmanagedMarshal_ToMarshalAsAttribute_m3695569337
OGb:__Z14resize_trimmedINSt3__26vectorI17AnimationCurveTplIfE13stl_allocatorIS3_L18MemLabelIdentifier1ELi16EEEEEvRT_j
_6a:__ZN25CameraStackRenderingState19SetupLastEyeCamerasERK11CameraStack
Qac:__Z12GUIDToStringRK9UnityGUID
aXc:__GLOBAL__sub_I_runtime_vr_plugininterface_lump_cpp
mJ:__ZN11SoundHandleC2ERKS_
zPh:_Mask_OnEnable_m501850981
V7h:_Canvas_get_targetDisplay_m316548313
FG:__Z75AnimatorControllerPlayable_CUSTOM_INTERNAL_CALL_GetAnimatorClipInfoInternalR9HPlayableihP12Il2CppObject
yve:_BigInteger_op_Addition_m1196561843
fhi:_FormatterData__ctor_m3974986124
IZc:_RijndaelManagedTransform_get_CanReuseTransform_m3735256596
RCd:_Comparer__cctor_m1327316974
Lie:_MonoIO_ExistsFile_m1421941572
RMd:_DateTime_op_GreaterThanOrEqual_m3818963848
Av:__ZN17AnimationPlayable18DeallocateBindingsEv
$9a:__ZN6Camera25StandaloneRenderToCubemapEP7TextureiPFvPK9SceneNodePK4AABBR9IndexListPvESA_j
kid:_DefaultControls_SetDefaultTextValues_m1707718380
jed:_TouchInputModule_UseFakeInput_m2112019004
kad:_EventSystem_get_baseEventDataCache_m4294741599
Cmb:__ZN14RenderSettings18TransferDeprecatedI14SafeBinaryReadEEvRT_
p$:__ZN12TLSAllocatorI14StackAllocatorE8AllocateEji
X3:__ZN16ScriptingManager18GetMonoScriptCacheEi
qZf:__Z62RuntimeInvoker_Void_t1841601450_RuntimeObject_Int64_t909078037PFvvEPK10MethodInfoPvPS4_
gDg:_GUIStyle_get_stretchHeight_m3396762700
F4i:__ZN15dense_hashtableINSt3__24pairIK10KeyWrapperIPK11Il2CppClassEPKcEES6_N6il2cpp5utils11PointerHashIS3_EEN14dense_hash_mapIS6_S9_SE_NS6_14EqualsComparerINS0_8equal_toIS5_EEEENS0_9allocatorISA_EEE9SelectKeyESJ_SL_E15set_deleted_keyERKSA_
rmd:_GridLayoutGroup_CalculateLayoutInputHorizontal_m2355123124
yFb:__Z18Transfer_BlittableI14SafeBinaryReadLb1EyEvRK29SerializationCommandArgumentsR31RuntimeSerializationCommandInfo
ipc:__ZN8JSONRead8TransferIfEEvRT_PKc17TransferMetaFlagsb
Oji:_U3CGetEnumeratorU3Ec__Iterator0_Reset_m2980566576_gshared
XPj:__ZNSt3__212basic_stringIcNS_11char_traitsIcEENS_9allocatorIcEEE6appendEPKcj
ubh:__ZL54TypeBuilder_t3308873219_CustomAttributesCacheGeneratorP21CustomAttributesCache
Mqa:__ZN6prcoreL17RemapGenericFloatI18TexFormatARGBFloat17TexFormatRGBAHalfEEvPKNS_9InnerInfoE
mYe:_Collection_1_CheckWritable_m691269733_gshared
BO:__ZN11AudioSource21ApplyCachedParametersE12SoundChannel
Ntg:_GenericTypeParameterBuilder_GetAttributeFlagsImpl_m3338182267
RU:__ZN13Simd4iFactoryIN6detail9FourTupleEEC2Eiiii
ene:_SynchronizedReader__ctor_m1408327515
_Gi:_X509Store_LoadCrl_m1146720614
e7e:_ReadOnlyCollection_1_System_Collections_IList_Clear_m1858417639_gshared
lqb:__ZN15SerializeTraitsI33EnlightenTerrainChunksInformationE8TransferI14SafeBinaryReadEEvRS0_RT_
V1b:__ZNK32RendererMaterialAnimationBinding9BindValueER6ObjectRKN11UnityEngine9Animation14GenericBindingERNS3_10BoundCurveE
lnb:__Z13GetIAnimationv
Jva:__ZL18stbir__support_onef
EJe:_List_1_System_Collections_IList_Remove_m2040310137_gshared
qrc:__Z26Transfer_UnityEngineObjectI9JSONWriteLb0EEvRK29SerializationCommandArgumentsR31RuntimeSerializationCommandInfo
pha:__ZN9ShaderLab4Pass9ApplyPassEjPK19ShaderPropertySheetR17ShaderPassContextP6ShaderiPKNS_10GrabPassesEPNS_11SubProgramsE
rna:__ZNSt3__26vectorIN4core12basic_stringIcNS1_20StringStorageDefaultIcEEEE13stl_allocatorIS5_L18MemLabelIdentifier1ELi16EEE6assignINS_11__wrap_iterIPS5_EEEENS_9enable_ifIXaasr21__is_forward_iteratorIT_EE5valuesr16is_constructibleIS5_NS_15iterator_traitsISF_E9referenceEEE5valueEvE4typeESF_SF_
DSf:_UInt32_System_IConvertible_ToInt16_m2251335934_AdjustorThunk
kNc:__ZNSt3__27__sort5IRNS_6__lessIN2UI14DepthSortEntryES3_EEPS3_EEjT0_S7_S7_S7_S7_T_
ovd:_Boolean_System_IConvertible_ToType_m3990189691
Ba:invoke_vdd
Cn:FUNCTION_TABLE_fiii
TQd:_Double_System_IConvertible_ToUInt32_m624993430
Fn:FUNCTION_TABLE_fiif
$Kc:__ZZ29InitializeTextRenderingModulevEN27cleanupAfterLoadRegistrator7ForwardEv
cOf:_Scheduler_Add_m376749205
ww:__ZN27AnimationLayerMixerPlayable24ProcessAnimationLayerMixEP33AnimationPlayableEvaluationOutputP35AnimationPlayableEvaluationConstantP32AnimationPlayableEvaluationInputS1_if
x6a:__Z29PluginsIssueRenderingExtEvent26UnityRenderingExtEventTypePv
zuj:__ZN15dense_hashtableINSt3__24pairIK10KeyWrapperINS1_IPKcS4_EEEiEES6_24NamespaceAndNamePairHashN14dense_hash_mapIS6_iS9_NS6_14EqualsComparerI26NamespaceAndNamePairEqualsEENS0_9allocatorIS8_EEE9SelectKeyESD_SF_E12resize_deltaEjj
V0b:__Z14RandomRotationP9Texture2DPhiiii
hte:_SimpleCollator_IsIgnorable_m2485013022
oOe:_List_1_System_Collections_IList_Insert_m2036969360_gshared
Tpd:_InputField_GetUnclampedCharacterLineFromPosition_m1912794077
s0h:_AnimatorControllerPlayable_SetTrigger_m2446912300
oNd:_DateTimeOffset_ToString_m2121173678_AdjustorThunk
l5f:__Z74RuntimeInvoker_RuntimeObject_RuntimeObject_Int16_t4041245914_RuntimeObjectPFvvEPK10MethodInfoPvPS4_
kj:_JS_WebRequest_SetResponseHandler
P_j:_glDeleteProgram__wrapper
mcc:__Z50Register_UnityEngine_Camera_INTERNAL_get_pixelRectv
cqa:__ZN6prcoreL18BlitFloatToIntegerERK14ImageReferenceRS0_
sBe:_X509CertificateCollection_get_Item_m410866272
nDg:_Rect_get_yMax_m2915146103
aY:__ZN11UnityEngine15CloudWebService14RestDownloader17OnCompleteContentEv
Lmd:_LayoutGroup_SetChildAlongAxis_m1615929339
p5f:__Z75RuntimeInvoker_RuntimeObject_RuntimeObject_Double_t4078015681_RuntimeObjectPFvvEPK10MethodInfoPvPS4_
E4f:__Z200RuntimeInvoker_Boolean_t3825574718_RuntimeObject_RuntimeObject_RuntimeObject_Int32_t2071877448_DateTimeU26_t3448131235_SByte_t454417549_BooleanU26_t3168250738_SByte_t454417549_ExceptionU26_t1467204777PFvvEPK10MethodInfoPvPS4_
Ra:invoke_viffi
Qaa:__ZNSt3__26vectorI20ProcessCallbackGroupNS_9allocatorIS1_EEEC2ERKS4_
uy:__ZN17AnimationPlayable28UpdateInternalStateRecursiveILi1ELb0EEEvPK35AnimationPlayableEvaluationConstant
Ua:invoke_vifff
Rec:__Z53Register_UnityEngine_Input_INTERNAL_get_mousePositionv
AZj:_glGetVertexAttribiv__wrapper
Ue:_emscripten_request_fullscreen
Jea:__ZN20LocalFileSystemWebGL6DeleteER13FileEntryDatab
sOd:_Decimal_System_IConvertible_ToUInt16_m1621568250
We:_emscripten_glDisableVertexAttribArray
Wm:FUNCTION_TABLE_iiiifiiii
ZOf:_TimeSpan_get_TotalMinutes_m1645177229_AdjustorThunk
rc:invoke_fifffi
DGa:__ZN4gles23ClearCurrentFramebufferEP7ApiGLESbbbRK10ColorRGBAffi
Xw:__ZN7mecanim12statemachine20CreateStateWorkspaceEjjjRNS_6memory9AllocatorE
cmi:_InternalEnumerator_1_System_Collections_IEnumerator_get_Current_m3680087284_gshared
ff:_emscripten_glDeleteObjectARB
sIa:__Z14DecompressDXT3iiiPKjPj
Wne:_UnexceptionalStreamReader_Read_m3839775235
uic:__Z53Register_UnityEngine_RenderTexture_Internal_GetHeightv
O8d:_Dropdown_GetOrAddComponent_TisRuntimeObject_m2875934266_gshared
dra:__ZN6prcoreL17RemapGenericFloatI17TexFormatRGBAHalf18TexFormatARGBFloatEEvPKNS_9InnerInfoE
zRd:_Enum_System_IConvertible_ToInt32_m2459904362
ulc:__ZNK8GUIStyle21DrawWithTextSelectionER8GUIStateRK5RectTIfER10GUIContentbbbbbiiRK10ColorRGBAfSA_
s5f:__Z61RuntimeInvoker_RuntimeObject_Double_t4078015681_RuntimeObjectPFvvEPK10MethodInfoPvPS4_
O2f:__Z211RuntimeInvoker_Int32_t2071877448_RuntimeObject_Int32_t2071877448_Int32_t2071877448_Int32_t2071877448_Int32_t2071877448_RuntimeObject_DecoderFallbackBufferU26_t3597875002_ByteU5BU5DU26_t790777611_SByte_t454417549PFvvEPK10MethodInfoPvPS4_
Ilc:__Z14GetBuiltinSkini
Ddf:_ContentInfo__ctor_m3871771681
dEd:_Enumerator__cctor_m298562758
NVi:_Enumerator_System_Collections_IEnumerator_Reset_m2573763156_gshared
zie:_DirectoryInfo_Initialize_m2216118894
p3c:_WindowsIdentity_Dispose_m2649088337
RXb:__ZN2UI13RectTransform23VirtualRedirectTransferER14SafeBinaryRead
OOi:_InvokableCall_1__ctor_m54675381_gshared
tUb:__ZNSt3__26vectorIN9ShaderLab20SerializedSubProgramENS_9allocatorIS2_EEE6assignIPS2_EENS_9enable_ifIXaasr21__is_forward_iteratorIT_EE5valuesr16is_constructibleIS2_NS_15iterator_traitsIS9_E9referenceEEE5valueEvE4typeES9_S9_
ptc:__Z18Transfer_BlittableI8JSONReadLb0E8BitFieldEvRK29SerializationCommandArgumentsR31RuntimeSerializationCommandInfo
tCf:_SoapServices_RegisterInteropXmlType_m2949236705
fOb:__ZL17Transfer_GUIStyleI18StreamedBinaryReadILb1EELb0EEvRK29SerializationCommandArgumentsR31RuntimeSerializationCommandInfo
v7c:_String_CharCopy_m2550399897
w7f:__Z234RuntimeInvoker_RuntimeObject_Int16_t4041245914_RuntimeObject_Int32_t2071877448_Int32_t2071877448_Int32_t2071877448_SByte_t454417549_SByte_t454417549_SByte_t454417549_SByte_t454417549_Int16_t4041245914_SByte_t454417549_SByte_t454417549PFvvEPK10MethodInfoPvPS4_
CSb:__ZN9ShaderLab14SerializedPass8TransferI14SafeBinaryReadEEvRT_
Amc:__Z71Register_UnityEngine_GUILayoutUtility_INTERNAL_CALL_Internal_MoveWindowv
rS:__ZN12AudioManager16SetListenerPauseEb
Xqj:__ZN6il2cpp2vm9Exception25RaiseOutOfMemoryExceptionERKNS_5utils10StringViewIDsEE
bWe:_Collection_1_IsValidItem_m2254106115_gshared
Zsg:_TypeBuilder_GetEvent_m3876348075
mWh:_Slider_OnMove_m641164662
da:invoke_viiiiiiiiiii
yMj:___syscall_ret
fOf:_Scheduler__ctor_m3716265742
wye:_MACAlgorithm_Final_m4076939925
rfj:__ZNSt3__212basic_stringIcNS_11char_traitsIcEENS_9allocatorIcEEE6assignINS_11__wrap_iterIPKcEEEENS_9enable_ifIXaasr21__is_forward_iteratorIT_EE5valuesr38__libcpp_string_gets_noexcept_iteratorISC_EE5valueERS5_E4typeESC_SC_
Ltb:__ZN11ChannelInfo8TransferI19StreamedBinaryWriteILb0EEEEvRT_
Kli:_InternalEnumerator_1_System_Collections_IEnumerator_get_Current_m3583252352_gshared
Asg:_EnumBuilder_get_FullName_m2818393911
Kaf:_BigInteger_op_RightShift_m852685747
hec:__Z34Register_UnityEngine_Gradient_Initv
J9c:_BaseInputModule_GetAxisEventData_m3903709281
f8d:_Array_InternalArray__get_Item_TisUriScheme_t1876590943_m1821482697_gshared
H9e:_BigInteger__ctor_m3239748086
eea:__ZN13ScreenManager23SetIsOrientationEnabledE18EnabledOrientationb
Cw:__ZN7mecanim5human25HumanPoseAddOverrideLayerERNS0_9HumanPoseERKS1_fRKNS_6bitsetILj70EEE
F$b:__ZN13ProduceHelperI9TransformLb0EE7ProduceE18MemLabelIdentifier18ObjectCreationMode
roc:__Z45Register_UnityEngine_GUIStyle_GetFontInternalv
P9h:_Component_SendMessageUpwards_m19741277
u0d:_Array_InternalArray__ICollection_Add_TisHitInfo_t1761367055_m2956071622_gshared
u9a:__ZN10GameObject23VirtualRedirectTransferER18StreamedBinaryReadILb0EE
wg:_glFrontFace
oEf:_ObjectRecord_get_IsUnsolvedObjectReference_m2202692850
Rvf:_FactoryCache_Cleanup_m4130035987
ME:__ZN26AnimatorControllerPlayable14SetLayerWeightEif
D_b:__ZN13ProduceHelperI19LowerResBlitTextureLb0EE7ProduceE18MemLabelIdentifier18ObjectCreationMode
O2a:__ZNSt3__26vectorI16ShadowCasterData13stl_allocatorIS1_L18MemLabelIdentifier2ELi16EEE21__push_back_slow_pathIKS1_EEvRT_
gXd:_PlayableHandle_IsPlayableOfType_TisAnimationClipPlayable_t4099382200_m682525715_AdjustorThunk
CPi:_UnityAction_1_Invoke_m1279802577_gshared
fTf:_UInt32_ToString_m1783596809
SKi:_Vector3_get_forward_m1201659139
ILc:__Z51Register_UnityEngine_TextGenerator_GetLinesInternalv
gWi:_HashSet_1_Init_m1258286688_gshared
N2e:_ReadOnlyCollection_1_System_Collections_IList_RemoveAt_m525136953_gshared
uqa:__ZN6prcoreL17RemapGenericFloatI17TexFormatRGBFloat18TexFormatRGBAFloatEEvPKNS_9InnerInfoE
kTf:_UInt64_System_IConvertible_ToBoolean_m3012279573_AdjustorThunk
ZQf:_Type_get_IsGenericTypeDefinition_m2147901038
ERa:__ZN12HandlerChain10ToAbsoluteEPKc
o9d:_GregorianCalendar__ctor_m3794576475
aTf:_UInt32_TryParse_m4283512434
_Yg:__ZN21InterfaceFuncInvoker2Ib8IntPtr_tS0_E6InvokeEjP11Il2CppClassP12Il2CppObjectS0_S0_
dJ:__ZN9AudioClip11CreateSoundEv
KTg:_ShimEnumerator_MoveNext_m3313047792_gshared
PWe:_Collection_1_ConvertItem_m2185647560_gshared
EPf:_TimeSpan_op_Inequality_m257547441
MMf:_ExecutionContext_GetObjectData_m1456913356
anj:__ZN14dense_hash_mapI10KeyWrapperINSt3__24pairIPK9FieldInfoP11Il2CppClassEEEj17ReflectionMapHashIS8_ENS9_14EqualsComparerINS1_8equal_toIS8_EEEENS1_9allocatorINS2_IKS9_jEEEEEC2EjRKSB_RKSF_
sLg:_Object_set_hideFlags_m2204253440
Cij:__ZNK15dense_hashtableINSt3__24pairIK10KeyWrapperINS1_IPK10MethodInfoP11Il2CppClassEEEjEES9_17ReflectionMapHashIS8_EN14dense_hash_mapIS9_jSD_NS9_14EqualsComparerINS0_8equal_toIS8_EEEENS0_9allocatorISB_EEE9SelectKeyESI_SK_E13find_positionERSA_
PDa:__ZN13GfxDeviceGLES20CreateComputeProgramEPKhj
hbe:_DateTimeFormatInfo_get_RoundtripPattern_m562440017
MUc:__ZN11UnityEngine7Connect16PersistentValues13RestoreValuesER8JSONRead
kTa:__ZN20ArchiveStorageReader31TryToReadDirectoryFromBlockDataEyPKvj
yQd:_Double_System_IConvertible_ToByte_m3004284950_AdjustorThunk
Ktj:__ZN6il2cpp2vmL11GetIdentityEP14Il2CppIUnknown
Xxe:_SmallXmlParser_ReadCDATASection_m2558307107
cGj:_GC_push_gc_structures
ocj:__ZN6il2cpp6icalls8mscorlib6SystemL8IsPublicEPK9EventInfo
AFd:_Enumerator_get_Current_m1271212567
nDj:__ZThn4_N6il2cpp2vm13ComObjectBase18ReleaseMarshalDataEP13Il2CppIStream
BIg:_Input_set_compositionCursorPos_m1615567306
Cpf:_IPAddress_ParseIPV6_m2209709575
SSh:_U3CClickRepeatU3Ec__Iterator0_MoveNext_m1747924386
d9e:_Comparison_1_Invoke_m1670081898_gshared
HXh:_Toggle_set_group_m3833595685
ksd:_LayoutRebuilder_ForceRebuildLayoutImmediate_m566681977
cub:__ZNSt3__213__stable_sortIRNS_4lessI4PPtrI11SpriteAtlasEEENS_11__wrap_iterIPS4_EEEEvT0_SA_T_NS_15iterator_traitsISA_E15difference_typeEPNSD_10value_typeEi
C0d:_Array_InternalArray__ICollection_Add_TisVector4_t2243707581_m698578249_gshared
T0:__ZN8keywords6CreateEPKc
S:Math_imul
LFg:_GUIStyle_set_active_m2896743432
Fxb:__ZN14SpriteRenderer15SetupPropertiesEv
Csb:__ZN11PlayerPrefs6GetIntERKN4core12basic_stringIcNS0_20StringStorageDefaultIcEEEEi
b7i:__ZN6il2cpp5utils13dynamic_arrayIPK10Il2CppTypeLj4EEC2ERKS5_
qLc:__Z45TextGenerator_CUSTOM_INTERNAL_get_rectExtentsP12Il2CppObjectP5RectTIfE
DXd:_SetPropertyUtility_SetStruct_TisChar_t3454481338_m2333420724_gshared
eWe:_Collection_1_IsSynchronized_m2601980439_gshared
VDd:_Hashtable_ContainsKey_m2716576664
mT:__ZN11AudioSource12SetAudioClipEP9AudioClip
pyi:_PatternCompiler_EmitCategory_m1696942454
DOd:_Decimal_decimalFloorAndTrunc_m3655683429
W0d:_Array_InternalArray__ICollection_CopyTo_TisInt32_t2071877448_m984622488_gshared
J1:__ZN18ScriptingArguments9AddObjectE18ScriptingObjectPtr
tPc:__Z39CanvasGroup_Get_Custom_PropInteractableP12Il2CppObject
mV:__ZN11UnityEngine15CloudWebService16SessionContainerD2Ev
TGa:__ZN17GenericDynamicVBOC2ER9GfxDevice13GfxBufferModejj
Fhi:_Context_get_HasDynamicSinks_m1998518649
Fkc:__ZZN10GUIManager14InitGUIManagerEvEN41PreUpdateIMGUISendQueuedEventsRegistrator7ForwardEv
D0h:_AnimatorControllerPlayable_ResetTrigger_m758725835_AdjustorThunk
FW:__ZN11UnityEngine15CloudWebService17SessionEventQueue10PurgeItemsEj
g8a:__ZN6Camera16StandaloneRenderENS_10RenderFlagEP6ShaderRKN4core12basic_stringIcNS3_20StringStorageDefaultIcEEEE
Esd:_Array_System_Collections_IList_get_Item_m2088124007
Ysd:_Array_GetLength_m2083296647
EBd:_SynchronizedArrayListWrapper_ToArray_m1522185111
BNb:__Z18Transfer_BlittableI18StreamedBinaryReadILb1EELb1EtEvRK29SerializationCommandArgumentsR31RuntimeSerializationCommandInfo
ZBa:__ZN9GfxDevice20DeallocRenderSurfaceEP17RenderSurfaceBase
_Uf:_ValueType_ToString_m3796301715
xJa:__ZN20GpuProgramParameters36UpdatePrepareValuesMaximumBufferSizeEv
hfc:__Z53Register_UnityEngine_Quaternion_INTERNAL_CALL_Inversev
pCg:_GUILayoutGroup__ctor_m992523271
ijb:__ZN12BaseRenderer23RendererBecameInvisibleEv
Gxc:__ZN20TextRenderingPrivate8FontImpl13CharacterInfo8TransferI18StreamedBinaryReadILb0EEEEvRT_
gLb:__Z29Transfer_Blittable_ArrayFieldI24GenerateTypeTreeTransferfEvRT_R9ArrayInfoRK23StaticTransferFieldInfo
MZf:__Z76RuntimeInvoker_RuntimeObject_RuntimeObject_SByte_t454417549_SByte_t454417549PFvvEPK10MethodInfoPvPS4_
Vab:__ZN19CustomRenderTexture9AddParentE4PPtrIS_E
rrb:__ZN8Gradient8TransferI14SafeBinaryReadEEvRT_
aRi:_UnityEvent_1_Invoke_m1533100983_gshared
qna:__ZNSt3__26vectorIN4core12basic_stringIcNS1_20StringStorageDefaultIcEEEE13stl_allocatorIS5_L18MemLabelIdentifier1ELi16EEE7reserveEj
Sof:_FileWebRequest__ctor_m4003648606
GMh:__ZL71SpriteState_t1353336012_CustomAttributesCacheGenerator_m_DisabledSpriteP21CustomAttributesCache
BRd:_Enum_System_IConvertible_ToSByte_m3488526280
fLg:_MonoBehaviour_StopAllCoroutines_m1675795839
g8i:__ZNK15dense_hashtableI10KeyWrapperIPK19Il2CppGenericMethodES4_N6il2cpp8metadata23Il2CppGenericMethodHashEN14dense_hash_setIS4_S7_NS4_14EqualsComparerINS6_26Il2CppGenericMethodCompareEEENSt3__29allocatorIS4_EEE8IdentityESB_SE_E4findERKS4_
$$h:_AnimatorControllerPlayable_GetIntegerString_m2944800090
Cea:__ZNK20LocalFileSystemPosix9IsSymLinkERK13FileEntryData
YEj:_GC_new_free_list_inner
T$g:_DefaultComparer_Equals_m85211180_gshared
dqe:_MonoType_InternalGetEvent_m532443236
MYe:_Collection_1_IndexOf_m2700825189_gshared
duc:__ZN8JSONRead8TransferI10RectOffsetEEvRT_PKc17TransferMetaFlagsb
nW:__ZN9JSONWrite8TransferIN11UnityEngine15CloudWebService14DataErrorEvent15FileErrorDetailEEEvRT_PKc17TransferMetaFlags
X7c:_Decoder__ctor_m2623573910
H3e:_ReadOnlyCollection_1_System_Collections_Generic_IListU3CTU3E_RemoveAt_m1731148677_gshared
VL:__ZN12SoundManager20RegisterModifiedClipEP10SampleClip
uO:__ZN11AudioSource4PlayEd
Z5i:__ZN15dense_hashtableI10KeyWrapperIPK17Il2CppGenericInstES4_N6il2cpp8metadata21Il2CppGenericInstHashEN14dense_hash_setIS4_S7_NS4_14EqualsComparerINS6_24Il2CppGenericInstCompareEEENSt3__29allocatorIS4_EEE8IdentityESB_SE_E13set_empty_keyERKS4_
Q2g:_EqualityComparer_1_System_Collections_IEqualityComparer_Equals_m3589836321_gshared
hye:_SmallXmlParser_IsNameChar_m1561000202
mFi:_X501__cctor_m2610532554
QSg:_Enumerator_VerifyState_m3173176371_gshared
KQe:_List_1_CheckCollection_m2220107869_gshared
Fob:__ZN7Cubemap23VirtualRedirectTransferER18StreamedBinaryReadILb0EE
ogf:_RecordProtocol_EncodeRecord_m3884270352
G$c:_SHA256_Create_m896954069
sJc:_Read_CVT
GKd:_Convert_ToUInt32_m776714429
eQa:__ZN12FileAccessor4SeekEx10FileOrigin
aKb:__ZL26Transfer_SimpleNativeClassI24GenerateTypeTreeTransfer17AnimationCurveTplIfELb0EEvRK29SerializationCommandArgumentsR31RuntimeSerializationCommandInfo
zqb:__ZN24GenerateTypeTreeTransfer8TransferI13dynamic_arrayI33EnlightenTerrainChunksInformationLj4EEEEvRT_PKc17TransferMetaFlags
U8:__ZN16LightmapSettings20DidChangeActiveSceneEP10UnitySceneS1_
IOh:__ZL59g_AssemblyU2DCSharp_Assembly_CustomAttributesCacheGeneratorP21CustomAttributesCache
Ccj:__ZN6il2cpp5utils9PathUtils8BasenameIcEENSt3__212basic_stringIT_NS3_11char_traitsIS5_EENS3_9allocatorIS5_EEEERKSA_
kN:__ZN10AudioMixer11SetupGroupsEv
mmc:__Z35Register_UnityEngine_Event_get_typev
Wye:_PrivateKeyInfo_DecodeRSA_m1427048948
hrj:__ZN6il2cpp2vm9Exception23GetInvalidCastExceptionERKNS_5utils10StringViewIDsEE
Xog:_Assembly_FillName_m1934025015
p6c:_String_IndexOf_m2126171214
_ge:_Int64_ToString_m1544341651_AdjustorThunk
vy:__ZN8Animator28BuildControllerPlayableCacheEv
Zce:_Guid_CheckNull_m2903986431
G6h:_Bounds__ctor_m1202659404
R2:__Z63ThreadAndSerializationSafeCheckGetMonoBehaviourBeingTransferredv
IHj:_GC_enable
jif:_TlsClientCertificateVerify_ProcessAsSsl3_m3377063356
Cdd:_StandaloneInputModule_set_repeatDelay_m2820945738
kSf:_UInt16_ToString_m4213290405
Mec:__Z37Register_UnityEngine_Input_GetAxisRawv
$fi:_ChannelServices_RegisterChannel_m3832858065
IRd:_Enum_GetName_m1226611481
m0i:_Func_2_Invoke_m4121137703_gshared
gO:__ZN11AudioSource5ResetEv
sub:__ZN14Texture2DArray23VirtualRedirectTransferER18StreamedBinaryReadILb0EE
UAi:_Literal_CompileLiteral_m276843152
IXb:__ZN2UI13RectTransform13AwakeFromLoadE17AwakeFromLoadMode
k2a:__ZN14qsort_internal30FindAndMovePivotToLastPositionIP20ShadowCasterSortDatai26ShadowCasterSortDataSorterEEvT_S4_T0_T1_
D6i:__ZNK15dense_hashtableI10KeyWrapperIPK19Il2CppGenericMethodES4_N6il2cpp8metadata23Il2CppGenericMethodHashEN14dense_hash_setIS4_S7_NS4_14EqualsComparerINS6_26Il2CppGenericMethodCompareEEENSt3__29allocatorIS4_EEE8IdentityESB_SE_E3endEv
yEb:__Z18Transfer_BlittableI14SafeBinaryReadLb1EiEvRK29SerializationCommandArgumentsR31RuntimeSerializationCommandInfo
Lxa:__ZN17PersistentManager13GetAllFileIDsERKN4core12basic_stringIcNS0_20StringStorageDefaultIcEEEER13dynamic_arrayIxLj8EE
Ytd:_Array_LastIndexOf_m4096535198
Fzd:_ArrayList_Add_m1719188324
OQd:_Double_System_IConvertible_ToSByte_m1653690240_AdjustorThunk
u7f:__Z59RuntimeInvoker_RuntimeObject_Byte_t3683104436_RuntimeObjectPFvvEPK10MethodInfoPvPS4_
Ek:_glGetStringi
Pvj:__ZNK15dense_hashtableI10KeyWrapperIP18Il2CppGenericClassES3_N6il2cpp8metadata22Il2CppGenericClassHashEN14dense_hash_setIS3_S6_NS3_14EqualsComparerINS5_25Il2CppGenericClassCompareEEENSt3__29allocatorIS3_EEE8IdentityESA_SD_E10test_emptyERK30dense_hashtable_const_iteratorIS3_S3_S6_SF_SA_SD_E
TD:__ZZN8Animator15InitializeClassEvEN43FunctorImpl_420kDidModifyAnimatorController4CallEPviR11MessageData
tUd:_CultureInfo_set_NumberFormat_m1618950525
Nub:__ZN18StreamedBinaryReadILb0EE21TransferSTLStyleArrayI13dynamic_arrayI8Vector4fLj4EEEEvRT_17TransferMetaFlags
ztf:_X509Store__ctor_m1573680316
Otf:_X509Chain_get_CertificateCollection_m324631835
g3g:_EqualityComparer_1__cctor_m1011898363_gshared
Bed:_AnimationTriggers__ctor_m2623627182
m_d:_Array_InternalArray__IndexOf_TisClientCertificateType_t4001384466_m1168139450_gshared
$W:__ZN11UnityEngine15CloudWebService20WebRequestRestClient18GetResponseHeadersEv
V4b:__ZN16PropertyAccessorC2Ev
Esb:__ZNSt3__23mapIN4core12basic_stringIcNS1_20StringStorageDefaultIcEEEE9PrefValueNS_4lessIS5_EENS_9allocatorINS_4pairIKS5_S6_EEEEEixERSB_
u4b:__ZN15DirectorManager22ConstructPlayableGraphEv
D0c:_SymmetricAlgorithm_set_IV_m4262655606
HWh:_StencilMaterial__cctor_m2963056855
Z2h:_AnimatorControllerPlayable_Play_m614561002_AdjustorThunk
Eqg:_CustomAttributeNamedArgument_GetHashCode_m3715408876_AdjustorThunk
xLc:__Z38Register_UnityEngine_Font_HasCharacterv
Tsf:_X509Certificate2_AppendBuffer_m3517242299
p6a:__Z35IntersectSpherePlaneBoundsOptimizedRKN4math7_float4EPS1_i
pUd:_CultureInfo_get_IsNeutralCulture_m3874876470
rPd:_Delegate_CreateDelegate_m3813023227
dDi:_Uri_get_AbsoluteUri_m2120317928
Byj:__ZN6il2cpp2os5posix15PosixWaitObject13InterruptWaitEv
Dhd:_ColorTween_TweenValue_m3279916815
u8:__Z22CleanupLODGroupManagerPv
v0d:_Array_InternalArray__ICollection_Add_TisContentType_t1028629049_m2984242302_gshared
imc:__Z21Event_CUSTOM_PopEventP12Il2CppObject
iwj:__ZN6il2cpp8metadata15GenericMetadata20RegisterGenericClassEP18Il2CppGenericClass
nl:_glUniform3fv
hAb:__ZNSt3__218__insertion_sort_3IRN15ResourceManager10Dependency6SorterEPS2_EEvT0_S6_T_
mGe:_Enumerator_System_Collections_IEnumerator_Reset_m3796537546_AdjustorThunk
DKc:_UNITY_FT_Init_Class_tt_service_gx_multi_masters
A5f:__Z53RuntimeInvoker_Int32_t2071877448_TimeSpan_t3430258949PFvvEPK10MethodInfoPvPS4_
FXf:__Z64RuntimeInvoker_RuntimeObject_Int32_t2071877448_Int16_t4041245914PFvvEPK10MethodInfoPvPS4_
Ope:_IntComparer_Compare_m3057931085
S0a:__ZNK16LightmapSettings31GetRealtimeLightmapDecodeValuesEv
JN:__ZN5audio5mixer12SetSuspendedERNS0_16AudioMixerMemoryEb
$sa:__ZN17PersistentManager21UnloadNonDirtyStreamsEv
Yrj:__ZN6il2cpp2vm13LivenessStateC2EP11Il2CppClassjPFvPP12Il2CppObjectiPvES7_PFvvESB_
k9d:_Array_ConvertAll_TisRuntimeObject_TisRuntimeObject_m2423585546_gshared
OWa:__ZN12ImageFilters4BlitER17ShaderPassContextP7TextureP13RenderTextureiPK18SharedMaterialDataPKcP6ShaderiNS_9BlitFlagsE11CubemapFaceRK8Vector2fSH_
hrf:_Oid__ctor_m1936781897
LLg:_Object_INTERNAL_CALL_Internal_InstantiateSingleWithParent_m1401308849
PW:__ZN11UnityEngine15CloudWebService10RestClientINS0_23WebRequestRestHeaderMapEED2Ev
Kdi:_ResourceSet__ctor_m1222864106
nUe:_Collection_1_System_Collections_IList_get_Item_m3376056117_gshared
eta:__ZN18LoadSceneOperationD0Ev
kZh:_AnimationClipPlayable_INTERNAL_CALL_CreateHandleInternal_m218917601
lGe:_Enumerator_VerifyState_m3639069574_gshared
XHa:__ZN4crnd25static_huffman_data_model22prepare_decoder_tablesEv
NTe:_Enumerator_MoveNext_m689054299_gshared
laf:_ModulusRing_Difference_m662924064
fgd:_CanvasUpdateRegistry_ObjectValidForUpdate_m855695984
Wod:_InputField_set_onValueChanged_m2406388125
pAi:_Regex_Matches_m253372688
zda:__ZL22CleanupUnityWebStreamsPv
Nxi:_Regex_get_RightToLeft_m529734879
PPb:__Z18Transfer_BlittableI18StreamedBinaryReadILb0EELb0E10ColorRGBAfEvRK29SerializationCommandArgumentsR31RuntimeSerializationCommandInfo
Jnf:_ListDictionary_Add_m4276262662
Z8:__Znaj
i_c:_RIPEMD160Managed_GGG_m1639995340
n$j:_emscripten_glEnableClientState__wrapper
X$:__ZN17MessageIdentifierC2EPKcNS_7OptionsEPKN5Unity4TypeES1_
NG:__Z76AnimatorControllerPlayable_CUSTOM_INTERNAL_CALL_CrossFadeInFixedTimeInternalR9HPlayableifif
yVg:_Enumerator_System_Collections_IEnumerator_get_Current_m1648049763_gshared
jKj:__ZN6il2cpp6icalls8mscorlib4Mono8Security12Cryptography18KeyPairPersistence15_ProtectMachineEP12Il2CppString
Rsd:_Array_System_Collections_IList_Remove_m2438892375
Hme:_TextWriter__ctor_m2225796097
Chb:__ZN14SafeBinaryRead8TransferI14ConstantStringEEvRT_PKc17TransferMetaFlags
BHi:_ScriptableObject_Internal_CreateScriptableObject_m1778903390
vka:__ZNK6Camera16GetStereoEnabledEv
w1b:__ZN12LightManager15InitializeClassEv
vla:__ZN9ShaderLab11shaderprops16GetComputeBufferEPK19ShaderPropertySheetS3_NS_16FastPropertyNameE
jGg:_GUIStyle_GetFontInternal_m3509743324
W1:__ZN18ScriptingArgumentsC2Ev
MPf:_TimeZone_IsDaylightSavingTime_m875882154
JWj:_emscripten_glBlendFuncSeparate__wrapper
aff:_CipherSuiteCollection_System_Collections_IList_set_Item_m750275607
H$h:_AnimatorControllerPlayable_SetFloatID_m3806317182
rFa:__Z17HasSampledTexture14GraphicsFormat13formatSupport
hYa:__ZNK25CameraStackRenderingState27GetStereoImageEffectTextureEb
l$c:_SHA1CryptoServiceProvider__ctor_m3127563759
Zp:__ZN8Vector3f8TransferI14SafeBinaryReadEEvRT_
wOh:__ZL103BaseVertexEffect_t2504093552_CustomAttributesCacheGenerator_BaseVertexEffect_ModifyVertices_m3446986347P21CustomAttributesCache
Fo:FUNCTION_TABLE_ii
vWg:_Enumerator_MoveNext_m335649778_AdjustorThunk
Yib:__ZN10TagManager8TransferI18StreamedBinaryReadILb0EEEEvRT_
Sqc:__Z18Transfer_BlittableI9JSONWriteLb0E8BitFieldEvRK29SerializationCommandArgumentsR31RuntimeSerializationCommandInfo
eTf:_UInt32_ToString_m3894907091_AdjustorThunk
jUd:_CultureInfo_get_TextInfo_m1582311326
z$d:_Array_ForEach_TisRuntimeObject_m1849351808_gshared
mHg:_GUIStyle_get_contentOffset_m1904924583
Nxe:_SmallXmlParser_Error_m1832158746
Dk:_glDeleteVertexArrays
Sdb:__Z24CreateDirectoryRecursiveRKN4core12basic_stringIcNS_20StringStorageDefaultIcEEEE
_Uj:b41
oVb:__ZN9ShaderLab20SerializedSubProgram8TransferI18StreamedBinaryReadILb0EEEEvRT_
hme:_StreamAsyncResult_get_AsyncWaitHandle_m4218169359
Akc:__Z22MonoGUIContentToNative18ScriptingObjectPtrR10GUIContent
$Lc:__ZN2UI13CanvasManager9AddCanvasEPNS_6CanvasE
gwa:__ZN9Texture3D8TransferI19StreamedBinaryWriteILb0EEEEvRT_
mZa:__ZNK6Camera22CalculateRenderingPathEv
ksc:__ZN9JSONWrite8TransferI5RectTIfEEEvRT_PKc17TransferMetaFlags
AZh:_AnimationClipPlayable_INTERNAL_CALL_GetRemoveStartOffsetInternal_m3895628593
NKa:__Z13ConvertMipmap14GraphicsFormatPKvS_Pviiii
X$c:_SHA384Managed_processBlock_m3232296629
jBe:_X509Certificate_get_PublicKey_m714501701
WCc:_tt_sbit_decoder_load_image
aja:__Z14IsHalfRTFormat19RenderTextureFormat
E6c:_String_LastIndexOf_m290475879
Skc:__ZNSt3__24listIN10GUIManager12SortedScriptE11memory_poolIS2_EE6__sortI13OldSortScriptEENS_15__list_iteratorIS2_PvEESA_SA_jRT_
oTf:_UInt64_System_IConvertible_ToChar_m1930853313_AdjustorThunk
eif:_TlsClientCertificate_SendCertificates_m1096074091
HEd:_SyncHashtable_get_Item_m408601391
M3e:_ReadOnlyCollection_1_System_Collections_IEnumerable_GetEnumerator_m1401363518_gshared
TTe:_Stack_1_System_Collections_ICollection_CopyTo_m2104527616_gshared
DKf:_StringBuilder_AppendFormat_m1666670800
k3a:__ZN18DeferredRenderLoop13RenderGBufferEP13RenderTexturePS1_b8JobFencePK25DeferredRenderLoopScratchRi
Rbg:__Z97RuntimeInvoker_Boolean_t3825574718_RuntimeObject_TextGenerationSettings_t2543476768_RuntimeObjectPFvvEPK10MethodInfoPvPS4_
Wng:__Z80RuntimeInvoker_RuntimeObject_RaycastResult_t21186376_RuntimeObject_RuntimeObjectPFvvEPK10MethodInfoPvPS4_
gqj:__ZN6il2cpp6icalls8mscorlib6System9ThreadingL11ThreadStartEPv
Zaa:__ZN15DirectorManager12OnSampleTimeEv
c6e:_ReadOnlyCollection_1_System_Collections_IList_Remove_m3878418841_gshared
$od:_InputField_EnforceContentType_m1902926812
Vja:__ZN12CachedReader10Align4ReadEv
Brj:__ZN6il2cpp2vm9Exception28GetMarshalDirectiveExceptionEPKc
Tqe:_MulticastDelegate_GetObjectData_m3187757658
ehb:__ZNK9Behaviour22GetTypeVirtualInternalEv
Bkg:__Z74RuntimeInvoker_Void_t1841601450_Int32_t2071877448_RaycastHit2D_t4063908774PFvvEPK10MethodInfoPvPS4_
r7a:__Z21GetScriptingArraySize17ScriptingArrayPtr
_wc:__ZN20TextRenderingPrivate8FontImpl8TransferI14SafeBinaryReadEEvRT_
u_h:_AnimationOffsetPlayable_INTERNAL_CALL_CreateHandleInternal_m2301240007
Yna:__Z35UnityPropertySheet_MakeSortedColorsRKNSt3__23mapIN9ShaderLab16FastPropertyNameE10ColorRGBAfNS_4lessIS2_EENS_9allocatorINS_4pairIKS2_S3_EEEEEER10vector_mapIS2_S3_S5_NS6_INS7_IS2_S3_EEEEE
Hcg:__Z116RuntimeInvoker_Void_t1841601450_Rect_t3681755626_RuntimeObject_Int32_t2071877448_Int32_t2071877448_Int32_t2071877448PFvvEPK10MethodInfoPvPS4_
qGg:_GUIStyle_Draw_m4006459684
VCa:__ZN9GfxDevice17ImmediateTexCoordEifff
mzi:_Parser_ParseRegularExpression_m2390577313
vud:_Array_double_swapper_m1175307080
ouf:_X509CertificateEnumerator_System_Collections_IEnumerator_Reset_m327358896
M2c:_Hash__ctor_m2554411450
nae:_NumberFormatter_AppendDigits_m1308372770
s4c:_Single_System_IConvertible_ToDateTime_m2510003459_AdjustorThunk
KPd:_Delegate_RemoveImpl_m3666700529
AUj:_emscripten_glUniform4f__wrapper
bof:_NameObjectCollectionBase_OnDeserialization_m3478980442
Nod:_InputField_set_caretColor_m2252440840
kU:__Z78Register_UnityEngine_Audio_AudioPlayableOutput_INTERNAL_CALL_InternalSetTargetv
bD:__ZN8Animator8TransferI19StreamedBinaryWriteILb0EEEEvRT_
K$a:__ZNK6Camera16GetProjectionFarEv
_q:__Z24InverseTransformRotationRK23TransformAccessReadOnlyRKN4math7_float4E
Roe:_MissingFieldException__ctor_m1161042282
z_d:_Array_InternalArray__IndexOf_TisSlot_t2267560602_m1912863273_gshared
snb:__ZNK14PlayableOutput11DerivesFromE17ScriptingClassPtr
lwa:__ZN7Texture34CreateFileTextureUploadInstructionE18TextureUploadFlagsj
DWa:__ZN13ComputeShader14SetBufferParamEjRKN9ShaderLab16FastPropertyNameE15ComputeBufferID
R5e:_ReadOnlyCollection_1_System_Collections_Generic_IListU3CTU3E_Insert_m3054305464_gshared
UC:__ZN8Animator8TransferI14SafeBinaryReadEEvRT_
Q_d:_Array_InternalArray__IndexOf_TisTypeTag_t141209596_m2882894956_gshared
TVh:_Slider_get_value_m4182660424
i6:__Z23AsyncReadForceCloseFileRKN4core12basic_stringIcNS_20StringStorageDefaultIcEEEE
st:__ZN17AnimationPlayable34CollectAnimatorControllerPlayablesER13dynamic_arrayIP26AnimatorControllerPlayableLj4EE
aT:__ZN16BaseVideoTexture19UpdateVideoTexturesEv
Qlb:__Z28BuildSingleStreamChannelInfo17ShaderChannelMaskRK20VertexChannelsLayoutS_S2_P11ChannelInfo
Kua:__ZNK16LightmapSettings23HasLightProbeTetrahedraEv
rhf:_Context_get_WriteSequenceNumber_m243492531
Msb:__ZN6Sprite23VirtualRedirectTransferER19StreamedBinaryWriteILb0EE
w6c:_String_LastIndexOfAny_m1473637802
XWh:_Text_get_resizeTextMaxSize_m2671487437
Fhj:__ZNK15dense_hashtableINSt3__24pairIK10KeyWrapperINS1_IPK9FieldInfoP11Il2CppClassEEEjEES9_17ReflectionMapHashIS8_EN14dense_hash_mapIS9_jSD_NS9_14EqualsComparerINS0_8equal_toIS8_EEEENS0_9allocatorISB_EEE9SelectKeyESI_SK_E5beginEv
Nla:__ZNK9ShaderLab7Program19HasMatchingVariantsERK13dynamic_arrayI16ShaderKeywordSetLj4EE
SA:__ZN15SerializeTraitsIN4math4trsXEE8TransferI8BlobSizeEEvRS1_RT_
YFa:__ZN14DataBufferGLES11CopySubDataEPKS_jjj
me:_emscripten_glVertexPointer
jPa:__ZNSt3__26__treeI20DeviceDepthStateGLES11memcmp_lessIS1_S1_ENS_9allocatorIS1_EEE7destroyEPNS_11__tree_nodeIS1_PvEE
SNc:__ZN2UI13PrepareOutputERNS_7BatchesEjjNS_30AdditionalCanvasShaderChannelsE
Pcj:__ZN6il2cpp2vm7Runtime47RaiseExecutionEngineExceptionIfMethodIsNotFoundEPK10MethodInfo
S2a:__Z17GetFrustumPortionPK8Vector3fffPS_
gtj:__ZN15dense_hashtableINSt3__24pairIK10KeyWrapperIP14Il2CppIUnknownEjEES5_N6il2cpp5utils11PointerHashIS3_EEN14dense_hash_mapIS5_jSB_NS5_14EqualsComparerINS0_8equal_toIS4_EEEENS0_9allocatorIS7_EEE9SelectKeyESG_SI_E14squash_deletedEv
sGh:__ZL60MovedFromAttribute_t922195725_CustomAttributesCacheGeneratorP21CustomAttributesCache
Eid:_DefaultControls_CreateDropdown_m1384069408
ucd:_PointerEventData_get_clickCount_m4064532478
ySd:_EventArgs__cctor_m1350395667
aHi:_X509Stores_Open_m2057354563
cTd:_CCGregorianCalendar_is_leap_year_m567513478
Wud:_Attribute_IsDefined_m2118467641
bbd:_ExecuteEvents_Execute_m898902863
Uli:_InternalEnumerator_1_System_Collections_IEnumerator_get_Current_m3125080595_gshared
A_e:_Collection_1_System_Collections_IList_Add_m2091889616_gshared
i5b:__ZN16StreamedResource8TransferI24GenerateTypeTreeTransferEEvRT_
_jd:_DropdownItem_OnPointerEnter_m761897861
UZh:_AnimationLayerMixerPlayable_INTERNAL_CALL_IsLayerAdditiveInternal_m364677421
CH:__Z90Register_UnityEngine_Animations_AnimatorControllerPlayable_INTERNAL_CALL_CrossFadeInternalv
oMa:__ZN10Matrix3x3f15InvertTransposeEv
eWd:_Array_InternalArray__ICollection_Remove_TisKeyValuePair_2_t1174980068_m2768765894_gshared
u$h:_AnimatorControllerPlayable_GetFloat_m1229536053
iYe:_Collection_1_set_Item_m2199807215_gshared
yHb:__Z29Transfer_Blittable_ArrayFieldI14SafeBinaryRead8Vector3fEvRT_R9ArrayInfoRK23StaticTransferFieldInfo
qSf:_UInt32_System_IConvertible_ToBoolean_m91295134
SMf:_Monitor_Monitor_test_synchronised_m1542589500
Sxc:__ZN20TextRenderingPrivate8FontImpl18ResetCachedTextureEv
Ize:_SymmetricTransform_TransformFinalBlock_m4192185386
Mce:_TextInfo__ctor_m1263401274
tKi:_TouchScreenKeyboard_Open_m913506328
GFj:_GC_print_finalization_stats
mXg:_ValueCollection__ctor_m927733289_gshared
Rbc:__Z53Register_UnityEngine_Behaviour_get_isActiveAndEnabledv
Tpf:_IPAddress_ToString_m267966740
Dq:__ZNSt3__26vectorIN4core12basic_stringIcNS1_20StringStorageDefaultIcEEEENS_9allocatorIS5_EEE8__appendEj
Fzb:__ZN26PlayerSettingsSplashScreen8TransferI17RemapPPtrTransferEEvRT_
Fpi:_InternalEnumerator_1_get_Current_m3922357178_gshared
ybj:__ZN6il2cpp6icalls8mscorlib6SystemL17CollectTypeFieldsINS_5utils10functional10TrueFilterEEEvP11Il2CppClassPKS7_iRNSt3__26vectorIP9FieldInfoNSB_9allocatorISE_EEEERKT_
jJh:__ZL72ColorBlock_t2652774230_CustomAttributesCacheGenerator_m_HighlightedColorP21CustomAttributesCache
cQf:_Type_get_IsValueType_m1733572463
fZb:__Z13GetTagManagerv
GWd:_Array_InternalArray__ICollection_Remove_TisUInt16_t986882611_m65494986_gshared
F4e:_ReadOnlyCollection_1_IndexOf_m3054637117_gshared
K1i:__ZL10roundUp128PyS_
YU:__ZN11UnityEngine15CloudWebService17CloudJobSchedulerD0Ev
r5c:_String_System_IConvertible_ToBoolean_m2696751322
ita:__ZN18LoadSceneOperation7PerformEv
NCg:_GUILayer_INTERNAL_CALL_HitTest_m693512502
zMc:__ZNK2UI11CanvasGroup22GetTypeVirtualInternalEv
z6c:_String_LastIndexOfAny_m4281325295
l7h:_Camera_get_pixelRect_m2084185953
Wfg:__Z163RuntimeInvoker_Void_t1841601450_RuntimeObject_Int32_t2071877448_SByte_t454417549_SByte_t454417549_SingleU26_t4173844468_SingleU26_t4173844468_SingleU26_t4173844468PFvvEPK10MethodInfoPvPS4_
ilc:__Z21CleanupGlobalGUIStatev
GOf:_TimeSpan__ctor_m1888018443_AdjustorThunk
umg:__Z74RuntimeInvoker_Int32_t2071877448_UIVertex_t1204258818_UIVertex_t1204258818PFvvEPK10MethodInfoPvPS4_
CEd:_SyncHashtable_get_Count_m3694444082
Tfj:__ZNSt3__26vectorINS_12basic_stringIcNS_11char_traitsIcEENS_9allocatorIcEEEENS4_IS6_EEE8allocateEj
LNa:__ZN22VertexDeclarationCache5ClearEv
g_j:_emscripten_glUniform2i__wrapper
Sbb:__ZN17PersistentManager12SetPathRemapERKN4core12basic_stringIcNS0_20StringStorageDefaultIcEEEES6_
Ov:__Z27ProcessRootMotionEmptyMixerP35AnimationPlayableEvaluationConstantP32AnimationPlayableEvaluationInputP33AnimationPlayableEvaluationOutput
y4a:__ZN6Camera24PrepareCullingParametersERK23CameraCullingParameters13RenderingPathR11CullResults
E7b:__Z12SetIUISystemP9IUISystem
uta:__ZN19RuntimeSceneManager22EndIntegrateMainThreadEP10UnitySceneNS_11LoadingModeE
SIb:__Z26Transfer_UnityEngineObjectI17RemapPPtrTransferLb0EEvRK29SerializationCommandArgumentsR31RuntimeSerializationCommandInfo
G6c:_String_IsNullOrEmpty_m2802126737
Hxd:_Byte_Parse_m1442736478
Ige:_Int64_Parse_m3258022240
q6c:_String_IndexOfOrdinal_m3591623977
$Ji:_Texture2D_get_whiteTexture_m1979591766
gHf:_CryptoConfig_EncodeLongNumber_m2352037787
HQf:_Type_GetMethod_m475234662
xfi:_ActivationServices_get_ConstructionActivator_m1726426854
$Kb:__Z29Transfer_Blittable_ArrayFieldI24GenerateTypeTreeTransfer4AABBEvRT_R9ArrayInfoRK23StaticTransferFieldInfo
Ajh:__ZL52Activator_t1850728717_CustomAttributesCacheGeneratorP21CustomAttributesCache
IGj:_GC_adj_bytes_allocd
q0d:_Array_InternalArray__ICollection_Add_TisKeyframe_t1449471340_m887263954_gshared
GLi:_UIVertex__cctor_m803910084
V1d:_Array_InternalArray__Insert_TisDateTime_t693205669_m1484996356_gshared
yLe:_List_1_System_Collections_IList_Remove_m3933652540_gshared
tle:_MonoIO_get_ConsoleInput_m2976499023
Qvg:_OpCode_get_Size_m481593949_AdjustorThunk
YBd:_BitArrayEnumerator_checkVersion_m3839504595
ktd:_Array_GetUpperBound_m1352329707
K$b:__ZNK17AnimationCurveTplIfE20FindIndexForSamplingERKNS0_5CacheEfRiS4_
Ca:invoke_fiiifii
b6c:_String_TrimEnd_m3153143011
fNd:_DateTimeOffset_Equals_m3728302791_AdjustorThunk
D2a:__ZN20SphericalHarmonicsL219AddDirectionalLightERKN4math7_float3ERKNS0_7_float4E
DPf:_TimeSpan_op_GreaterThanOrEqual_m3997050520
Saa:__Z26ScheduleJobForEachInternalR8JobFencePFvPvjES1_iPFvS1_E11JobPriority
Zrf:_OidEnumerator_MoveNext_m1889267785
sUa:__ZZ23InitPlayerLoopCallbacksvEN41PostLateUpdateProfilerEndFrameRegistrator7ForwardEv
$7b:__ZN9Scripting18RaiseMonoExceptionEPKcz
vpb:__ZN9Texture2D8TransferI19StreamedBinaryWriteILb0EEEEvRT_
xEg:_GUISkin_set_box_m877476512
_Ri:_TweenRunner_1_StartTween_m3792842064_gshared
W1b:__ZN9ShaderLab16FastPropertyName15InitBy28BitHashEj
A4c:_Single_System_IConvertible_ToInt32_m3269519527_AdjustorThunk
r$c:_SHA1Internal_ProcessBlock_m4070037334
Qva:__ZN17PersistentManager17IsObjectAvailableEi
cIj:__ZN6il2cpp6icalls8mscorlib6System10Reflection14MonoMethodInfo15get_method_infoE12Il2CppIntPtrP16Il2CppMethodInfo
_2d:_Array_InternalArray__set_Item_TisDouble_t4078015681_m24756265_gshared
XAf:_ObjRef_GetObjectData_m3081609242
n$b:__ZN13ProduceHelperIN2UI13RectTransformELb0EE7ProduceE18MemLabelIdentifier18ObjectCreationMode
qvb:__ZN17PackedFloatVector12UnpackFloatsEPfiiii
U1e:_ReadOnlyCollection_1__ctor_m3671019970_gshared
Uy:__ZN17AnimationPlayable28UpdateInternalStateRecursiveILi3ELb0EEEvPK35AnimationPlayableEvaluationConstant
QDa:__ZN13GfxDeviceGLES21DestroyComputeProgramER12ObjectHandleI18ComputeProgram_TagPvE
lId:_Convert_ToDecimal_m2007036836
y8:__ZN17UniqueIDGenerator16DestroyPureIndexEj
I4:__ZL21AppendNestedClassName17ScriptingClassPtrRN4core17string_with_labelILi1EEE
cTb:__ZN14SafeBinaryRead21TransferSTLStyleArrayINSt3__26vectorIN9ShaderLab20SerializedSubProgram12UAVParameterENS1_9allocatorIS5_EEEEEEvRT_17TransferMetaFlags
Ehi:_Context_NotifyDynamicSinks_m1367144344
fW:__ZN24TextDOMTransferWriteBaseI9JSONWriteE12PushMetaFlagEi
Xsc:__Z18Transfer_BlittableI8JSONReadLb1E10ColorRGBAfEvRK29SerializationCommandArgumentsR31RuntimeSerializationCommandInfo
Uff:_TlsClientCertificateVerify__ctor_m110646389
wra:__ZN6prcoreL26RemapGenericIntegerToFloatI17TexFormatARGB888815TexFormatRFloatEEvPKNS_9InnerInfoE
Nhi:_Context_GetServerContextSinkChain_m390126977
Gfj:__ZN6il2cpp2vm17TypeNameParseInfoD2Ev
ane:_StringReader_Read_m513112775
crb:__ZNK8Renderer8GetLayerEv
Qkb:__ZN12FlareManager11DeleteFlareEi
X_a:__ZNK6Camera20GetReplacementShaderEv
kWj:_glProgramBinary__wrapper
RNd:_Decimal__ctor_m569480123_AdjustorThunk
kpf:_HttpWebRequest__cctor_m3013631978
GJj:__ZNSt3__26__treeINS_12__value_typeINS_12basic_stringIcNS_11char_traitsIcEENS_9allocatorIcEEEEPFvvEEENS_19__map_value_compareIS7_SA_NS_4lessIS7_EELb1EEENS5_ISA_EEE4findIS7_EENS_15__tree_iteratorISA_PNS_11__tree_nodeISA_PvEEiEERKT_
pTb:__ZNSt3__26vectorIN9ShaderLab20SerializedSubProgram14ConstantBufferENS_9allocatorIS3_EEE7reserveEj
zva:__ZL23stbir__calculate_memoryP11stbir__info
V1f:__Z83RuntimeInvoker_Void_t1841601450_Int64_t909078037_Int32_t2071877448_Int64_t909078037PFvvEPK10MethodInfoPvPS4_
JSh:_Scrollbar_FindSelectableOnRight_m3219495255
yvc:__ZNK9rapidjson12GenericValueINS_4UTF8IcEE13JSONAllocatorE6AcceptINS_12PrettyWriterI16TempBufferWriterS2_S2_S3_EEEEbRT_
_Wa:__ZNK6Camera18GetRenderRectangleEv
E1d:_Array_InternalArray__ICollection_CopyTo_TisVector3_t2243707580_m509487340_gshared
Xoc:__Z59Register_UnityEngine_GUIUtility_Internal_GetKeyboardControlv
gH:__Z82AnimatorControllerPlayable_CUSTOM_INTERNAL_CALL_IsParameterControlledByCurveStringR9HPlayableP12Il2CppString
ytc:__ZL26Transfer_SimpleNativeClassI8JSONRead10RectOffsetLb1EEvRK29SerializationCommandArgumentsR31RuntimeSerializationCommandInfo
BPc:__Z44CanvasRenderer_CUSTOM_INTERNAL_CALL_SetColorP12Il2CppObjectRK10ColorRGBAf
z8d:_Component_GetComponentInChildren_TisRuntimeObject_m1823576579_gshared
MEh:__ZL68PreferBinarySerialization_t2472773525_CustomAttributesCacheGeneratorP21CustomAttributesCache
hFj:_GC_should_collect
Lfi:_UrlAttribute_Equals_m1587451932
Cqc:__Z18Transfer_BlittableI9JSONWriteLb1EsEvRK29SerializationCommandArgumentsR31RuntimeSerializationCommandInfo
Zee:_Int16_ToString_m4099416068_AdjustorThunk
iIf:_DSAParameters_t1872138834_marshal_pinvoke_cleanup
Eac:__ZN9Transform16SetLocalRotationERK11Quaternionf
e0h:_AnimatorControllerPlayable_INTERNAL_CALL_GetIntegerID_m1635852922
gpi:_InternalEnumerator_1_get_Current_m3206960238_AdjustorThunk
xVa:__ZN13RenderManager37RenderCamerasWithScriptableRenderLoopEi
jwe:_ASN1_Element_m2600236165
N9:__ZN23InstancedPropInfoStaticL16RegisterCallbackEPv
$A:__ZN7mecanim8skeleton25SkeletonPoseComputeLocalQEPKNS0_8SkeletonEPKNS0_13SkeletonPoseTIN4math4trsXEEEPS7_ii
nxj:__ZN6il2cpp2os19ReleaseSocketHandleEj
GS:__ZN11AudioModule16GetDSPSampleRateEv
Jrg:_TypeBuilder_get_next_table_index_m1415870184
_Qj:___cxa_can_catch
Yaf:_SequentialSearchPrimeGeneratorBase_GenerateNewPrime_m296245934
Myd:_Char_GetUnicodeCategory_m4273361321
Foe:_Math_Round_m565516458
vhi:_Identity_get_ClientDynamicProperties_m767245959
uyj:__ZN6il2cpp2os5posix15PosixWaitObjectC2ENS2_4TypeE
hZa:__ZN6Camera21PostMultiCustomRenderENS_10RenderFlagEb
_vg:_TypeBuilder_create_generic_class_m986834171
mLa:__ZN12_GLOBAL__N_112UploadImagesEP7ApiGLESjji14GraphicsFormatPKhjS2_iiii16TextureUsageModePh
Uya:__ZN23ShaderVariantCollection13WarmupShadersEv
ehf:_Context_set_ProtocolNegotiated_m1177527245
uSf:_UInt32_System_IConvertible_ToChar_m1056040486
n4:__Z25GetCommonScriptingClassesv
Nmf:_TlsStream_get_Length_m1562309511
Lta:__Z27scripting_gc_collect_unsafei
LS:__ZN11AudioModule20SuspendVideoTexturesEv
r1b:__ZN12CubemapArrayC2E18MemLabelIdentifier18ObjectCreationMode
MGd:_Convert_ToByte_m395020137
uMg:_Plane_ToString_m3541300360_AdjustorThunk
wKb:__Z26Transfer_UnityEngineObjectI24GenerateTypeTreeTransferLb0EEvRK29SerializationCommandArgumentsR31RuntimeSerializationCommandInfo
QHc:_UNITY_FT_GlyphLoader_CheckPoints
eAj:__ZN6il2cpp2vm6Method11GetFullNameEPK10MethodInfo
Pne:_TextWriter_WriteLine_m1754475888
Fwa:__ZN15SharedLightData7PrecalcEv
xua:__ZN10Matrix4x4fmLERKS_
GOi:_InvokableCall_1_Invoke_m769918017_gshared
K7d:_Array_InternalArray__get_Item_TisDouble_t4078015681_m2215331088_gshared
jYg:_Dictionary_2_Init_m3666073812_gshared
YSa:__ZN15ArchiveReadFileD0Ev
Bze:_SymmetricTransform_TransformBlock_m1524716432
uZd:_Array_compare_TisColor32_t874517518_m3842009370_gshared
ySc:__ZN11UnityEngine15PlatformWrapper18GetOperatingSystemEv
Y6e:_ReadOnlyCollection_1_System_Collections_Generic_ICollectionU3CTU3E_Remove_m974176789_gshared
oPd:_Delegate_return_type_match_m4278947849
Bqd:_InputField_GenerateHightlight_m1346735465
ECi:_Uri_ParseNoExceptions_m1151989845
dGd:_GC_SuppressFinalize_m953228702
MHc:_FT_MSB
kHg:_GUIStyle_get_clipping_m2754700641
sCf:_SoapServices_PreLoad_m490411755
l$f:__Z63RuntimeInvoker_RuntimeObject_Int32_t2071877448_SByte_t454417549PFvvEPK10MethodInfoPvPS4_
hKj:__ZN6il2cpp6icalls8mscorlib4Mono8Security12Cryptography18KeyPairPersistence10_CanSecureEP12Il2CppString
Gji:_Action_1_Invoke_m4180501989_gshared
BVh:_Slider__ctor_m3124136916
wAa:__ZN13GfxDeviceGLES14SetRasterStateEPK17DeviceRasterState
Krf:_OidCollection_Add_m3712419303
kLi:_Transform_InverseTransformPoint_m2648491174
Agf:_TlsServerHello__ctor_m3032108168
eja:__ZN14SafeBinaryRead11EndTransferEv
jbh:__ZL98ILGenerator_t99948092_CustomAttributesCacheGenerator_ILGenerator_Mono_GetCurrentOffset_m3553856682P21CustomAttributesCache
VFb:__ZN14SafeBinaryRead8TransferI8MonoPPtrEEvRT_PKc17TransferMetaFlags
Iti:_InternalEnumerator_1_System_Collections_IEnumerator_get_Current_m1533037706_gshared
YLa:__ZN21UniformBufferTFMethod13MapBoneBufferEj
qkf:_RecordProtocol_SendChangeCipherSpec_m3542001341
K3d:_Array_InternalArray__set_Item_TisVector3_t2243707580_m1390667454_gshared
wkc:__ZN12GUIClipState10BeginOnGUIER10InputEvent
Eqj:__ZNSt3__26vectorIcNS_9allocatorIcEEEC2Ej
yxe:_KeyPairPersistence_CanSecure_m2251009700
Dw:__ZN7mecanim5human14HumanPoseClearERNS0_9HumanPoseERKNS_6bitsetILj70EEE
Wzf:_ReturnMessage_get_Properties_m531965085
Ktg:_GenericTypeParameterBuilder_IsSubclassOf_m563999142
PSd:_Exception_ToString_m627574695
wyc:__ZNSt3__26vectorIN20TextRenderingPrivate8FontImpl7IntRectE13stl_allocatorIS3_L18MemLabelIdentifier34ELi16EEE21__push_back_slow_pathIKS3_EEvRT_
cmc:__Z30Event_Get_Custom_PropModifiersP12Il2CppObject
It:__ZN7mecanim9animation16CreateClipOutputEPKNS0_4ClipERNS_6memory9AllocatorE
W1d:_Array_InternalArray__Insert_TisDecimal_t724701077_m1429254816_gshared
KOf:_TimeSpan_get_Days_m1002111510
vya:__ZNSt3__218__stable_sort_moveIRN10vector_mapI17ScriptingClassPtrPKN5Unity4TypeENS_4lessIS2_EENS_9allocatorINS_4pairIS2_S6_EEEEE13value_compareENS_11__wrap_iterIPSB_EEEEvT0_SJ_T_NS_15iterator_traitsISJ_E15difference_typeEPNSM_10value_typeE
YRb:__ZN6Shader21AwakeFromLoadThreadedEv
yqa:__ZN6prcoreL17RemapGenericFloatI17TexFormatRGBFloat17TexFormatRGBAHalfEEvPKNS_9InnerInfoE
JKh:__ZL70InputField_t1631627530_CustomAttributesCacheGenerator_m_CharacterLimitP21CustomAttributesCache
jvc:__ZN8JSONRead21TransferSTLStyleArrayI13dynamic_arrayI8Vector2fLj4EEEEvRT_18MemLabelIdentifier17TransferMetaFlags
tLj:__ZN6il2cpp2os9SemaphoreC2Eii
Qli:_InternalEnumerator_1_get_Current_m2960188445_AdjustorThunk
XFb:__ZNSt3__26vectorI8MonoPPtr13stl_allocatorIS1_L18MemLabelIdentifier1ELi16EEE8__appendEj
aXh:_Text_set_alignByGeometry_m1514652028
MZa:__ZN14qsort_internal30FindAndMovePivotToLastPositionIP17RODataReplacementi19ROSorterReplacementEEvT_S4_T0_T1_
hMa:__ZN15UniformTFMethod20IsBoneCountSupportedEi
u1c:_X509Certificate_GetExpirationDateString_m2351894475
Xkb:__ZN15SerializeTraitsI13dynamic_arrayI21PlatformShaderDefinesLj4EEE19ResizeSTLStyleArrayERS2_i18MemLabelIdentifier
Tje:_FileStream_get_Position_m465478322
r6i:__ZN14dense_hash_setI10KeyWrapperIPK19Il2CppGenericMethodEN6il2cpp8metadata23Il2CppGenericMethodHashENS4_14EqualsComparerINS6_26Il2CppGenericMethodCompareEEENSt3__29allocatorIS4_EEEC2EjRKS7_RKSA_
hSj:dynCall_viidi
_1d:_Array_InternalArray__Insert_TisInt64_t909078037_m3039874636_gshared
MXh:_ToggleGroup_NotifyToggleOn_m997426227
Akf:_RSASslSignatureDeformatter_SetKey_m1150106904
f2:__ZN24ScriptingMethodFiltering17FilterOnSignatureENS_18MethodSearchFilterE
tSh:_Scrollbar_ClickRepeat_m3403943364
YR:__ZN13ProduceHelperI9AudioClipLb0EE7ProduceE18MemLabelIdentifier18ObjectCreationMode
Nda:__ZN18ScreenManagerWebGL13SetLockCursorE14CursorLockMode
iHc:_cf2_arrstack_finalize
jqe:_MonoType_GetMethodsByName_m1854415088
dSg:_Enumerator_get_CurrentValue_m3147984131_gshared
c$i:_DisplayBuffer_CutViewport_m34694897
Srg:_DerivedType_GetMethods_m165266904
gze:_RSAManaged_EncryptValue_m4089823119
Y_b:__ZN13MonoBehaviour19HandleNotificationsEPviR11MessageData
WLj:__ZN6il2cpp2os9EventImpl5ResetEv
TFg:_GUIStyle_set_focused_m1547304893
Hke:_ReadDelegate_Invoke_m2091885836
$sg:_TypeBuilder_GetField_m2112455315
JVj:b58
KVj:b59
rVj:b52
sVj:b53
pVj:b50
qVj:b51
FVj:b56
IVj:b57
tVj:b54
uVj:b55
mLd:_DateTime__ctor_m3604679583_AdjustorThunk
vye:_MACAlgorithm_Core_m2390605245
Msi:_InternalEnumerator_1_System_Collections_IEnumerator_get_Current_m30488070_gshared
TZb:__ZN10GameObject12CleanupClassEv
zei:_DllImportAttribute__ctor_m1165454237
aBa:__ZN9GfxDevice25SetShaderPropertiesSharedERK19ShaderPropertySheet
sRi:_IndexedSet_1_GetEnumerator_m3646001838_gshared
mDb:__ZN10MonoScript17MainThreadCleanupEv
oHa:__ZN18AsyncUploadManager19AsyncResourceUploadER9GfxDeviceii9TextureID
PQh:_VertexHelper_AddUIVertexTriangleStream_m4009409241
E2b:__ZL25InitializeDefaultMaterialv
$Pc:__Z53Register_UnityEngine_CanvasRenderer_get_materialCountv
xOf:_WaitHandle_Dispose_m441403862
oYh:_VertexHelper_AddVert_m3290455716
Ixa:__ZN17PersistentManager12UnloadStreamERKN4core12basic_stringIcNS0_20StringStorageDefaultIcEEEEb
Eda:__ZN13ScreenManager17RequestResolutionEiibi
DHf:_DESTransform__ctor_m4096028381
jej:_il2cpp_unity_liveness_calculation_from_statics
kx:__ZNK26AnimatorControllerPlayable11DerivesFromE17ScriptingClassPtr
ZNf:_Scheduler_get_Instance_m1989471839
Wqf:_WebProxy_GetProxy_m1249556681
brf:_WebRequest_System_Runtime_Serialization_ISerializable_GetObjectData_m3377822910
Drb:__ZN8Renderer8TransferI17RemapPPtrTransferEEvRT_
ing:__Z76RuntimeInvoker_Boolean_t3825574718_UIVertex_t1204258818_UIVertex_t1204258818PFvvEPK10MethodInfoPvPS4_
JYe:_Collection_1_Contains_m1299140035_gshared
HVj:_glBlitFramebuffer__wrapper
w0d:_Array_InternalArray__ICollection_Add_TisUICharInfo_t3056636800_m968274080_gshared
CSi:_ObjectPool_1__ctor_m1532275833_gshared
HPe:_List_1_GetIndex_m3262928832_gshared
hfi:_SafeHandle_DangerousRelease_m2167699172
V7a:__Z24LookRotationToQuaternionRK8Vector3fS1_P11Quaternionf
T7a:__ZN16ReflectionProbes9GetCameraEv
N1h:_AnimatorControllerPlayable_ResolveHash_m3629783965_AdjustorThunk
uWb:__ZL18IsGpuProgramUsable20ShaderGpuProgramTypePK6Shader
KCe:_ArgumentException__ctor_m2105824819
BOc:__ZN2UI6Canvas17SetSortingLayerIDEi
hfd:_BaseMeshEffect_get_graphic_m3358796463
ryj:__ZN6il2cpp2vm11MethodStack23CleanupForCurrentThreadEv
V0i:_Predicate_1_Invoke_m695569038_gshared
nEe:_Enumerator_VerifyState_m825848279_AdjustorThunk
mlb:__ZN20TierGraphicsSettings8TransferI24GenerateTypeTreeTransferEEvRT_
y7i:__ZN15dense_hashtableINSt3__24pairIK10KeyWrapperIN6il2cpp5utils13dynamic_arrayIPK10Il2CppTypeLj4EEEEPFvvEEESA_NS3_8metadata19Il2CppSignatureHashEN14dense_hash_mapISA_SD_SG_NSA_14EqualsComparerINSF_22Il2CppSignatureCompareEEENS0_9allocatorISE_EEE9SelectKeyESK_SM_E16reset_thresholdsEv
qHb:__ZN14SafeBinaryRead21TransferSTLStyleArrayI13dynamic_arrayI4AABBLj4EEEEvRT_17TransferMetaFlags
Tna:__ZN18UnityPropertySheet8TransferI19StreamedBinaryWriteILb0EEEEvRT_
Oif:_TlsServerCertificate_checkServerIdentity_m3836435780
Gba:__ZNSt3__26__treeINS_12__value_typeIiN11TypeManager18TypeCallbackStructEEENS_19__map_value_compareIiS4_NS_4lessIiEELb1EEENS_9allocatorIS4_EEE7destroyEPNS_11__tree_nodeIS4_PvEE
iAe:_PKCS12_Decrypt_m2353135969
wci:_PersistentCallGroup_Initialize_m3908067069
myg:_MonoEvent_ToString_m386956596
nEh:__ZL70RuntimePlatform_t1869584967_CustomAttributesCacheGenerator_FlashPlayerP21CustomAttributesCache
T4d:_Array_Sort_TisRuntimeObject_m3309514378_gshared
wka:__ZL19GetCameraTargetRectRK6Camerabb
wUg:_Transform_1_BeginInvoke_m1786442111_gshared
Cee:_Int32_GetFormatException_m1729046182
M8a:__ZN13dynamic_arrayIN10GameObject13ComponentPairELj4EE6insertEPS1_RKS1_
dgb:__ZN21UnityDefaultAllocatorI17LowLevelAllocatorE10DeallocateEPv
tZ:__GLOBAL__sub_I_runtime_camera2_lump_cpp
Kr:__ZN15PackedIntVector8TransferI14SafeBinaryReadEEvRT_
Lwg:_FieldInfo_get_IsLiteral_m267898096
Olf:_SslStreamBase_EndNegotiateHandshake_m1732321201
UUg:_Transform_1_BeginInvoke_m1167293475_gshared
bK:__ZN13AudioListener8DoUpdateEv
HGd:__Z13bankers_roundd
wzb:__ZN14SafeBinaryRead8TransferI5RectTIfEEEvRT_PKc17TransferMetaFlags
vi:_emscripten_glGenFramebuffers
NDd:_Hashtable_CopyTo_m2778915805
Bba:__ZN17BaseObjectManager16StaticInitializeEPv
grg:_ConstructorBuilder_get_IsCompilerContext_m2796899803
h_d:_Array_IndexOf_TisUIVertex_t1204258818_m613887160_gshared
AAb:__ZN18StreamedBinaryReadILb0EE19TransferSTLStyleMapINSt3__28multimapIN4core12basic_stringIcNS4_20StringStorageDefaultIcEEEE4PPtrI6ObjectENS2_4lessIS8_EE13stl_allocatorINS2_4pairIKS8_SB_EEL18MemLabelIdentifier51ELi16EEEEEEvRT_17TransferMetaFlags
gHd:_DateTime_CoreParse_m2014268103
jNe:_List_1__ctor_m3698273726_gshared
Y3h:_Application_InvokeOnBeforeRender_m799598445
grc:__Z18Transfer_BlittableI9JSONWriteLb0EyEvRK29SerializationCommandArgumentsR31RuntimeSerializationCommandInfo
Cka:__ZN13RenderTexture15ThreadedCleanupEv
yWc:__ZNK20UnityWebRequestProtoI19TransportJavaScript16AtomicRefCounter14RedirectHelper14ResponseHelper15DownloadHandler13UploadHandler12HeaderHelper14AsyncOperationE19GetDownloadProgressEv
hZd:_Array_BinarySearch_TisRuntimeObject_m3361740551_gshared
_nb:__ZN12CubemapArray23VirtualRedirectTransferER14SafeBinaryRead
Lt:__ZN21AnimationClipPlayable16ProcessHumanPassEPK35AnimationPlayableEvaluationConstantPK32AnimationPlayableEvaluationInputP33AnimationPlayableEvaluationOutput
pec:__Z51Register_UnityEngine_QualitySettings_set_vSyncCountv
d7e:_ReadOnlyCollection_1_System_Collections_IList_Add_m616574295_gshared
Dee:_Int32_ProcessTrailingWhitespace_m2812079777
ahc:__Z43RectTransform_CUSTOM_INTERNAL_set_sizeDeltaP12Il2CppObjectRK13Vector2fIcall
Rqf:_WebProxy__ctor_m3679722173
yuj:__ZN15dense_hashtableINSt3__24pairIK10KeyWrapperINS1_IPKcS4_EEEiEES6_24NamespaceAndNamePairHashN14dense_hash_mapIS6_iS9_NS6_14EqualsComparerI26NamespaceAndNamePairEqualsEENS0_9allocatorIS8_EEE9SelectKeyESD_SF_E6insertERKS8_
Ija:__ZN24GenerateTypeTreeTransfer18BeginArrayTransferEPKcS1_Ri17TransferMetaFlags
uHa:__Z16DecompressCrunchPKhRjR13TextureFormatiiii18MemLabelIdentifier
nm:___syscall51
rm:___syscall54
WPi:_UnityAction_2_Invoke_m1994351568_gshared
SC:__ZNK8Animator20IsAnyRendererVisibleEv
RHc:_cff_builder_add_point1
svj:__ZN6il2cpp2vm5Image21GetCachedResourceDataEPK11Il2CppImageRKNSt3__212basic_stringIcNS5_11char_traitsIcEENS5_9allocatorIcEEEE
Umd:_HorizontalOrVerticalLayoutGroup_set_childControlWidth_m4209477792
k0d:_Array_InternalArray__ICollection_Add_TisUInt32_t2149682021_m2629016323_gshared
OEb:__Z18Transfer_BlittableI14SafeBinaryReadLb0E10ColorRGBAfEvRK29SerializationCommandArgumentsR31RuntimeSerializationCommandInfo
za:invoke_iiiiiiiiii
O1d:_Array_InternalArray__Insert_TisKeyValuePair_2_t888819835_m975554221_gshared
T1f:__Z59RuntimeInvoker_RuntimeObject_Int64_t909078037_RuntimeObjectPFvvEPK10MethodInfoPvPS4_
jta:__ZN18LoadSceneOperation19IntegrateTimeSlicedEi
iOf:_Scheduler_SchedulerThread_m2209572785
nte:_SortKeyBuffer_GetResultAndReset_m2516956577
Pdb:__ZN10FileSystem19SetCurrentDirectoryERKN4core12basic_stringIcNS0_20StringStorageDefaultIcEEEE
J4:__ZN16ScriptingManager24NotifyScriptCacheReleaseEi
Ibc:__Z47Register_UnityEngine_Coroutine_ReleaseCoroutinev
JK:__ZN15AudioReverbZone13SetFMODValuesEv
z9h:_Component_GetComponentInChildren_m3925629424
i1:__ZL19StaticDestroyShaderPv
he:_glRenderbufferStorageMultisample
qy:__ZN23AnimationPlayableOutput17SetTargetAnimatorEP8Animator
cGi:_X509Chain__ctor_m1113875360
DHb:__Z35Transfer_Blittable_SingleValueFieldI14SafeBinaryReadfEvRT_R17GeneralMonoObjectRK23StaticTransferFieldInfo
hjf:_TlsServerHello_processProtocol_m1241336522
dWd:_Array_InternalArray__ICollection_Remove_TisKeyValuePair_2_t888819835_m1287715465_gshared
jii:_ContextAttribute_IsContextOK_m3281216012
Tle:_PathTooLongException__ctor_m3212099251
sEf:_ObjectManager_RaiseDeserializationEvent_m1611173032
l$h:_AnimatorControllerPlayable_INTERNAL_CALL_CreateHandleInternal_m1836196929
Tr:__ZN17PackedFloatVector8TransferI18StreamedBinaryReadILb0EEEEvRT_
Gob:__ZN7Cubemap23VirtualRedirectTransferER17RemapPPtrTransfer
sec:__Z37Register_UnityEngine_Screen_get_widthv
$5b:__ZN22BlockMemoryCacheWriter11GetPathNameEv
nld:_Graphic_Rebuild_m2617722358
MMd:_DateTime_ToString_m3108726445_AdjustorThunk
jV:__ZN19CloudServiceHandlerD2Ev
t7d:_Array_InternalArray__get_Item_TisTableRange_t2011406615_m602485977_gshared
uqd:_InputField_Append_m2623574152
DCe:_ApplicationException__ctor_m1120437222
ip:stackAlloc
acc:__Z44Camera_CUSTOM_INTERNAL_CALL_ScreenPointToRayP12Il2CppObjectRK8Vector3fR3Ray
hRa:__ZN25SingleBlockMemoryFileData4LockEPPv
gvg:_MethodBuilder_GetHashCode_m1713271764
JUe:_Collection_1_IsSynchronized_m1319022347_gshared
wse:_MSCompatUnicodeTable_GetResource_m3816716847
jdc:__Z32RectOffset_Get_Custom_PropBottomP12Il2CppObject
ztd:_Array_CreateInstance_m15016505
QGb:__ZNSt3__26vectorI17AnimationCurveTplIfE13stl_allocatorIS2_L18MemLabelIdentifier1ELi16EEE6assignINS_11__wrap_iterIPS2_EEEENS_9enable_ifIXaasr21__is_forward_iteratorIT_EE5valuesr16is_constructibleIS2_NS_15iterator_traitsISC_E9referenceEEE5valueEvE4typeESC_SC_
bOj:_stat
Wi:_JS_Eval_ClearTimeout
GZj:_glUniform2fv__wrapper
m1d:_Array_InternalArray__ICollection_CopyTo_TisUInt16_t986882611_m3228377237_gshared
sLh:__ZL68Navigation_t1571958496_CustomAttributesCacheGenerator_m_SelectOnDownP21CustomAttributesCache
$6h:_Bounds_op_Inequality_m2315096783
ssi:_InternalEnumerator_1_System_Collections_IEnumerator_get_Current_m3065287496_gshared
iza:__ZNSt3__218__insertion_sort_3IRNS_4lessIN22BuiltinResourceManager8ResourceEEEPS3_EEvT0_S7_T_
V9h:_Component_BroadcastMessage_m1308086896
iZc:_RC2_set_KeySize_m2015782960
la:invoke_iiiiiiiiiiii
Yze:_StrongName_get_PublicKey_m3777577320
hXd:_PlayableHandle_IsPlayableOfType_TisAnimationLayerMixerPlayable_t3057952312_m964258557_gshared
cec:__Z43Register_UnityEngine_GameObject_SendMessagev
R7:__ZNSt3__26__treeINS_12__value_typeIN4core12basic_stringIcNS2_20StringStorageDefaultIcEEEES6_EENS_19__map_value_compareIS6_S7_NS_4lessIS6_EELb1EEE13stl_allocatorIS7_L18MemLabelIdentifier12ELi16EEE7destroyEPNS_11__tree_nodeIS7_PvEE
d3i:__ZN6il2cpp2vm17SetupFieldsLockedEP11Il2CppClassRKNS_2os12FastAutoLockE
cO:__ZN11AudioSourceD0Ev
v8h:_CanvasRenderer_set_hasPopInstruction_m1388844875
oeb:__ZN16MemoryFileSystem4NameEv
W9c:_BaseRaycaster_OnEnable_m3641767070
Xoe:_MissingMemberException_get_Message_m2763732423
Taf:_PrimeGeneratorBase_get_PrimalityTest_m308005118
VGg:_GUIStyle_Internal_CalcSize_m1309259680
Flc:__ZNK8GUIStyle8CalcSizeER10GUIContent
eJe:_List_1_CheckIndex_m2328469916_gshared
q5f:__Z75RuntimeInvoker_RuntimeObject_RuntimeObject_Decimal_t724701077_RuntimeObjectPFvvEPK10MethodInfoPvPS4_
pzc:_UNITY_FT_New_Size
DH:__Z96Register_UnityEngine_Animations_AnimatorControllerPlayable_INTERNAL_CALL_PlayInFixedTimeInternalv
QSe:_List_1_get_Item_m3157283227_gshared
rPi:_InvokableCall_4_Invoke_m1555001411_gshared
kKd:_Convert_ToString_m2915777777
toa:__ZNSt3__27__sort4IRPFbRKNS_4pairIN9ShaderLab16FastPropertyNameEN18UnityPropertySheet11UnityTexEnvEEES8_EPS6_EEjT0_SD_SD_SD_T_
eHc:_cf2_hintmap_build
hda:__ZN15dense_hashtableINSt3__24pairIKN4core12basic_stringIcNS2_20StringStorageDefaultIcEEEE10vector_setI4PPtrI11SpriteAtlasENS0_4lessISB_EE13stl_allocatorISB_L18MemLabelIdentifier79ELi16EEEEES6_20StringHash32FunctionIS6_EN14dense_hash_mapIS6_SH_SK_NS0_8equal_toIS6_EESE_ISI_LSF_79ELi16EEE9SelectKeyESN_SO_E5clearEv
UEc:_Line_Up
Sqe:_MonoType_GetGenericTypeDefinition_m2363776160
ohf:_Context_set_SentConnectionEnd_m2641458842
oe:_emscripten_glBufferSubData
Kwd:_Buffer_BlockCopyInternal_m2627156229
cnd:_Image_set_overrideSprite_m3362535904
F9c:_ExecuteEvents_get_pointerExitHandler_m3250605428
Apa:__ZN6prcoreL12RemapGenericI15TexFormatRGB88817TexFormatARGB8888EEvPKNS_9InnerInfoE
Jp:__Z17CalculateGlobalRS23TransformAccessReadOnly
s7h:_Camera_ScreenPointToRay_m614889538
Yue:_Kernel_multiByteDivide_m735279869
Y_g:_Dictionary_2_ToTValue_m542772656_gshared
INf:_Thread_GetNewManagedId_internal_m3211695465
TBg:_SkinChangedDelegate_Invoke_m2801964040
N8d:_ScriptableObject_CreateInstance_TisRuntimeObject_m926060499_gshared
bHa:__ZN17GenericDynamicVBO17DrawChunkInternalERK21DynamicVBOChunkHandle17ShaderChannelMaskS3_P17VertexDeclarationP16DrawBuffersRangeij
LRb:__ZN22MemoryCacherReadBlocks14LockCacheBlockEjPPhS1_
Lvd:_Boolean_System_IConvertible_ToChar_m2637404801_AdjustorThunk
t3c:_SecurityContext_Capture_m2535194991
MRf:_UInt16_System_IConvertible_ToSByte_m3044765342_AdjustorThunk
m4f:__Z66RuntimeInvoker_Void_t1841601450_Int64_t909078037_Int32_t2071877448PFvvEPK10MethodInfoPvPS4_
oyc:__ZN20TextRenderingPrivate8FontImpl16CacheFontForTextEPtiifjPK13dynamic_arrayINS_16TextFormatChangeELj4EE
d4d:_Array_qsort_TisUIVertex_t1204258818_TisUIVertex_t1204258818_m512606409_gshared
cZc:__Z21ArrayElementTypeCheckP11Il2CppArrayPv
_Yj:_emscripten_glTexSubImage2D__wrapper
wof:_NameValueCollection_AsSingleString_m10599052
VPj:__ZNSt3__212basic_stringIcNS_11char_traitsIcEENS_9allocatorIcEEE6appendEjc
Tre:_Object_InternalGetHashCode_m1371384246
GQh:_Navigation_get_defaultNavigation_m2185194207
qfe:_Int32_System_IConvertible_ToSByte_m1449623243_AdjustorThunk
XBe:_AccessViolationException__ctor_m1270251537
fRc:__Z42Register_UnityEngine_Canvas_get_rootCanvasv
vGi:_X509ExtensionCollection_IndexOf_m3972100651
UFb:__Z14resize_trimmedINSt3__26vectorI8MonoPPtr13stl_allocatorIS2_L18MemLabelIdentifier1ELi16EEEEEvRT_j
Xe:_TTF_RenderText_Solid
GSf:_UInt32_System_IConvertible_ToInt64_m3091851828
$oe:_MissingMethodException__ctor_m3898429715
TBf:_RemotingConfiguration_RegisterClientProviderTemplate_m514821425
SSg:_Enumerator_System_Collections_IEnumerator_Reset_m3085583937_gshared
hze:_RSAManaged_ExportParameters_m2873993187
gGd:_Convert__cctor_m926133987
GTe:_Enumerator__ctor_m2816143215_AdjustorThunk
eVc:__ZN11UnityEngine7Connect16PersistentValuesC2Ev
Jtf:_X509Chain_FindParent_m404663796
Zoe:_MissingMemberException__ctor_m2164043278
T1i:__ZL7log2_32j
dKa:__Z15IsIEEE754Format14GraphicsFormat
XIb:__Z19TransferField_ArrayI17RemapPPtrTransfer27Converter_UnityEngineObjectEvRK23StaticTransferFieldInfoR31RuntimeSerializationCommandInfoRT0_
$a:invoke_iifiii
r1a:__ZN19ShaderPropertySheet24SetTextureFromTextureRefERK23FastTexturePropertyNamePK10TextureRef
Tge:_NumberFormatter_InitDecHexDigits_m1612588520
nCa:__ZN13GfxDeviceGLES15UploadTexture2DE9TextureID16TextureDimensionPKhiii14GraphicsFormati18TextureUploadFlags16TextureUsageMode
khe:_IntPtr_System_Runtime_Serialization_ISerializable_GetObjectData_m21554269_AdjustorThunk
AM:__ZN4FMOD6System9createDSPEP20FMOD_DSP_DESCRIPTIONPPNS_3DSPE
rJg:_Material_HasProperty_m3175512802
Ux:__ZN7mecanim9animation26DestroyControllerWorkspaceEPNS0_19ControllerWorkspaceERNS_6memory9AllocatorE
QI:__ZN4FMOD8ChannelI11EndCallbackEv
U0c:_ToBase64Transform_TransformBlock_m2201454137
tlc:__ZN8GUIStyle14SetDefaultFontEPN13TextRendering4FontE
Rvg:_OpCode_get_StackBehaviourPop_m3787015663_AdjustorThunk
myi:_PatternCompiler_EmitCount_m3609178511
isb:__ZN15QualitySettings23VirtualRedirectTransferER24GenerateTypeTreeTransfer
B0i:_U3CCreateWhereIteratorU3Ec__Iterator1D_1_System_Collections_Generic_IEnumerableU3CTSourceU3E_GetEnumerator_m2682676065_gshared
x8d:_Component_GetComponent_TisRuntimeObject_m4109961936_gshared
QGg:_GUIStyle_Internal_GetCursorStringIndex_m1491806746
Qej:__ZN6il2cpp2os10FileHandleC2Ev
bgc:__Z59Register_UnityEngine_MonoBehaviour_Internal_CancelInvokeAllv
P5i:__ZN30dense_hashtable_const_iteratorINSt3__24pairIK10KeyWrapperIPK19Il2CppGenericMethodEPK26Il2CppGenericMethodIndicesEES6_N6il2cpp8metadata23Il2CppGenericMethodHashEN14dense_hash_mapIS6_SA_SE_NS6_14EqualsComparerINSD_26Il2CppGenericMethodCompareEEENS0_9allocatorISB_EEE9SelectKeyESI_SK_EppEv
pnf:_HybridDictionary_Add_m1037587952
yJg:_Mathf_Cos_m238853451
Tyc:_UNITY_FT_Request_Metrics
Fua:__Z37GetBarycentricCoordinatesForOuterCellPPK8Vector3fRK13dynamic_arrayIS_Lj4EERS0_RK11TetrahedronR8Vector4fRf
Ysj:__ZN6il2cpp6icalls8mscorlib6System10Reflection10MonoMethod29get_IsGenericMethodDefinitionEP22Il2CppReflectionMethod
Epj:__ZN6il2cpp2vm6Thread21AllocThreadStaticDataEi
iHd:_DateTime_YearMonthDayFormats_m4204607055
Ogd:_ColorBlock_set_disabledColor_m3502887543_AdjustorThunk
OBj:__ZN30dense_hashtable_const_iteratorINSt3__24pairIK10KeyWrapperIPK19Il2CppGenericMethodEP10MethodInfoEES6_N6il2cpp8metadata23Il2CppGenericMethodHashEN14dense_hash_mapIS6_S9_SD_NS6_14EqualsComparerINSC_26Il2CppGenericMethodCompareEEENS0_9allocatorISA_EEE9SelectKeyESH_SJ_EppEv
fS:__Z13RegisterClassI13AudioListenerEvv
oTi:_Aes__ctor_m4020215067
uF:__ZN23AnimationOffsetPlayable11GetPositionEv
rqc:__Z18Transfer_BlittableI9JSONWriteLb0E8Vector3fEvRK29SerializationCommandArgumentsR31RuntimeSerializationCommandInfo
Wf:_emscripten_glUniform4i
lld:_Graphic_OnDisable_m2360886868
ISi:_ObjectPool_1_Release_m1615270002_gshared
gf:_emscripten_glUniform4f
zj:___unlock
uH:__Z105Register_UnityEngine_Animations_AnimatorControllerPlayable_INTERNAL_CALL_GetAnimatorClipInfoCountInternalv
aUh:_ScrollRect_InternalCalculateOffset_m3083065267
dCd:_Comparer_Compare_m4132969818
PO:__ZN20SoundChannelInstance19setReverbPropertiesEP29FMOD_REVERB_CHANNELPROPERTIES
RE:__ZNK26AnimatorControllerPlayable14IsInTransitionEi
Q0g:_DefaultComparer_Equals_m2171836276_gshared
vrj:__ZN6il2cpp2vm9Exception18GetFormatExceptionEPKc
ljc:__Z40Register_UnityEngine_Transform_IsChildOfv
vGg:_GUIStyle_Draw_m1435796321
Xzd:_ArrayList_Sort_m923359189
_cc:__Z45Register_UnityEngine_Display_GetSystemExtImplv
Iu:__ZN7mecanim9animation23TransformValuesFromClipEiiiRKNS_10ValueArrayERKNS0_10ClipOutputERKNS0_12ClipBindingsERS1_RNS_14ValueArrayMaskEb
P6h:_Bounds_set_center_m2069004927_AdjustorThunk
znc:__Z46GUIStyle_CUSTOM_Internal_DrawWithTextSelectionP12Il2CppObjectR43MonoInternal_DrawWithTextSelectionArguments
Q1i:__ZL17log2withScale_128yyi
lNc:__ZNSt3__218__insertion_sort_3IRNS_6__lessIN2UI14DepthSortEntryES3_EEPS3_EEvT0_S7_T_
Kyg:_MonoField_CheckGeneric_m1527550038
W9:__ZN13RuntimeStaticI15DirectorManagerLb0EE16StaticInitializeEPv
Utc:__ZN8JSONRead8TransferI23ManagedObjectTransfererEEvRT_PKc17TransferMetaFlagsb
mbf:_ASN1_get_Value_m2229768312
o9c:_BaseInput_get_touchCount_m998724785
xyb:__ZN11TimeManager6UpdateEv
Oqd:_InputField_get_preferredWidth_m3185355225
fCg:_GUIUtility_get_pixelsPerPoint_m2667928361
ANf:_Thread_SetState_m3198426726
pAd:_ArrayListWrapper_Contains_m1158465965
iOj:_fflush
uua:__ZN17LightProbeContext4InitERK16LightmapSettingsRK14RenderSettings
nMj:__GLOBAL__sub_I_Error_cpp
zAi:_Alternation_GetWidth_m4218808325
L7e:_ReadOnlyCollection_1_System_Collections_IList_Insert_m2651065875_gshared
hBc:_ft_bitmap_glyph_bbox
Dof:_TypeConverterAttribute__ctor_m4061167050
hTe:_Enumerator_MoveNext_m3315718998_gshared
YAg:_Font_add_textureRebuilt_m1282639736
rGj:_GC_reclaim_uninit
H5a:__Z34ProcessIndexListIsNodeVisibleStep2RK22SceneCullingParametersPK9SceneNodePK4AABBR9IndexList
kDb:__ZN10MonoScriptD2Ev
hWh:_Slider_OnRectTransformDimensionsChange_m4109401172
Nqf:_WebHeaderCollection_Get_m3391944907
Aec:__Z39Input_CUSTOM_INTERNAL_get_mousePositionP8Vector3f
VDc:_tt_cmap13_char_next
QUa:__ZN9ShaderLab4Pass16SetupPassOptionsEv
hRi:_UnityEvent_4__ctor_m3102731553_gshared
ih:_JS_Sound_ReleaseInstance
cEh:__ZL72IL2CPPStructAlignmentAttribute_t130316838_CustomAttributesCacheGeneratorP21CustomAttributesCache
oBa:__ZN13GfxDeviceGLES19DrawBuffersIndirectEP9GfxBufferPK18VertexStreamSourceiP17VertexDeclaration17ShaderChannelMask16GfxPrimitiveType15ComputeBufferIDj
gZh:_AnimationClipPlayable__ctor_m1126286616
oRg:_Renderer_get_sortingLayerID_m2403577271
uid:_DefaultControls_CreateScrollbar_m770089625
JXj:_emscripten_glPixelStorei__wrapper
r6f:__Z98RuntimeInvoker_Void_t1841601450_Int32_t2071877448_Int32_t2071877448_SByte_t454417549_RuntimeObjectPFvvEPK10MethodInfoPvPS4_
ohc:__Z21Resources_CUSTOM_LoadP12Il2CppStringP12Il2CppObject
Em:FUNCTION_TABLE_diddi
thc:__Z26Material_CUSTOM_SetIntImplP12Il2CppObjectii
lee:_Int16_System_IConvertible_ToSingle_m3277935657_AdjustorThunk
e3h:_AnimatorControllerPlayable_HasState_m3003093532_AdjustorThunk
Ylf:_SslStreamBase_get_KeyExchangeAlgorithm_m3712013038
Lii:_InternalRemotingServices__cctor_m3821625125
wdc:__Z42Register_UnityEngine_RectOffset_get_bottomv
EKf:_StringBuilder_Insert_m3322917127
W$g:_DefaultComparer_Equals_m724229128_gshared
HTg:_Enumerator_VerifyCurrent_m1702320752_AdjustorThunk
MId:_Convert_ToDouble_m3520060872
cXj:_emscripten_glUniform1f__wrapper
RRj:dynCall_di
Gkf:_SslCipherSuite_ComputeServerRecordMAC_m1876572367
_xc:__ZN20TextRenderingPrivate19NativeTextGeneratorC2ERK11UTF16StringPNS_8FontImplE11ColorRGBA32ifRK8Vector2fbifiibffbbbP13dynamic_arrayIN2UI8UIVertexELj4EE
_pc:__Z28RegisterModule_JSONSerializev
PMf:_Interlocked_CompareExchange_m3227034792
GXc:_HashAlgorithm_get_Hash_m931854461
awi:_DefaultComparer_Compare_m3564013922_gshared
YXb:__ZN2UI13RectTransform8TransferI14SafeBinaryReadEEvRT_
crc:__Z35Transfer_Blittable_FixedBufferFieldI9JSONWriteaEvRK29SerializationCommandArgumentsR31RuntimeSerializationCommandInfo
y7b:__Z20IsHumanControllingUsv
bWa:__ZNK19RenderEventsContext21ExecuteCommandBuffersEijR17ShaderPassContextR15RenderNodeQueueP19ProfilerInformationi
t_:__ZNK20DynamicHeapAllocatorI17LowLevelAllocatorE10GetPtrSizeEPKv
Nhb:__ZN10systeminfo21GetPersistentDataPathEv
fjd:_Dropdown_set_value_m2945561009
fBa:__ZN13GfxDeviceGLES17DestroyGpuProgramEPK10GpuProgram
zbe:_GregorianCalendar_GetMonth_m523739832
qEb:__Z44InitializeTransferFunctionScriptingTraitsForI18StreamedBinaryReadILb0EEEvR31TransferFunctionScriptingTraits
F1a:__ZNSt3__218__insertion_sort_3IR23CompareReflectionProbesP31RuntimeReflectionProbeBlendInfoEEvT0_S5_T_
fJb:__ZN12NativeBufferI27Converter_SimpleNativeClassI8GradientEE15SetupForWritingER9ArrayInfo
Dca:__ZNSt3__213__stable_sortIRNS_4lessIN4core12basic_stringIcNS2_20StringStorageDefaultIcEEEEEENS_11__wrap_iterIPS6_EEEEvT0_SC_T_NS_15iterator_traitsISC_E15difference_typeEPNSF_10value_typeEi
lBg:_GameObject_AddComponent_m3757565614
tda:__ZN12_GLOBAL__N_113StaticDestroyEPv
q5i:__ZN30dense_hashtable_const_iteratorINSt3__24pairIK10KeyWrapperIPKcEP11Il2CppClassEES5_N6il2cpp5utils11StringUtils12StringHasherIS4_EEN14dense_hash_mapIS5_S8_SE_NS5_14EqualsComparerINSB_13VmStringUtils21CaseSensitiveComparerEEENS0_9allocatorIS9_EEE9SelectKeyESJ_SL_EppEv
Kde:_Guid_ToString_m51661589
Bkc:__ZNK8GUIStyle4DrawER8GUIStateRK5RectTIfER10GUIContentbbbb
OWh:_Text_set_font_m1095513810
P$j:_glUnmapBuffer__wrapper
VLd:_DateTime_System_IConvertible_ToUInt32_m1363211018_AdjustorThunk
fod:_InputField_get_cachedInputTextGenerator_m881618486
Y7h:_Canvas_get_rootCanvas_m1790974328
ufc:__Z32Mesh_CUSTOM_ExtractArrayFromListP12Il2CppObject
Mpg:_Binder_get_DefaultBinder_m965620943
xuc:__ZN8JSONRead21TransferSTLStyleArrayINSt3__26vectorI8Gradient13stl_allocatorIS3_L18MemLabelIdentifier1ELi16EEEEEEvRT_17TransferMetaFlags
Uyb:__ZNSt3__218__insertion_sort_3IRNS_6__lessINS_4pairIPKN5Unity4TypeE7Hash128EES8_EEPS8_EEvT0_SC_T_
HKb:__ZN10RectOffset8TransferI24GenerateTypeTreeTransferEEvRT_
zud:_SimpleEnumerator_get_Current_m482975946
n8b:__Z18GetResourceManagerv
OOj:_srand
_Mc:__ZN2UI13CanvasManager19RemoveDirtyRendererEPNS_6CanvasEPNS_14CanvasRendererE
O6i:__ZN15dense_hashtableI10KeyWrapperIPK17Il2CppGenericInstES4_N6il2cpp8metadata21Il2CppGenericInstHashEN14dense_hash_setIS4_S7_NS4_14EqualsComparerINS6_24Il2CppGenericInstCompareEEENSt3__29allocatorIS4_EEE8IdentityESB_SE_E12resize_deltaEjj
i6h:_AudioClip_InvokePCMSetPositionCallback_Internal_m2304858844
kSc:__ZN11UnityEngine15PlatformWrapper25GetGraphicsRendererStringEv
aqd:_InputField_KeyPressed_m3066588581
fKi:_Time_get_unscaledTime_m862335845
mVh:_Selectable_DoStateTransition_m539253088
b0c:_SHA512_Create_m439875055
PY:__ZN11UnityEngine15CloudWebService17WebFileDownloaderINS0_20WebRequestRestClientENS0_23WebRequestRestHeaderMapEED2Ev
Xb:invoke_vi
V$c:_SHA384Managed_update_m2629600295
XPa:__ZN15dense_hashtableINSt3__24pairIKN4core12basic_stringIcNS2_20StringStorageDefaultIcEEEEP20ArchiveStorageReaderEES6_20StringHash32FunctionIS6_EN14dense_hash_mapIS6_S9_SC_NS0_8equal_toIS6_EE13stl_allocatorISA_L18MemLabelIdentifier54ELi16EEE9SelectKeyESF_SI_ED2Ev
Vb:invoke_vd
ub:invoke_vf
o6:__ZNK10GameObject8IsActiveEv
kre:_NumberFormatter__cctor_m1641464619
mGf:_SByte_System_IConvertible_ToUInt32_m4256495110
Sbd:_PointerEventData_set_eligibleForClick_m2036057844
UJa:__ZN18GfxFramebufferGLES23SetupDefaultFramebufferEPP17RenderSurfaceBaseS2_N2gl6HandleILNS3_10ObjectTypeE9EEE
qOj:_mbsinit
dGg:_GUIStyle_get_Internal_clipOffset_m4237737448
IGh:__ZL70EventSystem_t3466835263_CustomAttributesCacheGenerator_m_FirstSelectedP21CustomAttributesCache
bea:__ZN13ScreenManager18RequestOrientationE17ScreenOrientation
C3i:__ZN6il2cpp2vm5Class12SetupMethodsEP11Il2CppClass
Pac:__Z39DeleteLastPathNameComponentWithAnySlashRKN4core12basic_stringIcNS_20StringStorageDefaultIcEEEE
Dkc:__ZN10GUIManager14InitGUIManagerEv
FKh:__ZL68InputField_t1631627530_CustomAttributesCacheGenerator_m_KeyboardTypeP21CustomAttributesCache
sYh:_VerticalLayoutGroup_CalculateLayoutInputHorizontal_m497637066
a2h:_AnimatorControllerPlayable_CrossFadeInFixedTimeInternal_m1452579496
dRg:_RectTransformUtility_PixelAdjustPoint_m560908615
zyf:_MethodCall__ctor_m4106494862
L_f:__Z167RuntimeInvoker_Void_t1841601450_SByte_t454417549_SByte_t454417549_SByte_t454417549_SByte_t454417549_SByte_t454417549_SByte_t454417549_SByte_t454417549_SByte_t454417549PFvvEPK10MethodInfoPvPS4_
Pnc:__Z37Register_UnityEngine_GUIStyle_Cleanupv
Na:invoke_iiifii
JIi:_StackTraceUtility_ExtractStringFromExceptionInternal_m2568950546
icj:__ZN6il2cpp6icalls8mscorlib6System8MonoType13IsPointerImplEP20Il2CppReflectionType
wId:_Convert_ToDecimal_m2284596541
W0h:_AnimatorControllerPlayable_GetLayerIndex_m747049736
Si:_emscripten_glFramebufferRenderbuffer
Ege:_Int64_GetHashCode_m4047499913
N8a:__ZN9Transform30EnsureTransformHierarchyExistsEv
Vdj:_il2cpp_field_get_flags
WS:__ZN11AudioModule26SetDefaultMicrophoneDriverEPv
QUf:_UnitySerializationHolder_GetRealObject_m286267090
Xud:_Attribute_IsDefined_m216577166
$yd:_Char_ToUpper_m109978609
RF:__Z94Register_UnityEngine_Animations_AnimationLayerMixerPlayable_INTERNAL_CALL_CreateHandleInternalv
lpi:_InternalEnumerator_1_get_Current_m1089848479_gshared
LQd:_Double_System_IConvertible_ToInt64_m3798425616
Bdd:_StandaloneInputModule_get_repeatDelay_m3025279
Hg:___cxa_find_matching_catch_4
P8b:__ZN13MonoBehaviour13StopCoroutineEPKc
Kbb:__ZNSt3__26vectorINS_4pairIN4core12basic_stringIcNS2_20StringStorageDefaultIcEEEEPK17MessageIdentifierEENS_9allocatorISA_EEE12__move_rangeEPSA_SE_SE_
NZa:__ZN14qsort_internal17MedianOfThreeSwapIP17RODataReplacement19ROSorterReplacementEEvT_S4_S4_T0_
t2i:__ZNK15dense_hashtableINSt3__24pairIK10KeyWrapperIPK22Il2CppGenericParameterEP11Il2CppClassEES6_N6il2cpp5utils11PointerHashIS4_EEN14dense_hash_mapIS6_S9_SE_NS6_14EqualsComparerINS0_8equal_toIS5_EEEENS0_9allocatorISA_EEE9SelectKeyESJ_SL_E3endEv
Lac:__ZN17TransformInternal36OnScaleChangedCalculateTransformTypeE15TransformAccess
tBd:_SynchronizedArrayListWrapper_InsertRange_m709359548
tSa:__ZN17ArchiveFileSystem10ToAbsoluteEPKc
Haf:_BigInteger_op_Modulus_m13450242
DHd:_DateTime__ctor_m3604679583
mJd:_Convert_ToInt32_m2988544165
w4d:_Array_Resize_TisColor32_t874517518_m2219502085_gshared
zz:__ZN7mecanim6CRCKeyENS_7eStringE
ymf:_SslStreamBase_get_CanWrite_m2069502593
RYb:__ZL12SetPrefValueRKN4core12basic_stringIcNS_20StringStorageDefaultIcEEEERK9PrefValue
h0:__ZN19ShaderPropertySheet20ReservePropertyCountEj
zCj:__ZN6il2cpp5utils11StringUtils6PrintfEPKcz
Aoj:__ZNSt3__26vectorIN6il2cpp8metadata18GenericArrayMethodENS_9allocatorIS3_EEE7reserveEj
Goa:__ZN15NameToObjectMapI6ShaderNSt3__23mapI4PPtrIS0_EN4core12basic_stringIcNS5_20StringStorageDefaultIcEEEENS1_4lessIS4_EENS1_9allocatorINS1_4pairIKS4_S9_EEEEEENS1_8multimapIS9_S4_NSA_IS9_EENSC_INSD_IKS9_S4_EEEEEEE4FindERSK_
PTg:_ShimEnumerator_Reset_m98005789_gshared
$va:__ZN24GenerateTypeTreeTransfer21TransferResourceImageE19ActiveResourceImagePKcR13StreamingInfoPvjiPKN5Unity4TypeE
JLg:_Object_INTERNAL_CALL_Internal_InstantiateSingle_m3932420250
rdi:_ResourceEnumerator__ctor_m1679839941
H5e:_ReadOnlyCollection_1_System_Collections_IList_set_Item_m1377990618_gshared
Gug:_ILGenerator_make_room_m373147874
w$g:_Dictionary_2_Init_m1045257495_gshared
j$j:_emscripten_glLinkProgram__wrapper
KNg:_PlayableHandle_SetDurationInternal_m3359857977
t_d:_Array_InternalArray__IndexOf_TisKeyValuePair_2_t888819835_m2660446234_gshared
Iye:_PKCS1_Verify_v15_m2571212635
nmb:__ZNSt3__212__deque_baseI18ReflectionProbeJobNS_9allocatorIS1_EEED2Ev
Xy:__ZN11UnityEngine9Animation27DestroyAnimationSetBindingsEPNS0_20AnimationSetBindingsERN7mecanim6memory9AllocatorE
VSb:__ZN15dense_hashtableINSt3__24pairIKiN4core17string_with_labelILi1EEEEEi18SInt32HashFunctionN14dense_hash_mapIiS5_S7_NS0_8equal_toIiEE13stl_allocatorIS6_L18MemLabelIdentifier1ELi16EEE9SelectKeyESA_SD_E13set_empty_keyERKS6_
PD:__ZN8Animator12CleanupClassEv
u8c:_DecoderReplacementFallbackBuffer__ctor_m1305504326
vuc:__Z13TransferFieldI8JSONReadLb0E27Converter_SimpleNativeClassI10RectOffsetEEvRK23StaticTransferFieldInfoR31RuntimeSerializationCommandInfoRT1_
o6c:_String_IndexOf_m570401060
vRd:_Enum_System_IConvertible_ToDateTime_m2924690746
Hjd:_Dropdown_CreateBlocker_m4109366440
BXc:_HashAlgorithm_System_IDisposable_Dispose_m2106335965
vvj:__GLOBAL__sub_I_GenericMetadata_cpp
KOg:_RangeAttribute__ctor_m1657271662
akc:__ZNK8GUIStyle4DrawER8GUIStateRK5RectTIfER10GUIContentib
wbj:__ZN6il2cpp6icalls8mscorlib6System8MonoType18GetFields_internalEP20Il2CppReflectionTypeiS5_
g5a:__Z24CalculateSpotLightBoundsffRK10Matrix4x4fR15SpotLightBounds
zse:_TailoringInfo__ctor_m2248501932
eV:__ZN23CloudWebServicesManager23VirtualRedirectTransferER14SafeBinaryRead
q_f:__Z150RuntimeInvoker_Int32_t2071877448_RuntimeObject_Int32_t2071877448_Int32_t2071877448_RuntimeObject_Int32_t2071877448_Int32_t2071877448_Int32_t2071877448PFvvEPK10MethodInfoPvPS4_
RAd:_FixedSizeArrayListWrapper_InsertRange_m2690348965
ACb:__Z19ShouldTransferFieldR32SerializationCommandQueueBuilder17ScriptingClassPtriR18TransferField_InfoRK20CoreScriptingClasses
dwg:_FieldInfo_get_IsStatic_m1411173225
gle:_MemoryStream_Read_m2289595005
FN:__ZN5audio5mixer22UpdateAudioMixerMemoryERKNS0_18AudioMixerConstantERNS0_16AudioMixerMemoryEfPN4FMOD6SystemEf
Nwc:__ZL21InitializeCachedStripPv
jqj:__ZN6il2cpp6icalls8mscorlib6System9Threading6Thread23GetCachedCurrentCultureEP12Il2CppThread
HUh:_Selectable_get_allSelectables_m3045831006
OZa:__ZNK6Camera22GetWorldToCameraMatrixEv
hyj:__ZN6il2cpp2vm12GenericClass11IsValueTypeEP18Il2CppGenericClass
PBb:__ZN13MonoBehaviour7SetNameEPKc
Bdf:_ContentInfo__ctor_m3579805263
c5i:__ZN15dense_hashtableINSt3__24pairIK10KeyWrapperIPKcEP11Il2CppClassEES5_N6il2cpp5utils11StringUtils12StringHasherIS4_EEN14dense_hash_mapIS5_S8_SE_NS5_14EqualsComparerINSB_13VmStringUtils21CaseSensitiveComparerEEENS0_9allocatorIS9_EEE9SelectKeyESJ_SL_E15set_deleted_keyERKS9_
PTh:_ScrollRect_get_verticalNormalizedPosition_m1701804869
yta:__ZN18AwakeFromLoadQueue5ClearEv
bWg:_Enumerator_get_Current_m2986380627_AdjustorThunk
V3a:__ZNSt3__27__sort5IR15ReflProbeSorterPP15ReflectionProbeEEjT0_S6_S6_S6_S6_T_
naa:__ZN8Playable10DisconnectEPS_i
Cmi:_InternalEnumerator_1_get_Current_m1526874475_AdjustorThunk
uk:_glGenTransformFeedbacks
iya:__ZN13LoadOperationD2Ev
oxe:_KeyPairPersistence__ctor_m1817312194
BVd:_Array_InternalArray__ICollection_Contains_TisMark_t2724874473_m1640201705_gshared
Kra:__Z21PlayerStartFirstSceneb
vsg:_TypeBuilder_get_AssemblyQualifiedName_m2097258567
uoa:__ZNSt3__27__sort5IRPFbRKNS_4pairIN9ShaderLab16FastPropertyNameEN18UnityPropertySheet11UnityTexEnvEEES8_EPS6_EEjT0_SD_SD_SD_SD_T_
V1h:_AnimatorControllerPlayable_GetParameterCount_m1050153685_AdjustorThunk
CFa:__ZNK7ApiGLES18GetExtensionStringEv
kMa:__ZN31TransformFeedbackSkinPoseBufferD0Ev
dXj:_emscripten_glVertexAttrib1f__wrapper
Klf:_SslStreamBase_get_MightNeedHandshake_m3432170694
s0g:_DefaultComparer_Equals_m1281232537_gshared
gp:FUNCTION_TABLE_iiiiiiiii
npd:_InputField_set_asteriskChar_m619206227
yHf:_DES_IsSemiWeakKey_m3967392585
ree:_Int16_System_IConvertible_ToUInt32_m883204517_AdjustorThunk
UKi:_Transform_get_localRotation_m4001487205
Gzg:_MonoProperty_get_PropertyType_m1921201152
$hd:_FloatTween_TweenValue_m3881535116_AdjustorThunk
fFj:_GC_allochblk
Dta:__Z15UnloadGameScenev
K$j:_glCheckFramebufferStatus__wrapper
M9e:_BigInteger_get_Rng_m2525288368
qEg:_GUIStyleState_GetBackgroundInternal_m439046630
gvf:_X509ExtensionEnumerator_Reset_m3200687545
eCd:_CaseInsensitiveHashCodeProvider__ctor_m3775398833
rwi:_Comparer_1_System_Collections_IComparer_Compare_m674728644_gshared
lec:__Z36Renderer_Get_Custom_PropSortingOrderP12Il2CppObject
Xhj:__ZNK15dense_hashtableINSt3__24pairIK10KeyWrapperIPK10Il2CppTypeEjEES6_N6il2cpp8metadata14Il2CppTypeHashEN14dense_hash_mapIS6_jSB_NS6_14EqualsComparerINSA_26Il2CppTypeEqualityComparerEEENS0_9allocatorIS8_EEE9SelectKeyESF_SH_E13find_positionERS7_
xia:__ZN7Texture5ResetEv
zJb:__Z18Transfer_BlittableI24GenerateTypeTreeTransferLb0E8Vector2fEvRK29SerializationCommandArgumentsR31RuntimeSerializationCommandInfo
qJb:__Z18Transfer_BlittableI24GenerateTypeTreeTransferLb1EhEvRK29SerializationCommandArgumentsR31RuntimeSerializationCommandInfo
cac:__ZNK16TypeTreeIterator10ByteOffsetEv
Skd:_Graphic_get_rectTransform_m2697395074
n9:__ZnwjRKSt9nothrow_t
oC:__ZN8Animator11ClearObjectEv
bBb:__ZNSt3__26vectorIi13stl_allocatorIiL18MemLabelIdentifier12ELi16EEE8__appendEj
jsf:_X500DistinguishedName_Decode_m3070515374
Nma:__ZN14SafeBinaryRead19TransferSTLStyleMapINSt3__23mapI39DeprecatedFastPropertyNameSerializationN18UnityPropertySheet11UnityTexEnvENS1_4lessIS3_EENS1_9allocatorINS1_4pairIKS3_S5_EEEEEEEEvRT_17TransferMetaFlags
ggc:__Z45Register_UnityEngine_MonoBehaviour_IsInvokingv
Upf:_IPv6Address_set_ScopeId_m1442934355
tEf:_ObjectManager_RaiseOnDeserializedEvent_m512850179
Ggc:__Z81Register_UnityEngine_Playables_PlayableHandle_INTERNAL_CALL_SetInputCountInternalv
Z8b:__Z35UnregisterSerializationCacheBuilderPFv17ScriptingClassPtrR23CachedSerializationDataRbE
lla:__Z30GetBuiltinVectorParamArraySize24BuiltinShaderVectorParam
kse:_CodePointIndexer__ctor_m797342079
R6a:__ZN21RendererUpdateManager11AddRendererER8Renderer
j_b:__Z13RegisterClassI15ResourceManagerEvv
UEb:__Z35Transfer_Blittable_FixedBufferFieldI14SafeBinaryReadsEvRK29SerializationCommandArgumentsR31RuntimeSerializationCommandInfo
Avb:__ZN14SafeBinaryRead21TransferSTLStyleArrayI13dynamic_arrayIfLj4EEEEvRT_17TransferMetaFlags
ACj:__ZN6il2cpp5utils11StringUtils11Utf16ToUtf8EPKDs
BSc:__ZN11UnityEngine15PlatformWrapper20IsRootedOrJailbrokenEv
AUa:__ZZ23InitPlayerLoopCallbacksvEN52PreLateUpdateScriptRunBehaviourLateUpdateRegistrator7ForwardEv
Lsf:_X509Certificate2_GetNameInfo_m402390219
b5a:__Z33IntersectAABBPlaneBoundsOptimizedRK4AABBPKN4math7_float4Ei
Eud:_Swapper_BeginInvoke_m2652511022
iQg:_RectOffset_t3387826427_marshal_pinvoke_back
sBa:__ZN9GfxDevice19EndGeometryJobFrameEv
kJb:__ZN27Converter_SimpleNativeClassI17AnimationCurveTplIfEE17ScriptingToNativeER18ScriptingObjectPtrPS1_
SKj:__ZN6il2cpp8metadata24Il2CppGenericInstCompare7CompareERK10KeyWrapperIPK17Il2CppGenericInstES8_
M5i:__ZNK15dense_hashtableINSt3__24pairIK10KeyWrapperIPK19Il2CppGenericMethodEPK26Il2CppGenericMethodIndicesEES6_N6il2cpp8metadata23Il2CppGenericMethodHashEN14dense_hash_mapIS6_SA_SE_NS6_14EqualsComparerINSD_26Il2CppGenericMethodCompareEEENS0_9allocatorISB_EEE9SelectKeyESI_SK_E5beginEv
hld:_Graphic_get_materialForRendering_m2600868951
Xs:__ZN27AnimationLayerMixerPlayable21UpdateLayerParametersEv
uYe:_Collection_1_System_Collections_IList_Contains_m3210868188_gshared
J$b:__ZNK17AnimationCurveTplIfE8EvaluateEfPNS0_5CacheE
ETa:__Z31ManagerContextInitializeClassesv
B9g:__ZL53SortedList_t3004938869_CustomAttributesCacheGeneratorP21CustomAttributesCache
vzc:_UNITY_FT_List_Finalize
R_a:__Z20LightAttenuateApproxRKfS0_
R3:__ZN9Scripting30SetCachedPtrOnScriptingWrapperE18ScriptingObjectPtrP6Object
mMb:__Z18Transfer_BlittableI19StreamedBinaryWriteILb0EELb0EdEvRK29SerializationCommandArgumentsR31RuntimeSerializationCommandInfo
M7c:_ASCIIEncoding_GetBytes_m3649277167
iCg:_GUILayoutUtility_Internal_GetWindowRect_m1287880151
W_h:_AnimationPlayableOutput_get_Null_m577023
Ihi:_Context_GetProperty_m1664740450
Xwa:__ZN18BlockRangeInternal16PopLastNodeIndexEP10BlockRangeji
bVf:_Version__ctor_m2972638031
REe:_Enumerator_System_Collections_IEnumerator_Reset_m886102771_AdjustorThunk
Dve:_Kernel_MultiplyByDword_m155008287
Qub:__ZN4MeshD0Ev
N1f:__Z121RuntimeInvoker_Void_t1841601450_Int64_t909078037_RuntimeObject_RuntimeObject_Int64_t909078037_RuntimeObject_RuntimeObjectPFvvEPK10MethodInfoPvPS4_
fXc:__ZL42RequestRecreateEyeTexturesBeforeNextUpdatev
Bka:__ZNK6Camera20IsCurrentlyRenderingEv
Hu:__ZN21AnimationClipPlayable23ProcessRootMotionNoClipEPK35AnimationPlayableEvaluationConstantPK32AnimationPlayableEvaluationInputP33AnimationPlayableEvaluationOutput
rmf:_SslStreamBase_Read_m1036897444
jrc:__Z18Transfer_BlittableI9JSONWriteLb0EdEvRK29SerializationCommandArgumentsR31RuntimeSerializationCommandInfo
Wjb:__ZN6Camera8TransferI19StreamedBinaryWriteILb0EEEEvRT_
n3e:_ReadOnlyCollection_1_System_Collections_IList_Insert_m3679749778_gshared
VXh:_Toggle_OnDidApplyAnimationProperties_m325835214
fNj:_wctomb
ecc:__Z27Camera_CUSTOM_GetAllCamerasP11Il2CppArray
hGd:_Convert_InternalFromBase64String_m3682756716
cd:___cxa_rethrow
Jsc:__Z18Transfer_BlittableI8JSONReadLb1EhEvRK29SerializationCommandArgumentsR31RuntimeSerializationCommandInfo
m2h:_AnimatorControllerPlayable_CrossFadeInFixedTimeInternal_m3383124488
jXj:_glBindRenderbuffer__wrapper
gAi:_Regex_System_Runtime_Serialization_ISerializable_GetObjectData_m4035555909
$Of:_TimeSpan_Add_m3228293154
v0g:_DefaultComparer_Equals_m4098991076_gshared
H8a:__ZN13MonoBehaviour8SetClassE17ScriptingClassPtr18ScriptingObjectPtr
gdf:_RC4__cctor_m523650203
oii:_CrossContextDelegate_Invoke_m2908136830
jea:__ZN20LocalFileSystemPosix4ReadER13FileEntryDatayyPvPy
s2a:__ZNSt3__211__sift_downIRN23ForwardShaderRenderLoop18RenderObjectSorterILb0EEEP21ForwardRenderPassDataEEvT0_S7_T_NS_15iterator_traitsIS7_E15difference_typeES7_
joe:_UnmanagedMemoryStream_get_Position_m4093669769
h1f:__Z90RuntimeInvoker_Void_t1841601450_IntPtr_t_RuntimeObject_Int32_t2071877448_Int32_t2071877448PFvvEPK10MethodInfoPvPS4_
dCb:__ZN13MonoBehaviour5DoGUIENS_13GUILayoutTypeEii
psg:_DerivedType_IsDefined_m555719351
yxi:_Mark_get_IsDefined_m3332701456
Afb:__ZNK12TLSAllocatorI14StackAllocatorE8ContainsEPKv
zyb:__ZN11TimeManager8TransferI18StreamedBinaryReadILb0EEEEvRT_
uXb:__ZN15SerializeTraitsINSt3__23mapI4PPtrI6ShaderEN4core12basic_stringIcNS5_20StringStorageDefaultIcEEEENS0_4lessIS4_EENS0_9allocatorINS0_4pairIKS4_S9_EEEEEEE8TransferI24GenerateTypeTreeTransferEEvRSH_RT_
JHf:_DESTransform__cctor_m1179482644
cvb:__ZN14BlendShapeData8TransferI14SafeBinaryReadEEvRT_
MJi:_TextGenerator_PopulateWithErrors_m467881283
GRd:_Enum_Format_m2294492821
kob:__ZN7Texture25ReloadFromStorageIfNeededEPvb
lqc:__Z35Transfer_Blittable_FixedBufferFieldI9JSONWritehEvRK29SerializationCommandArgumentsR31RuntimeSerializationCommandInfo
qog:_OverflowException__ctor_m2564269836
ZTg:_ShimEnumerator_get_Entry_m2332479818_gshared
BMd:_DateTime_CheckDateTimeKind_m329345155_AdjustorThunk
aKc:_Update_Max
Ypj:__ZN6il2cpp6icalls8mscorlib6SystemL15ThrowNoWideningEv
S$b:__ZNK23TransformChangeDispatch24GetChangeMaskForInterestENS_12InterestTypeE
Ric:__Z45Transform_CUSTOM_INTERNAL_CALL_TransformPointP12Il2CppObjectRK8Vector3fRS1_
cYe:__ZN23InterfaceActionInvoker2Ii18Color32_t874517518E6InvokeEjP11Il2CppClassP12Il2CppObjectiS0_
dfb:__ZL10KeyHandleriPK23EmscriptenKeyboardEventPv
kna:__ZNSt3__26__treeINS_12__value_typeI39DeprecatedFastPropertyNameSerializationfEENS_19__map_value_compareIS2_S3_NS_4lessIS2_EELb1EEENS_9allocatorIS3_EEE7destroyEPNS_11__tree_nodeIS3_PvEE
Fgc:__Z81Register_UnityEngine_Playables_PlayableHandle_INTERNAL_CALL_GetInputCountInternalv
yDc:_tt_cmap4_char_index
A4h:_AsyncOperation_get_allowSceneActivation_m2825451182
APf:_TimeSpan_op_Addition_m3421801803
MRa:__ZNK12HandlerChain8IsHiddenERK13FileEntryData
_Jh:__ZL50Graphic_t2426225576_CustomAttributesCacheGeneratorP21CustomAttributesCache
hhd:_ContentSizeFitter_set_verticalFit_m3978553199
AIb:__ZL26Transfer_SimpleNativeClassI17RemapPPtrTransfer10RectOffsetLb0EEvRK29SerializationCommandArgumentsR31RuntimeSerializationCommandInfo
Yzc:__Z14ValidateFormatR13dynamic_arrayIN20TextRenderingPrivate16TextFormatChangeELj4EE
rMi:_Vector2_op_Implicit_m1064335535
aua:__Z31GetLightProbeProxyVolumeManagerv
DLd:_DateTime_System_IConvertible_ToInt32_m2789391054_AdjustorThunk
D8f:__Z73RuntimeInvoker_Single_t2076509932_Vector3_t2243707580_Vector3_t2243707580PFvvEPK10MethodInfoPvPS4_
lwe:_ASN1Convert_FromInt32_m1541043489
Vcd:_PointerInputModule_ProcessMove_m3200120346
QGd:_Convert_ToByte_m1008221737
hcf:_MD2Managed_MD2Transform_m3825201358
GLh:__ZL69Scrollbar_t3248359358_CustomAttributesCacheGenerator_m_OnValueChangedP21CustomAttributesCache
_Tb:__ZNSt3__26vectorIN9ShaderLab20SerializedSubProgram13BufferBindingENS_9allocatorIS3_EEEC2ERKS6_
kjd:_Dropdown_AddOptions_m835420907
X_i:_Display_Start_m3446268861
nla:__ZNK9ShaderLab20ShaderBlendStateDesc15ToGfxBlendStateEPK19ShaderPropertySheetS3_R13GfxBlendState
wgd:_CanvasUpdateRegistry_IsRebuildingLayout_m1677873278
Ay:__ZN11UnityEngine9AnimationL22GenericBindingCallbackEPvS1_i
KJc:_Compute_Point_Displacement
eXb:__ZN9ShaderLab9IntShaderC2Ev
pcj:__ZN6il2cpp6icalls8mscorlib6SystemL9IsPrivateEPK9EventInfo
mJj:__ZN6il2cpp6icalls8mscorlib6System10Reflection4Emit11TypeBuilder20setup_internal_classEP27Il2CppReflectionTypeBuilderS7_
tDg:_RectOffset_set_left_m620681523
Qki:_ArrayReadOnlyList_1_IndexOf_m1809425308_gshared
iU:__Z58AudioPlayableOutput_CUSTOM_INTERNAL_CALL_InternalSetTargetR15HPlayableOutputP12Il2CppObject
bej:_il2cpp_gc_disable
yG:__Z69AnimatorControllerPlayable_CUSTOM_INTERNAL_CALL_GetLayerIndexInternalR9HPlayableP12Il2CppString
vtf:_X509Chain_GetSubjectKeyIdentifier_m4232927227
WDd:_Hashtable_Clone_m165405752
X9h:_Component_BroadcastMessage_m444672650
WRc:__ZN11UnityEngine15PlatformWrapper19GetPhysicalMemoryMBEv
ifa:__Z15CreateDirectoryRKN4core12basic_stringIcNS_20StringStorageDefaultIcEEEE
Hua:__Z21CalculateGlobalMatrix23TransformAccessReadOnly
m8g:__ZL70InternalsVisibleToAttribute_t1037732567_CustomAttributesCacheGeneratorP21CustomAttributesCache
Eyb:__ZNK13BuildSettings22GetTypeVirtualInternalEv
Pie:_MonoIO_GetCurrentDirectory_m1509324201
lLf:_UTF32Encoding_GetHashCode_m4205784236
h_b:__Z13RegisterClassI14RenderSettingsEvv
sJi:_TextGenerator_Finalize_m4242493229
QHj:_GC_set_on_event
dng:__Z80RuntimeInvoker_Boolean_t3825574718_Navigation_t1571958496_Navigation_t1571958496PFvvEPK10MethodInfoPvPS4_
HUe:_Collection_1_ConvertItem_m3563206219_gshared
xPf:_TimeSpan_Subtract_m3597791685_AdjustorThunk
Uw:__ZN7mecanim12statemachine24CreateStateMachineOutputEPKNS0_20StateMachineConstantEjRNS_6memory9AllocatorE
XIg:_Logger__ctor_m3834134587
ndj:_il2cpp_assembly_get_image
RBa:__ZNK9GfxDevice27GetActiveRenderSurfaceWidthEv
mSc:__ZN11UnityEngine15PlatformWrapper28GetCleanGraphicsFixedVersionEv
w:tempBigIntP
fgj:__ZN6il2cpp2vm4Type7GetTypeEPK10Il2CppType
VPg:_Rect_Contains_m1334685291_AdjustorThunk
Jud:_AssemblyLoadEventHandler_Invoke_m108373765
iTd:_CCGregorianCalendar_dmy_from_fixed_m2992247462
Ucd:_PointerInputModule_ShouldStartDrag_m4163638715
Fqa:__ZN6prcoreL17RemapGenericFloatI18TexFormatRGBAFloat17TexFormatRGBAHalfEEvPKNS_9InnerInfoE
yVa:__Z16FindCameraStacksRKNSt3__24listI4PPtrI6CameraENS_9allocatorIS3_EEEERNS_6vectorI11CameraStackNS4_ISA_EEEE
XNi:_WebRequestUtils__cctor_m893658947
bqb:__ZN10GISettings8TransferI14SafeBinaryReadEEvRT_
xn:FUNCTION_TABLE_vifff
S5e:_ReadOnlyCollection_1_System_Collections_Generic_ICollectionU3CTU3E_Remove_m2957273994_gshared
Qab:__ZN19CustomRenderTexture12ClearGPUDataEv
M9c:_BaseInputModule_ShouldActivateModule_m2899747874
mmg:__Z86RuntimeInvoker_Int32_t2071877448_DateTimeOffset_t1362988906_DateTimeOffset_t1362988906PFvvEPK10MethodInfoPvPS4_
Hia:__ZN13RenderTexture13ApplySettingsEv
zUj:_glVertexAttrib4f__wrapper
$e:_JS_Sound_SetListenerPosition
pn:FUNCTION_TABLE_fiffi
KH:__Z86Register_UnityEngine_Animations_AnimatorControllerPlayable_INTERNAL_CALL_SetBoolStringv
Gvg:_ModuleBuilderTokenGenerator_GetToken_m3427457873
WUh:_Selectable_get_isPointerInside_m3162215687
SZd:_Array_FindIndex_TisRuntimeObject_m4149904176_gshared
IHe:_List_1_System_Collections_IList_Contains_m149594880_gshared
CUf:_UnauthorizedAccessException__ctor_m3480402128
Ave:_BigInteger_op_Modulus_m3788401748
Qii:_ArgInfo_GetInOutArgs_m3184132151
Lsa:__ZNK8Material16MarkDependenciesER27GarbageCollectorThreadState
mrc:__ZL17Transfer_GUIStyleI9JSONWriteLb0EEvRK29SerializationCommandArgumentsR31RuntimeSerializationCommandInfo
wog:_Random__ctor_m1561335652
eZa:__Z28GetHaloVertexPositionsStereoP8Vector3fRKS_S2_f
ura:__ZN6prcoreL27StretchGenericFloatBilinearI15TexFormatRGHalfEEvPKNS_9InnerInfoE
BEe:_Enumerator_MoveNext_m598197344_AdjustorThunk
dbi:_DisplaysUpdatedDelegate_Invoke_m3646339243
d7c:_String_JoinUnchecked_m1880555587
Ela:__ZNK9ShaderLab7Program21GetMatchingSubProgramEPK6ShaderPKNS_4PassERK16ShaderKeywordSetjPS7_R19ShaderSnippetResult
P1d:_Array_InternalArray__Insert_TisKeyValuePair_2_t1174980068_m2464431954_gshared
rhc:__Z49Register_UnityEngine_Resources_GetBuiltinResourcev
KDc:_tt_cmap10_char_index
gjd:_Dropdown_Awake_m335654827
$_g:_Dictionary_2_U3CCopyToU3Em__0_m1479035402_gshared
NBd:_BitArray_set_Item_m3801461194
H2i:__ZN15dense_hashtableINSt3__24pairIK10KeyWrapperIPK22Il2CppGenericParameterEP11Il2CppClassEES6_N6il2cpp5utils11PointerHashIS4_EEN14dense_hash_mapIS6_S9_SE_NS6_14EqualsComparerINS0_8equal_toIS5_EEEENS0_9allocatorISA_EEE9SelectKeyESJ_SL_E3endEv
I6c:_String_Remove_m3580114465
KVb:__ZN9ShaderLab22SerializedBindChannels8TransferI19StreamedBinaryWriteILb0EEEEvRT_
M4f:__Z82RuntimeInvoker_Int32_t2071877448_RuntimeObject_Int32_t2071877448_Int16_t4041245914PFvvEPK10MethodInfoPvPS4_
Fqf:_WebHeaderCollection_AddWithoutValidate_m1479880592
dUf:_UIntPtr__ctor_m2737768530
Bzc:_UNITY_FT_Stream_ReadUShort
Apd:_InputField_OnEnable_m3797157569
Adc:__Z51Register_UnityEngine_GUILayer_INTERNAL_CALL_HitTestv
Vjc:__Z50Register_UnityEngine_Object_FindSceneObjectsOfTypev
Mma:__ZNSt3__26__treeINS_12__value_typeIN4core12basic_stringIcNS2_20StringStorageDefaultIcEEEES6_EENS_19__map_value_compareIS6_S7_NS_4lessIS6_EELb1EEE13stl_allocatorIS7_L18MemLabelIdentifier1ELi16EEE7destroyEPNS_11__tree_nodeIS7_PvEE
F0i:_Nullable_1__ctor_m796575255_gshared
FDj:__ZN6il2cpp2vm8Profiler7GCEventE13Il2CppGCEvent
NLd:_DateTimeUtils_ToString_m3878360633
Xpj:__ZN6il2cpp6icalls8mscorlib6SystemL16ThrowInvalidCastEPK11Il2CppClassS5_
GGa:__Z13IsDepthFormat14GraphicsFormat
Bzb:__ZN12AspectRatios8TransferI24GenerateTypeTreeTransferEEvRT_
pwc:__Z12FormatBufferPciPKcz
ked:_TouchInputModule_Process_m1373751353
Rf:_emscripten_glUniform1fv
Zug:_MethodBuilder_Invoke_m1874904900
T2i:__ZN6il2cpp2vm5Class13GetArrayClassEP11Il2CppClassj
rL:__ZN4FMOD7Channel7setModeEj
asg:_DerivedType_InvokeMember_m4149586013
k1h:_AnimatorControllerPlayable_GetNextAnimatorStateInfo_m1690618991
Pmf:_TlsStream_SetLength_m1460039587
Rlc:__ZN11IMGUIModule12AddGUIScriptER8ListNodeI13MonoBehaviourE
rb:invoke_difi
Q8:__ZL50StaticRegisterSceneLoadedCallback_LightmapSettingsPv
P0f:__Z119RuntimeInvoker_Void_t1841601450_RuntimeObject_RuntimeObject_RuntimeObject_RuntimeObject_Int32_t2071877448_RuntimeObjectPFvvEPK10MethodInfoPvPS4_
Om:FUNCTION_TABLE_iiffi
jmd:_GridLayoutGroup_get_cellSize_m1061731753
nGa:__ZN21GLESGpuProgramApplier11ApplyVectorERKN20GpuProgramParameters14ValueParameterEPK8Vector4ft
F4a:__Z17PrepareSceneNodesP11CullResults
zNi:_Vector4_ToString_m2340321043_AdjustorThunk
cCi:_Parser_IsIgnoreCase_m4155598997
ZFc:_cff_size_done
BWa:__ZN22RenderingCommandBuffer13GetAndCheckRTE24BuiltinRenderTextureTypeRKN9ShaderLab16FastPropertyNameEPKcPP13RenderTexture
hbb:__ZN6Camera34UpdatePreviousViewProjectionMatrixEv
Hla:__ZN9ShaderLab11ShaderState25RemoveUnsupportedProgramsEPK6Shader
xWb:__ZL23AddGpuProgramParametersR20GpuProgramParametersRKNSt3__26vectorIN9ShaderLab20SerializedSubProgram15MatrixParameterENS1_9allocatorIS5_EEEERKNS2_INS4_15VectorParameterENS6_ISB_EEEEiP16PropertyNamesSet
Njc:__Z44Register_UnityEngine_Object_DestroyImmediatev
Mcc:__Z47Register_UnityEngine_Component_BroadcastMessagev
Qr:__ZN18StreamedBinaryReadILb0EE21TransferSTLStyleArrayI13dynamic_arrayI4PPtrI6ObjectELj4EEEEvRT_17TransferMetaFlags
Ldh:__ZL62_ConstructorBuilder_t1236878896_CustomAttributesCacheGeneratorP21CustomAttributesCache
jge:_Int64_System_IConvertible_ToInt16_m2022633688_AdjustorThunk
S7:__ZN13RuntimeStaticI21AssetReferenceStorageLb0EE16StaticInitializeEPv
cMj:__ZN6il2cpp8metadata25Il2CppGenericClassCompare7CompareEPK18Il2CppGenericClassS4_
aC:__ZNK8Animator20IsInMatchTargetStateEv
wmc:__Z36Register_UnityEngine_GUI_set_changedv
lJf:_Encoding_get_Unicode_m1382741113
ahi:_LifetimeServices_set_SponsorshipTimeout_m1403222216
ezd:_Char_ToString_m1401375624_AdjustorThunk
A$d:_Array_InternalArray__ICollection_Add_TisTableRange_t2011406615_m147373358_gshared
WHd:_Convert_ToDateTime_m1251728572
l_h:_AnimationMixerPlayable_op_Explicit_m2834005805
C$d:_Array_InternalArray__ICollection_Add_TisBoolean_t3825574718_m1009318882_gshared
N6e:_ReadOnlyCollection_1_System_Collections_IList_set_Item_m1149349508_gshared
kw:__ZN27AnimationLayerMixerPlayable18SetInputConnectionEP8Playablei
_nc:__Z42Register_UnityEngine_GUIStyle_get_wordWrapv
Wv:__ZN7mecanim28TransformValueArrayBlendNodeEiiiRKNS_10ValueArrayERKNS_14ValueArrayMaskERS0_RS3_RNS_16ValueArrayWeightEf
VDf:_ObjectReader_ReadObjectContent_m3949770110
T9h:_Component_SendMessage_m4199581575
s4i:__ZN6il2cpp2vm5Class40GetInterfaceInvokeDataFromVTableSlowPathEPK12Il2CppObjectPK11Il2CppClassj
ulb:__ZN20TierGraphicsSettings8TransferI18StreamedBinaryReadILb0EEEEvRT_
MWh:_Text_get_font_m3115501113
fpj:__GLOBAL__sub_I_Thread_cpp
Wma:__ZN14SafeBinaryRead8TransferINSt3__24pairIN9ShaderLab16FastPropertyNameE10ColorRGBAfEEEEvRT_PKc17TransferMetaFlags
G1i:__ZL9rshift128PyS_
PDf:_ObjectReader_RecordFixup_m1893348030
j7d:_LayoutGroup_SetProperty_TisRuntimeObject_m1703476175_gshared
xng:__Z49RuntimeInvoker_UIVertex_t1204258818_RuntimeObjectPFvvEPK10MethodInfoPvPS4_
Vmj:__ZN14dense_hash_mapI10KeyWrapperINSt3__24pairIPK12PropertyInfoP11Il2CppClassEEEj17ReflectionMapHashIS8_ENS9_14EqualsComparerINS1_8equal_toIS8_EEEENS1_9allocatorINS2_IKS9_jEEEEE13set_empty_keyERSH_
fk:_glRenderbufferStorage
uuj:__ZNK15dense_hashtableINSt3__24pairIK10KeyWrapperINS1_IPKcS4_EEEiEES6_24NamespaceAndNamePairHashN14dense_hash_mapIS6_iS9_NS6_14EqualsComparerI26NamespaceAndNamePairEqualsEENS0_9allocatorIS8_EEE9SelectKeyESD_SF_E13find_positionERS7_
Xec:__Z45Register_UnityEngine_Input_get_touchSupportedv
qSc:__ZN11UnityEngine15PlatformWrapper28GetTextureFormatSupportFlagsEv
ABc:_UNITY_FT_Create_Class_pshinter_module_class
k6c:_String_CompareOrdinalCaseInsensitiveUnchecked_m2002640463
ywd:_Boolean_GetHashCode_m1894638460
CGc:_cf2_setError
evb:__ZN14SafeBinaryRead21TransferSTLStyleArrayI13dynamic_arrayI12BoneWeights4Lj16EEEEvRT_17TransferMetaFlags
BLf:_UTF7Encoding_InternalGetChars_m4157428055
Aua:__Z33InterpolateLightProbeCoefficientsRK17LightProbeContextRK29LightProbeSamplingCoordinatesR20SphericalHarmonicsL2
aUa:__ZZ23InitPlayerLoopCallbacksvEN35PreUpdateSendMouseEventsRegistrator7ForwardEv
Mxe:_SmallXmlParser_HandleBufferedContent_m3397096753
dh:_glDisable
Iqd:_InputField_OnDeselect_m3963675647
YQc:__Z44Register_UnityEngine_Canvas_get_pixelPerfectv
VCj:__ZN6il2cpp5utils11StringUtils15StringDuplicateEPKDsj
xvf:_BaseMachine_Scan_m122450399
Pw:__ZN17AnimationPlayable17ProcessRootMotionEP35AnimationPlayableEvaluationConstantP32AnimationPlayableEvaluationInputP33AnimationPlayableEvaluationOutput
Rzd:_ArrayList_CopyTo_m2353632788
J8:__ZNSt3__26vectorINS_4pairIyP17VertexDeclarationEENS_9allocatorIS4_EEE6assignIPS4_EENS_9enable_ifIXaasr21__is_forward_iteratorIT_EE5valuesr16is_constructibleIS4_NS_15iterator_traitsISB_E9referenceEEE5valueEvE4typeESB_SB_
y2h:_AnimatorControllerPlayable_CrossFade_m3391147919_AdjustorThunk
nVa:__ZNK8Material12GetPassCountEv
vFd:_Enumerator__cctor_m3784927209
g0j:b110
h0j:b111
i0j:b112
eRj:_bitshift64Ashr
k0j:b114
l0j:b115
m0j:b116
o0j:b117
RHa:__ZN4crnd12crn_unpacker22decode_alpha_endpointsEv
F5a:__Z23CullDynamicObjectsUmbraPK4AABBPKN5Umbra15OcclusionBufferER9IndexList
Nx:__ZThn148_NK26AnimatorControllerPlayable41GetStateMachineBehaviourVectorDescriptionEv
zDc:_tt_cmap4_char_next
Wbg:__Z444RuntimeInvoker_Boolean_t3825574718_RuntimeObject_RuntimeObject_RuntimeObject_ColorU26_t3402129837_Int32_t2071877448_Single_t2076509932_Single_t2076509932_Int32_t2071877448_SByte_t454417549_SByte_t454417549_Int32_t2071877448_Int32_t2071877448_Int32_t2071877448_Int32_t2071877448_SByte_t454417549_Int32_t2071877448_Single_t2076509932_Single_t2076509932_Single_t2076509932_Single_t2076509932_SByte_t454417549_SByte_t454417549_UInt32U26_t2197289955PFvvEPK10MethodInfoPvPS4_
WDi:_GeneralNames_ToString_m800435094
kfd:_BaseMeshEffect_OnDidApplyAnimationProperties_m2484799839
T7c:_ASCIIEncoding_GetString_m3931709239
bSf:_UInt16_Parse_m3560204090
Yuc:__ZN8JSONRead21TransferSTLStyleArrayI13dynamic_arrayIsLj2EEEEvRT_18MemLabelIdentifier17TransferMetaFlags
dL:__ZN4FMOD7Channel11setPositionEjj
Wh:_glBindSampler
a8e:_ReadOnlyCollection_1_System_Collections_Generic_ICollectionU3CTU3E_Clear_m964488020_gshared
_h:_glGetVertexAttribiv
E$d:_Array_InternalArray__ICollection_Add_TisChar_t3454481338_m422084244_gshared
BMc:__ZN2UI11CanvasGroup23VirtualRedirectTransferER18StreamedBinaryReadILb0EE
euc:__ZN8JSONRead8TransferIbEEvRT_PKc17TransferMetaFlagsb
GIg:_DefaultValueAttribute_Equals_m3216982933
Erf:_X509KeyUsageExtension_Decode_m3292847033
jeg:__Z52RuntimeInvoker_RaycastResult_t21186376_RuntimeObjectPFvvEPK10MethodInfoPvPS4_
Jxg:_Module_filter_by_type_name_ignore_case_m3574895736
Npb:__ZN26CustomRenderTextureManager19PreAllocateMaterialEP19CustomRenderTexture
vDf:_ObjectReader_ReadObject_m397855326
PEj:_GC_promote_black_lists
knd:_Image_get_fillAmount_m3354146540
Ruc:__Z29Transfer_Blittable_ArrayFieldI8JSONRead8Vector4fEvRT_R9ArrayInfoRK23StaticTransferFieldInfo
Zn:FUNCTION_TABLE_vf
zo:FUNCTION_TABLE_vd
KQf:_Type_GetMethod_m1930231379
Bo:FUNCTION_TABLE_vi
m7:__ZN13RuntimeStaticI37UnityShaderCompilerExtPluginConfigureLb0EE16StaticInitializeEPv
ate:_SimpleCollator_GetContraction_m1391584430
Bwd:_CultureInfo_get_InvariantCulture_m398972276
bwd:_Boolean_System_IConvertible_ToInt64_m4142756949_AdjustorThunk
FE:__ZNK8Animator17HasBoundPlayablesEv
Xbf:_HMAC_initializePad_m3828610671
i3g:_EqualityComparer_1_System_Collections_IEqualityComparer_Equals_m1089835085_gshared
X_c:_RSAParameters_t1462703416_marshal_pinvoke_cleanup
Hcj:__ZN6il2cpp2vm7Runtime9SetConfigEPKc
y4h:_AsyncOperation_get_priority_m966065939
ta:invoke_iiifiii
brj:__ZN6il2cpp2vm9Exception11FromNameMsgEPK11Il2CppImagePKcS6_S6_
vQf:_Type_internal_from_name_m1506974323
en:FUNCTION_TABLE_fiiifii
t0:__Z14GetTimeManagerv
Whb:__Z12GUIDToStringRK9UnityGUIDPc
R5h:_AudioMixerPlayable_GetAutoNormalizeVolumes_m2199898677_AdjustorThunk
xO:__ZN11AudioSource22UnmuteActiveVideoSinksEv
SCj:__ZN4utf88internal20is_overlong_sequenceIiEEbjT_
E5h:_AudioMixerPlayable__ctor_m2704850458
Ti:_glReadBuffer
fBd:_SynchronizedArrayListWrapper_get_Count_m4104930530
u1a:__Z30SetupBakedOcclusionForGeometrybRK26SharedLightmapSettingsDataRK15LightmapIndicesR17ShaderPassContext
Z1c:_SecurityPermission_IsSubsetOf_m1087302418
Scc:__Z41Register_UnityEngine_Cursor_get_lockStatev
T0a:__Z14SetupLightmapsRK8Vector4fS1_R17ShaderPassContext
tlj:__ZN14dense_hash_mapI10KeyWrapperIPK14Il2CppAssemblyEPK22Il2CppMonoAssemblyNameN6il2cpp5utils11PointerHashIS2_EENS4_14EqualsComparerINSt3__28equal_toIS3_EEEENSD_9allocatorINSD_4pairIKS4_S7_EEEEE13set_empty_keyERSJ_
jxf:_Interval_get_Empty_m3170923997
hVa:__ZL20InitializeGUIShadersv
I$b:__Z20DestroyObjectDelayedP6Objectf
n_:__ZN20DynamicHeapAllocatorI17LowLevelAllocatorED0Ev
Xpd:_InputField_OnDrag_m726194348
iue:_PreviousInfo__ctor_m1442166472_AdjustorThunk
p_a:__ZN9DepthPassD2Ev
dK:__ZN11AudioFilter6GetDSPEv
Vyc:__ZN20TextRenderingPrivate15DynamicFontData36GetFaceForCharacterIfAvailableInFontERKNS_7FontRefERKNSt3__26vectorI4PPtrIN13TextRendering4FontEE13stl_allocatorIS9_L18MemLabelIdentifier34ELi16EEEEj
w2:__ZN19RuntimeSceneManager14CanUnloadSceneEP10UnityScene
U3f:__Z50RuntimeInvoker_Single_t2076509932_Int64_t909078037PFvvEPK10MethodInfoPvPS4_
s_a:__Z22ExtractRenderNodeQueueRK11CullResults15ExtractionFlagsR15RenderNodeQueue
E3d:_Array_InternalArray__set_Item_TisContentType_t1028629049_m703420360_gshared
RSe:_List_1_set_Item_m1431784996_gshared
rJ:__ZN24AudioScriptBufferManagerC2Ev
vyc:__ZNSt3__26vectorIh13stl_allocatorIhL18MemLabelIdentifier1ELi16EEE8__appendEj
EZf:__Z95RuntimeInvoker_Void_t1841601450_RuntimeObject_Int32_t2071877448_Int32_t2071877448_RuntimeObjectPFvvEPK10MethodInfoPvPS4_
yyc:__ZN20TextRenderingPrivate8FontImpl16ResetPackingDataEv
NOf:_TimeSpan_get_Hours_m3804628138_AdjustorThunk
r_d:_Array_InternalArray__IndexOf_TisLink_t865133271_m3612939760_gshared
mqc:__Z18Transfer_BlittableI9JSONWriteLb0EfEvRK29SerializationCommandArgumentsR31RuntimeSerializationCommandInfo
Via:__Z21GetAsyncUploadManagerv
Kj:_emscripten_glDetachShader
hse:_SafeHandleZeroOrMinusOneIsInvalid_get_IsInvalid_m2033528032
Syd:_Char_IsUpper_m4083577610
cHa:__ZN17GenericDynamicVBO20ReleaseChunkInternalERK21DynamicVBOChunkHandlejj
iLc:__ZL27CleanupModule_TextRenderingv
gse:_SafeHandleZeroOrMinusOneIsInvalid__ctor_m3340306667
HNj:_fmodl
ZAf:_SerializationInfo_AddValue_m902275108
VNj:_fmodf
bka:__ZN12CachedWriter11Align4WriteEv
v$a:__Z20DoDeferredRenderLoopR17RenderLoopContextR13dynamic_arrayI16RenderObjectDataLj4EES4_RK11CullResultsRP13RenderTextureSA_Pb
oya:__ZN19RuntimeSceneManager11CreateSceneEv
PFc:_ps_get_standard_strings
zXe:_Collection_1_IsValidItem_m1908012838_gshared
t1a:__Z27SetupBakedOcclusionForLightbRK15SharedLightDataR17ShaderPassContext
rKj:__ZN6il2cpp2os5Mutex6UnlockEv
_0h:_AnimatorControllerPlayable_GetLayerWeight_m1435294989
_Th:_ScrollRect_OnScroll_m3346515304
xFe:_Enumerator_System_Collections_IEnumerator_get_Current_m3461301268_gshared
TZg:_Dictionary_2_CopyToCheck_m1638253305_gshared
$Va:__Z18RenderImageFiltersR10RenderLoopb
X_:__Z19free_alloc_internalPv18MemLabelIdentifier
GPc:__Z43CanvasRenderer_Get_Custom_PropMaterialCountP12Il2CppObject
k9a:__ZN10GameObjectD2Ev
f3e:_ReadOnlyCollection_1_System_Collections_Generic_IListU3CTU3E_set_Item_m25653560_gshared
jMh:__ZL68Selectable_t1490392188_CustomAttributesCacheGenerator_m_InteractableP21CustomAttributesCache
r9h:_Color32_op_Implicit_m889975790
Kci:_UnityEventBase_RebuildPersistentCallsIfNeeded_m1583202007
Xdf:_CertificateSelectionCallback_Invoke_m2902629105
l8:__ZN10InputEventD2Ev
kbe:_DateTimeFormatInfo_GetAllDateTimePatternsInternal_m1587126173
dMi:_Vector2_ToString_m775491729_AdjustorThunk
Aae:_NumberFormatter_Append_m3268121457
DWc:__ZN22UnityWebRequestManagerD2Ev
G_c:_RSA_ToXmlString_m4145056574
WQd:_Double_System_IConvertible_ToUInt64_m1318285078_AdjustorThunk
mNj:_isalpha
p5h:_AudioClipPlayable_SetStartDelayInternal_m1268437955
wej:_il2cpp_object_unbox
GSh:_Selectable_FindSelectable_m2739582497
Xmd:_LayoutGroup_GetAlignmentOnAxis_m1783063916
PLd:_DateTimeUtils_ZeroPad_m86470512
y_h:_AnimationOffsetPlayable_Equals_m3411254421
Daj:__ZN6il2cpp2vmL17IsSocketAsyncCallEP14Il2CppDelegate
o7h:_Camera_get_clearFlags_m1743144302
cJg:_Logger_IsLogTypeAllowed_m1750132386
oCj:__ZN6il2cpp2vm6String6NewLenEPKcj
Hjb:__ZN6Camera23VirtualRedirectTransferER19StreamedBinaryWriteILb0EE
Zk:_time
Lld:_Graphic_UnregisterDirtyLayoutCallback_m1724443555
Vwa:__ZN14BatchAllocator6CommitE18MemLabelIdentifier
jHc:_cf2_stack_free
qbd:_ExecuteEvents_get_pointerClickHandler_m713983310
R$h:_AnimatorControllerPlayable_GetBool_m217461036_AdjustorThunk
Ou:__ZN7mecanim9animation19EvaluateFloatValuesEPKNS0_18ClipMuscleConstantEPKNS_18ValueArrayConstantEPKNS0_12ClipBindingsEPKNS0_10ClipOutputEPNS0_18AnimationNodeStateEfbb
W2:__ZN15dense_hashtableINSt3__24pairIKiP6ObjectEEi21InstanceIDHashFunctorN14dense_hash_mapIiS4_S6_NS0_8equal_toIiEE13stl_allocatorIS5_L18MemLabelIdentifier65ELi16EEE9SelectKeyES9_SC_E12resize_deltaEjj
FC:__ZN8Animator31ClearInternalControllerPlayableEv
r0h:_AnimatorControllerPlayable_SetTrigger_m4033120343_AdjustorThunk
BVf:_WeakReference_Finalize_m3318354542
F9a:__ZN10GameObject8TransferI24GenerateTypeTreeTransferEEvRT_
aGe:_Enumerator_VerifyState_m3913376581_gshared
lhj:__ZN15dense_hashtableINSt3__24pairIK10KeyWrapperINS1_IPK9FieldInfoP11Il2CppClassEEEjEES9_17ReflectionMapHashIS8_EN14dense_hash_mapIS9_jSD_NS9_14EqualsComparerINS0_8equal_toIS8_EEEENS0_9allocatorISB_EEE9SelectKeyESI_SK_E4findERSA_
f$j:_glDeleteSync__wrapper
tId:_Decimal_op_Implicit_m623319612
CWg:_ValueCollection_System_Collections_Generic_ICollectionU3CTValueU3E_Remove_m98888100_gshared
Ead:_EventTrigger_OnPointerExit_m2119176877
LNf:_ThreadAbortException__ctor_m1623816114
u0b:__ZN13ProduceHelperI30RuntimeInitializeOnLoadManagerLb0EE7ProduceE18MemLabelIdentifier18ObjectCreationMode
J7a:__ZN13RenderTexture19SetAutoGenerateMipsEb
_oa:__Z20GetTextureFormatInfo13TextureFormat
Ync:__Z43Register_UnityEngine_GUIStyle_get_alignmentv
b0f:__Z119RuntimeInvoker_RuntimeObject_RuntimeObject_RuntimeObject_Int32_t2071877448_Int32_t2071877448_MonoIOErrorU26_t1029615899PFvvEPK10MethodInfoPvPS4_
yx:__ZN26AnimatorControllerPlayable8GetFloatEiRf
dXd:_PlayableHandle_IsPlayableOfType_TisRuntimeObject_m4111068959_gshared
C1h:_AnimatorControllerPlayable_GetCurrentAnimatorClipInfoCount_m3938711391
KQh:_Shadow__ctor_m924057531
qcd:_PointerEventData_set_worldPosition_m192283671
_Sj:dynCall_iiifiiii
_Mi:_Vector3_get_right_m1884123822
IIj:__ZN6il2cpp5utils10MemoryPool6MallocEj
MI:__ZN11SoundHandle8InstanceD2Ev
yba:__ZN31CanvasBatchIntermediateRenderer13StaticDestroyEPv
ZGi:_X509Store_BuildCrlsCollection_m52567568
xfc:__Z29Mesh_CUSTOM_RecalculateBoundsP12Il2CppObject
FRd:_Enum_ToString_m662345249
V8f:__Z150RuntimeInvoker_Single_t2076509932_Single_t2076509932_Single_t2076509932_SingleU26_t4173844468_Single_t2076509932_Single_t2076509932_Single_t2076509932PFvvEPK10MethodInfoPvPS4_
Pcc:__Z41Register_UnityEngine_CullingGroup_Disposev
Eob:__ZN7Cubemap23VirtualRedirectTransferER19StreamedBinaryWriteILb0EE
PQa:__ZN25MultiBlocksMemoryFileData5WriteEyyPKv
lOe:_List_1_System_Collections_IList_Add_m4271264217_gshared
pmj:__ZN14dense_hash_mapI10KeyWrapperIPK10Il2CppTypeEjN6il2cpp8metadata14Il2CppTypeHashENS4_14EqualsComparerINS6_26Il2CppTypeEqualityComparerEEENSt3__29allocatorINSB_4pairIKS4_jEEEEE13set_empty_keyERSE_
Ccc:__Z35Component_CUSTOM_SendMessageUpwardsP12Il2CppObjectP12Il2CppStringS0_i
YIa:__ZL17ProgramUniform2fvPK7ApiGLESjiihPKv
EYj:b83
qyc:__ZN20TextRenderingPrivate8FontImpl21HasCharacterInTextureEjijfPj
IOj:_htonl
AEa:__Z20GetBufferManagerGLESv
MQb:__ZN18StreamedBinaryReadILb0EE21TransferSTLStyleArrayI31ArrayOfManagedObjectsTransfererEEvRT_17TransferMetaFlags
MLf:_UTF7Decoder_GetChars_m2790530452
etc:__Z18Transfer_BlittableI8JSONReadLb0EtEvRK29SerializationCommandArgumentsR31RuntimeSerializationCommandInfo
HAc:_pshinter_module_class_pic_free
tLh:__ZL68Navigation_t1571958496_CustomAttributesCacheGenerator_m_SelectOnLeftP21CustomAttributesCache
fy:__ZN34AnimationStateMachineMixerPlayable13EndTransitionEv
LCj:__ZNSt3__212basic_stringIDsNS_11char_traitsIDsEENS_9allocatorIDsEEE9__grow_byEjjjjjj
IK:__ZN12AudioManager21FixMasterGroupRoutingEv
F0c:_SymmetricAlgorithm_set_Key_m2973350820
MJh:__ZL58FontData_t2614388407_CustomAttributesCacheGenerator_m_FontP21CustomAttributesCache
Hqf:_WebHeaderCollection_IsHeaderValue_m1723393133
Cxc:__ZN20TextRenderingPrivate8FontImpl13CharacterInfo8TransferI24GenerateTypeTreeTransferEEvRT_
h_f:__Z69RuntimeInvoker_Boolean_t3825574718_Int32_t2071877448_SByte_t454417549PFvvEPK10MethodInfoPvPS4_
Tzj:__ZN6il2cpp2os10ThreadImpl33UnregisterCurrentThreadForCleanupEv
nw:__ZN27AnimationLayerMixerPlayable22PrepareAnimationEventsEfR13dynamic_arrayI22AnimationClipEventInfoLj4EE
REb:__Z18Transfer_BlittableI14SafeBinaryReadLb1E4AABBEvRK29SerializationCommandArgumentsR31RuntimeSerializationCommandInfo
Eyj:__ZN6il2cpp6icalls8mscorlib6System4Enum12get_hashcodeEP12Il2CppObject
pIg:_Input_INTERNAL_get_mouseScrollDelta_m1140491498
gMj:__ZN6il2cpp8metadata26Il2CppGenericMethodCompare6EqualsEPK19Il2CppGenericMethodS4_
M9:__Z22CreateMutexLockedQueue18MemLabelIdentifier
xJ:__ZN9AudioClip7WWWOpenEPKciPjPPvS4_
KEb:__Z18Transfer_BlittableI14SafeBinaryReadLb0E8Vector2fEvRK29SerializationCommandArgumentsR31RuntimeSerializationCommandInfo
A3d:_Array_InternalArray__set_Item_TisPlayableBinding_t2498078091_m2071396616_gshared
Vc:_emscripten_glVertexAttrib2f
FTb:__ZN15SerializeTraitsIN9ShaderLab20SerializedSubProgram16TextureParameterEE8TransferI14SafeBinaryReadEEvRS2_RT_
cxd:_Byte_System_IConvertible_ToInt16_m1575115635_AdjustorThunk
Dhi:_Context_get_HasGlobalDynamicSinks_m3205328884
zte:_SimpleCollator_CompareQuick_m619038530
kmf:_SslStreamBase_EndRead_m1072850679
nd:_SDL_GetTicks
uBe:_X509CertificateEnumerator_System_Collections_IEnumerator_get_Current_m1643583406
$Nc:__ZN2UI14CanvasRenderer11SyncCullingENS0_8SyncFlagE
ejj:__ZN15dense_hashtableINSt3__24pairIK10KeyWrapperINS1_IPK11Il2CppImageP11Il2CppClassEEEjEES9_17ReflectionMapHashIS8_EN14dense_hash_mapIS9_jSD_NS9_14EqualsComparerINS0_8equal_toIS8_EEEENS0_9allocatorISB_EEE9SelectKeyESI_SK_E6insertERKSB_
i5a:__Z21CreateShadowCullerJobP30CreateUmbraShadowCullerJobData
mJg:_Material_get_mainTexture_m432794412
QIa:__ZL18ProgramUniform2uivPK7ApiGLESjiihPKv
NZj:_glUniform4iv__wrapper
i2a:__Z33GenerateShadowCasterPartsSortDataRK16ShadowCasterDatajRK15RenderNodeQueueRKNSt3__26vectorI20ShadowCasterPartData13stl_allocatorIS7_L18MemLabelIdentifier2ELi16EEEERK10Matrix4x4fRjP20ShadowCasterSortData
M$g:_Dictionary_2_ToTKey_m4209561517_gshared
wGc:_cf2_computeDarkening
AZ:__GLOBAL__sub_I_runtime_gfxdevice_lump_cpp
z4h:_AsyncOperation_set_priority_m3581020444
jFj:_GC_expand_hp_inner
bwj:__ZNK15dense_hashtableI10KeyWrapperIP18Il2CppGenericClassES3_N6il2cpp8metadata22Il2CppGenericClassHashEN14dense_hash_setIS3_S6_NS3_14EqualsComparerINS5_25Il2CppGenericClassCompareEEENSt3__29allocatorIS3_EEE8IdentityESA_SD_E12test_deletedEj
oec:__Z25Screen_Get_Custom_PropDpiv
lmd:_GridLayoutGroup_get_spacing_m1909275195
HCj:__ZN4utf812find_invalidIPKcEET_S3_S3_
bvf:_X509ExtensionCollection_System_Collections_ICollection_CopyTo_m3421329346
DEj:_GC_err_printf
Htg:_FieldBuilder_SetValue_m3109503557
Wkd:_Graphic_OnBeforeTransformParentChanged_m1866292273
Usf:_X509Certificate2_Verify_m1574874641
cX:__ZN11UnityEngine15CloudWebService20WebRequestRestClient7PrepareEv
LIh:__ZL58PhysicsRaycaster_t249603239_CustomAttributesCacheGeneratorP21CustomAttributesCache
eyc:__ZN20TextRenderingPrivate19NativeTextGenerator23FixLineHorizontalOffsetEiii
nFd:_SortedList_GetEnumerator_m1318483481
ytd:_Array_CreateInstance_m3327690220
qz:__ZN7mecanim9animation19DestroyAnimationSetEPNS0_12AnimationSetERNS_6memory9AllocatorE
KUj:_emscripten_glDepthRange__wrapper
$db:__ZN16MemoryFileSystem4OpenER13FileEntryData14FilePermission16FileAutoBehavior
lba:__ZN13RuntimeStaticI13RendererSceneLb0EE13StaticDestroyEPv
$Jb:__Z18Transfer_BlittableI24GenerateTypeTreeTransferLb1E12PropertyNameEvRK29SerializationCommandArgumentsR31RuntimeSerializationCommandInfo
Myb:__ZN14SafeBinaryRead21TransferSTLStyleArrayI10vector_mapIPKN5Unity4TypeE7Hash128NSt3__24lessIS5_EENS7_9allocatorINS7_4pairIS5_S6_EEEEEEEvRT_17TransferMetaFlags
wJ:__ZN9AudioClip18GetQueuedAudioDataEPPvj
YKc:__ZN20TextRenderingPrivate21TextMeshGeneratorImpl14GarbageCollectEv
c7b:__ZNK9Texture2D17CheckHasPixelDataEv
_Za:__Z18SetShadowsKeywordsR17ShaderPassContext9LightType10ShadowType16ShadowProjectionbb
Umj:__ZN14dense_hash_mapI10KeyWrapperINSt3__24pairIPK12PropertyInfoP11Il2CppClassEEEj17ReflectionMapHashIS8_ENS9_14EqualsComparerINS1_8equal_toIS8_EEEENS1_9allocatorINS2_IKS9_jEEEEEC2EjRKSB_RKSF_
A2b:__ZN17CollisionMeshDataC2Ev
cpg:_Assembly_GetModule_m2064378601
BTh:_ScrollRect_SetDirty_m93243192
Upb:__ZN16LightmapSettings23VirtualRedirectTransferER19StreamedBinaryWriteILb0EE
rUa:__ZZ23InitPlayerLoopCallbacksvEN47PostLateUpdateMemoryFrameMaintenanceRegistrator7ForwardEv
Eo:FUNCTION_TABLE_viiififii
WFj:_GC_push_next_marked
CLg:_MessageTypeSubscribers__ctor_m743474932
kxa:__ZN18IDCollectorFunctor18GenerateInstanceIDEi17TransferMetaFlags
J2d:_Array_InternalArray__set_Item_TisTableRange_t2011406615_m2386708730_gshared
Lae:_NumberFormatter_ToDecHex_m1474793296
Z4h:_AudioClipPlayable_SetClipInternal_m3129974269
veg:__Z74RuntimeInvoker_Int32_t2071877448_RaycastHit_t87180320_RaycastHit_t87180320PFvvEPK10MethodInfoPvPS4_
ofb:__ZN14StackAllocatorD0Ev
Dpj:__ZN6il2cpp2vm6Thread8SetStateEP12Il2CppThreadNS0_11ThreadStateE
bse:_OperatingSystem_Clone_m1943707477
vkd:_FontData_set_richText_m29558601
aOf:_Scheduler_Change_m4063588742
G4d:_Array_Resize_TisVector2_t2243707579_m1117258774_gshared
XHi:_HitInfo_SendMessage_m3368777144_AdjustorThunk
qgc:__Z22PlayableValidityChecksRK9HPlayableb
Szb:__ZN15ResourceManagerD2Ev
VMe:_List_1_Insert_m2532850849_gshared
ucc:__Z41Register_UnityEngine_Camera_GetAllCamerasv
zKg:_Mesh_get_vertices_m626989480
gQh:_MaskableGraphic_OnCanvasHierarchyChanged_m2012659245
LHa:__ZN4crnd12crn_unpacker10unpack_dxnEPPhjjjjjj
hUc:__ZN28PerformanceReportingSettings8TransferI14SafeBinaryReadEEvRT_
OId:_Double_Parse_m2344589511
a3f:__Z78RuntimeInvoker_Boolean_t3825574718_IntPtr_t_Int32_t2071877448_SByte_t454417549PFvvEPK10MethodInfoPvPS4_
Tqj:__ZN6il2cpp2vm22EmbeddedResourceRecordC2ERKS1_
C0h:_AnimatorControllerPlayable_INTERNAL_CALL_ResetTriggerID_m1182483253
zob:__ZN9Texture2D13AwakeFromLoadE17AwakeFromLoadMode
Sse:_MSCompatUnicodeTableUtil__cctor_m1479836795
aCi:_PositionAssertion__ctor_m3703837499
Krd:_LayoutGroup_get_minWidth_m4111745491
Ime:_StreamWriter_Initialize_m1707678624
Yxj:__ZN6il2cpp2vm3RCW14QueryInterfaceILb0EEEP14Il2CppIUnknownP15Il2CppComObjectRK10Il2CppGuid
uTh:_ScrollRect_set_verticalScrollbar_m2903688658
hqa:__ZN6prcoreL17RemapGenericFloatI15TexFormatRFloat18TexFormatARGBFloatEEvPKNS_9InnerInfoE
_dh:__ZL50_Thread_t1894135853_CustomAttributesCacheGeneratorP21CustomAttributesCache
vpi:_InternalEnumerator_1_get_Current_m1047712960_gshared
wZ:__GLOBAL__sub_I_runtime_camera_renderlayers_lump_cpp
yTc:__ZN11UnityEngine15PlatformWrapper20GetPlayerPrefsUInt64ERKN4core12basic_stringIcNS1_20StringStorageDefaultIcEEEEy
I1a:__ZN20ReflectionProbeCacheC2ER13BatchRendererR15RenderLoopStats
Zba:__ZN18AssetBundleManagerC2Ev
cSa:__ZNK12HandlerChain6ExistsERK13FileEntryData
lph:__ZL61ExtensionAttribute_t1840441203_CustomAttributesCacheGeneratorP21CustomAttributesCache
kJd:_Convert_ToInt32_m2734833291
z2a:__Z30FindDirectAttenuationFromProbeP18ForwardLightsBlockbiRK10RenderNodeRK23FindForwardLightsParamsf
Sxb:__ZN12InputManager23VirtualRedirectTransferER24GenerateTypeTreeTransfer
yYb:__ZN9Transform23VirtualRedirectTransferER24GenerateTypeTreeTransfer
NWb:__ZNSt3__26vectorIN9ShaderLab20SerializedSubProgram12UAVParameterENS_9allocatorIS3_EEE21__push_back_slow_pathIKS3_EEvRT_
hgi:_CrossAppDomainChannel_RegisterCrossAppDomainChannel_m43456045
Muf:_X509ChainElement_Count_m228862214
LPf:_TimeZone_IsDaylightSavingTime_m1840774423
cJc:_UNITY_tt_size_ready_bytecode
Pwc:__ZN13TextRendering4FontD2Ev
XVf:__Z47RuntimeInvoker_Single_t2076509932_RuntimeObjectPFvvEPK10MethodInfoPvPS4_
Kzc:_UNITY_FT_Stream_Open
ddg:__Z97RuntimeInvoker_Int32_t2071877448_IntPtr_t_RectU26_t844847526_RuntimeObject_Vector2U26_t3911752445PFvvEPK10MethodInfoPvPS4_
bNc:__GLOBAL__sub_I_runtime_ui_lump_cpp
YQa:__ZN10MemoryFile4ReadEyyPvPy
KAa:__ZN13GfxDeviceGLES26UpdateViewProjectionMatrixEv
sZg:_Dictionary_2_ContainsKeyValuePair_m1750905675_gshared
aI:__ZN4FMOD3DSP12setParameterEif
Ofa:__ZN13MemoryManager16StaticInitializeEv
M9g:__ZL53StackFrame_t2050294881_CustomAttributesCacheGeneratorP21CustomAttributesCache
sf:___cxa_free_exception
b7e:_ReadOnlyCollection_1_System_Collections_ICollection_CopyTo_m4126742951_gshared
OL:__ZN4FMOD22FakeModChannelCallbackEPv
yf:_emscripten_glValidateProgram
qWa:__ZN4Mesh10CreateMeshEv
mkj:__ZN6il2cpp2gc19AppendOnlyGCHashMapINSt3__24pairIPK9EventInfoP11Il2CppClassEEP21Il2CppReflectionEvent17ReflectionMapHashIS9_ENS2_8equal_toIS9_EEE3AddERKS9_SB_
SI:__ZN4FMOD7SystemI11createSoundEPKcjP22FMOD_CREATESOUNDEXINFOPPNS_5SoundE
rIi:_Sprite_get_associatedAlphaSplitTexture_m3617241169
KCf:_ArrayFixupRecord_FixupImpl_m2377725358
IEi:_PKCS12_get_Certificates_m2320062949
UGc:_cf2_stack_clear
wQd:_Double_System_IConvertible_ToBoolean_m4251806534_AdjustorThunk
bUg:_ShimEnumerator_Reset_m2247049027_gshared
Nrj:__ZN6il2cpp6icalls8mscorlib6System4Type27get_IsGenericTypeDefinitionEP20Il2CppReflectionType
K7a:__ZN7Texture13SetAnisoLevelEi
dtf:_X509Chain_Process_m2508784250
KRe:_List_1_RemoveAt_m2929488689_gshared
ZAc:_raccess_guess_vfat
NQc:__Z44Canvas_CUSTOM_GetETC1SupportedCanvasMaterialv
Ukb:__ZN11HaloManager10UpdateHaloEiR9Transform11ColorRGBA32fjP6Object
Q9:__ZN33InstancedMeshIntermediateRenderer13StaticDestroyEPv
Fee:_Int16_Parse_m3012618547
ctj:__ZN14dense_hash_mapI10KeyWrapperIP14Il2CppIUnknownEjN6il2cpp5utils11PointerHashIS1_EENS3_14EqualsComparerINSt3__28equal_toIS2_EEEENS9_9allocatorINS9_4pairIKS3_jEEEEE13set_empty_keyERSF_
x0f:__Z50RuntimeInvoker_Void_t1841601450_OpCode_t2247480392PFvvEPK10MethodInfoPvPS4_
hkb:__Z21DestroyShadowMapCacheP14ShadowMapCache
Tw:__ZN7mecanim9animation25CreateControllerWorkspaceEPKNS0_18ControllerConstantERNS_6memory9AllocatorE
uEe:_Enumerator_VerifyState_m739025304_gshared
Cid:_Graphic_RegisterDirtyVerticesCallback_m4169445219
smj:__ZN15dense_hashtableINSt3__24pairIK10KeyWrapperIPK10Il2CppTypeEjEES6_N6il2cpp8metadata14Il2CppTypeHashEN14dense_hash_mapIS6_jSB_NS6_14EqualsComparerINSA_26Il2CppTypeEqualityComparerEEENS0_9allocatorIS8_EEE9SelectKeyESF_SH_E14squash_deletedEv
bsj:__ZN6il2cpp2vm13LivenessState5ResetEv
aLi:_Transform_get_parent_m147407266
mgg:__Z138RuntimeInvoker_Void_t1841601450_RuntimeObject_Color32_t874517518_Int32_t2071877448_Int32_t2071877448_Single_t2076509932_Single_t2076509932PFvvEPK10MethodInfoPvPS4_
lpc:__ZN9JSONWrite8TransferI11KeyframeTplIfEEEvRT_PKc17TransferMetaFlags
JWh:_Text_get_cachedTextGenerator_m224335893
mBg:_GameObject_GetComponent_m306258075
Jtj:__ZN6il2cpp2vm3RCW23GetOrCreateFromIUnknownEP14Il2CppIUnknownP11Il2CppClass
qPa:__ZN24BuiltinShaderParamValuesC2Ev
cqc:__ZL41CreateJSONTransferFunctionScriptingTraitsv
Lje:_FileStream_get_CanWrite_m775322953
BUa:__Z23GetLateBehaviourManagerv
mbd:_ExecuteEvents_Execute_m2863348178
z6:__ZN10MemoryPool10DeallocateEPv
Dbe:_NumberFormatInfo__ctor_m2752806684
wmf:_SslStreamBase_get_CanRead_m3061866682
Kyi:_PatternCompiler_EmitFastRepeat_m1175707353
D7d:_Array_InternalArray__get_Item_TisKeyValuePair_2_t3716250094_m3120861630_gshared
KAc:_cff_driver_class_pic_free
hSf:_UInt32_TryParse_m3987111861
xvc:__ZNK9rapidjson12GenericValueINS_4UTF8IcEE13JSONAllocatorE6AcceptINS_6WriterI16TempBufferWriterS2_S2_S3_EEEEbRT_
NSj:dynCall_vif
OSj:dynCall_vid
kai:_Native_CSSNodeGetMeasureFunc_m3825031950
ELe:_List_1_System_Collections_IList_get_Item_m3989815218_gshared
PSj:dynCall_vii
BQb:__Z18Transfer_BlittableI18StreamedBinaryReadILb0EELb0EdEvRK29SerializationCommandArgumentsR31RuntimeSerializationCommandInfo
$xi:_Enumerator_System_Collections_IEnumerator_MoveNext_m3313126804
c_a:__ZNK17InstancedPropInfo14IsInstanceableERK19ShaderPropertySheet
vgb:__ZN5Unity9Component16CheckConsistencyEv
Yed:_LayoutRebuilder_ValidController_m2595049322
HJa:__ZN7ApiGLES11CheckShaderERjb
zha:__ZN19ShaderPropertySheet37CreateTextureAuxPropertyUninitializedEN9ShaderLab16FastPropertyNameES1_PKc
zQg:_RectTransform_set_anchoredPosition_m2077229449
cMb:__ZL26Transfer_SimpleNativeClassI19StreamedBinaryWriteILb0EE10RectOffsetLb1EEvRK29SerializationCommandArgumentsR31RuntimeSerializationCommandInfo
C7d:_Array_InternalArray__get_Item_TisKeyValuePair_2_t1174980068_m964958642_gshared
Shj:__ZN15dense_hashtableINSt3__24pairIK10KeyWrapperIPK10Il2CppTypeEjEES6_N6il2cpp8metadata14Il2CppTypeHashEN14dense_hash_mapIS6_jSB_NS6_14EqualsComparerINSA_26Il2CppTypeEqualityComparerEEENS0_9allocatorIS8_EEE9SelectKeyESF_SH_E3endEv
B2a:__Z28GetNonInterpolatedLightProbeRK17LightProbeContextjR20SphericalHarmonicsL2
P$d:_Array_InternalArray__ICollection_Add_TisDateTime_t693205669_m3559987213_gshared
pDa:__ZN13GfxDeviceGLES17SetGpuProgramNameEP10GpuProgramPKc
pX:__ZNK11UnityEngine15CloudWebService25WebRequestDownloadHandler11GetProgressEv
M9i:__ZN6il2cpp2vm13MetadataCache28GetMethodDefinitionFromIndexEi
iBj:__ZN6il2cpp2os20FileErrnoToErrorCodeEi
Pma:__ZN14SafeBinaryRead19TransferSTLStyleMapINSt3__23mapI39DeprecatedFastPropertyNameSerialization10ColorRGBAfNS1_4lessIS3_EENS1_9allocatorINS1_4pairIKS3_S4_EEEEEEEEvRT_17TransferMetaFlags
D6h:_Behaviour_get_enabled_m4079055610
hyg:_MonoEventInfo_GetEventInfo_m2331957186
BMi:_Vector3_Lerp_m2935648359
RNi:_NetFxCoreExtensions_GetMethodInfo_m2715372889
fh:_atexit
ZBd:_BitArrayEnumerator_Reset_m3218489242
pxd:_Byte_System_IConvertible_ToUInt16_m2275325191
Vkj:__ZN6il2cpp2vmL31GetObjectForMissingDefaultValueEj
r7i:__ZNK15dense_hashtableINSt3__24pairIK10KeyWrapperIN6il2cpp5utils13dynamic_arrayIPK10Il2CppTypeLj4EEEEPFvvEEESA_NS3_8metadata19Il2CppSignatureHashEN14dense_hash_mapISA_SD_SG_NSA_14EqualsComparerINSF_22Il2CppSignatureCompareEEENS0_9allocatorISE_EEE9SelectKeyESK_SM_E10test_emptyEj
nUb:__ZN9ShaderLab14SerializedPassC2ERKS0_
kni:_InternalEnumerator_1_System_Collections_IEnumerator_get_Current_m3088751576_AdjustorThunk
SBa:__ZNK9GfxDevice28GetActiveRenderSurfaceHeightEv
l:STACKTOP
CIc:_cff_get_name_index
Ioe:_Math_Cos_m43596019
jqb:__ZN21EnlightenSceneMapping16BuildRemapTablesEv
hEb:__ZNSt3__26vectorI4PPtrI10MonoScriptE13stl_allocatorIS3_L18MemLabelIdentifier76ELi16EEE8__appendEj
H5b:__ZN17TransformInternal27UpdateDeepChildCountUpwardsER18TransformHierarchyii
Kti:_InternalEnumerator_1_System_Collections_IEnumerator_get_Current_m1533037706_AdjustorThunk
pQj:__ZNK10__cxxabiv117__class_type_info16search_above_dstEPNS_19__dynamic_cast_infoEPKvS4_ib
A:tempBigIntD
Z4c:_Single_Equals_m3359827399_AdjustorThunk
Jad:_EventTrigger_OnPointerClick_m413999043
z:tempBigIntI
wOi:_CachedInvokableCall_1__ctor_m127496184_gshared
cbf:_PrimalityTests_RabinMillerTest_m2029846965
y:tempBigIntR
x:tempBigIntS
un:FUNCTION_TABLE_viffi
hzc:_open_face_PS_from_sfnt_stream
kCf:_ServerIdentity_CreateObjRef_m1056204803
l6:__ZN6Object18RegisterInstanceIDEPS_
IJb:__Z18Transfer_BlittableI24GenerateTypeTreeTransferLb1EsEvRK29SerializationCommandArgumentsR31RuntimeSerializationCommandInfo
jxj:__ZN15dense_hashtableINSt3__24pairIK10KeyWrapperIP12Il2CppObjectEN6il2cpp2gc9CachedCCWEEES5_NS7_5utils11PointerHashIS3_EEN14dense_hash_mapIS5_S9_SD_NS5_14EqualsComparerINS0_8equal_toIS4_EEEENS0_9allocatorISA_EEE9SelectKeyESI_SK_E11set_deletedER30dense_hashtable_const_iteratorISA_S5_SD_SM_SI_SK_E
LAa:__ZNK9GfxDevice18GetWorldViewMatrixEv
PLe:_List_1_Contains_m3819542652_gshared
dgf:_TlsServerKeyExchange__ctor_m247733406
I8d:_Object_Instantiate_TisRuntimeObject_m1767088036_gshared
p4e:_ReadOnlyCollection_1_System_Collections_IList_Add_m3065652010_gshared
DDj:__ZN6il2cpp6icalls8mscorlib6System7Convert17Base64ToByteArrayEPDsib
uRi:_IndexedSet_1_Clear_m2776064367_gshared
ZHg:_GUIUtility_set_systemCopyBuffer_m2040945785
ang:__Z82RuntimeInvoker_Boolean_t3825574718_RaycastResult_t21186376_RaycastResult_t21186376PFvvEPK10MethodInfoPvPS4_
IKg:_Mesh_SetNormals_m3341225499
Y6i:__ZNSt3__218__insertion_sort_3IRN6il2cpp5utils11collections13ArrayValueMapIPK10Il2CppType17Il2CppInteropData26InteropDataToTypeConverterNS1_8metadata14Il2CppTypeLessENSA_26Il2CppTypeEqualityComparerEE12SortComparerEPS8_EEvT0_SH_T_
uNc:__ZN2UI39SendIgnoreNextTransformChangedRecursiveEPK9TransformPKNS_6CanvasE
PAa:__ZNK9GfxDevice25GetDeviceProjectionMatrixEv
jpf:_HttpWebRequest__ctor_m1248252412
ma:invoke_iidiii
OJb:__Z18Transfer_BlittableI24GenerateTypeTreeTransferLb1EtEvRK29SerializationCommandArgumentsR31RuntimeSerializationCommandInfo
Aog:_RankException__ctor_m2119191472
Evc:__ZN9rapidjson12PrettyWriterI16TempBufferWriterNS_4UTF8IcEES3_13JSONAllocatorE11WriteIndentEv
q8b:__ZN10systeminfo24GetRuntimePlatformStringEv
ssc:__ZN9JSONWrite8TransferI13dynamic_arrayI4AABBLj4EEEEvRT_PKc17TransferMetaFlags
y0f:__Z64RuntimeInvoker_Void_t1841601450_OpCode_t2247480392_RuntimeObjectPFvvEPK10MethodInfoPvPS4_
uU:__ZN5physx14PxLightCpuTask15removeReferenceEv
fag:__Z88RuntimeInvoker_Void_t1841601450_Double_t4078015681_Double_t4078015681_Double_t4078015681PFvvEPK10MethodInfoPvPS4_
zqf:_SPKey_Equals_m1112627532
Zle:_Stream_Close_m1499612649
Pii:_ArgInfo__ctor_m3787931268
oGi:_X509Chain_Build_m175470596
Gha:__ZN9ShaderLab6TexEnvC2ERKNS_25SerializedTexturePropertyE
jMg:_Object_Instantiate_m2489341053
gla:__ZN19ShaderPropertySheet38CopyTextureWithAuxiliaryPropertiesFromERKN9ShaderLab16FastPropertyNameERKS_
Bgf:_TlsServerCertificate__ctor_m3697944709
naj:__ZN6il2cpp2vm19SocketPollingThread14DequeueRequestEv
QAj:__ZL10RevealLinkPv
t6a:__ZNK6Camera26CalculateCullingParametersER17CullingParameters
Ji:___cxa_end_catch
ivg:_MethodBuilder_MakeGenericMethod_m303913412
vpg:_AssemblyName_InternalGetPublicKeyToken_m3706025887
YSj:dynCall_viffffii
Wad:_ExecuteEvents_Execute_m4235029535
wpf:_HttpWebRequest_GetObjectData_m1200570677
VQc:__Z43Register_UnityEngine_Canvas_set_scaleFactorv
PFg:_GUIStyle_set_onHover_m3908151335
_Ac:_raccess_guess_linux_cap
lkf:_ReceiveRecordAsyncResult_get_AsyncWaitHandle_m1602093076
agg:__Z113RuntimeInvoker_Boolean_t3825574718_Ray_t2469606224_RaycastHitU26_t1969197280_Single_t2076509932_Int32_t2071877448PFvvEPK10MethodInfoPvPS4_
NQb:__Z19TransferField_ArrayI18StreamedBinaryReadILb0EE27Converter_UnityEngineObjectEvRK23StaticTransferFieldInfoR31RuntimeSerializationCommandInfoRT0_
X4f:__Z221RuntimeInvoker_Void_t1841601450_Int32_t2071877448_Int16_t4041245914_Int16_t4041245914_SByte_t454417549_SByte_t454417549_SByte_t454417549_SByte_t454417549_SByte_t454417549_SByte_t454417549_SByte_t454417549_SByte_t454417549PFvvEPK10MethodInfoPvPS4_
_0:__Z33InitializeBuiltinShaderParamNamesv
ZBe:_ActivationContext_System_Runtime_Serialization_ISerializable_GetObjectData_m775951299
CQg:_RectTransform_INTERNAL_get_sizeDelta_m3975625099
vja:__ZNK16TypeTreeIterator4TypeEv
Nii:_LeaseManager__ctor_m2166901364
APa:__ZN10FileSystem25MountDataFolderFileSystemERKN4core12basic_stringIcNS0_20StringStorageDefaultIcEEEES6_
hMh:__ZL67Selectable_t1490392188_CustomAttributesCacheGenerator_m_SpriteStateP21CustomAttributesCache
qj:_glGetUniformLocation
_Ba:__ZN13GfxDeviceGLES32CreateColorRenderSurfacePlatformEP17RenderSurfaceBase19RenderTextureFormat
gJ:__ZN12AudioManager24CreateFMODSoundFromMovieEP9AudioClip
Gvc:__ZN9rapidjson6WriterI16TempBufferWriterNS_4UTF8IcEES3_13JSONAllocatorE8WriteIntEi
L8i:__ZN6il2cpp2vm13MetadataCache24GetGenericInstanceMethodEPK10MethodInfoPK20Il2CppGenericContext
Pse:_MSCompatUnicodeTable_get_IsReady_m562849792
Use:_SimpleCollator_SetCJKTable_m1356471502
mNb:__Z18Transfer_BlittableI18StreamedBinaryReadILb1EELb0E8Vector2fEvRK29SerializationCommandArgumentsR31RuntimeSerializationCommandInfo
Afe:_Int32_System_IConvertible_ToUInt64_m2888588559_AdjustorThunk
G5:__Z24ConvertSeparatorsToUnityPc
dyb:__ZNSt3__213__vector_baseI9InputAxisNS_9allocatorIS1_EEED2Ev
lpj:__ZN6il2cpp2vm6Thread20FreeThreadStaticDataEP12Il2CppThread
HVf:__Z28RuntimeInvoker_RuntimeObjectPFvvEPK10MethodInfoPvPS4_
ISd:_Exception_get_ClassName_m2189012117
uie:_IOException__ctor_m613517077
_ei:_MarshalDirectiveException__ctor_m3894820706
hHc:_cf2_glyphpath_finalize
FFd:_Stack__ctor_m521896492
UYa:__Z20LookRotationToMatrixRK8Vector3fS1_P10Matrix3x3f
mTj:dynCall_viififi
qAb:__ZNSt3__26vectorIN15ResourceManager10DependencyE13stl_allocatorIS2_L18MemLabelIdentifier51ELi16EEE6assignINS_11__wrap_iterIPS2_EEEENS_9enable_ifIXaasr21__is_forward_iteratorIT_EE5valuesr16is_constructibleIS2_NS_15iterator_traitsISC_E9referenceEEE5valueEvE4typeESC_SC_
dBc:_UNITY_FT_Stream_Free
fQf:_Type_GetTypeFromHandle_m432505302
_oj:__ZN15dense_hashtableINSt3__24pairIK10KeyWrapperINS1_IP11Il2CppClassjEEES4_EES6_N6il2cpp8metadata14ArrayClassHashEN14dense_hash_mapIS6_S4_SB_NS6_14EqualsComparerINSA_17ArrayClassCompareEEENS0_9allocatorIS8_EEE9SelectKeyESF_SH_E12maybe_shrinkEv
fXd:_PlayableHandle_IsPlayableOfType_TisAnimationClipPlayable_t4099382200_m682525715_gshared
ide:_GuidParser_ParseHex_m3163482281
Lei:_GCHandle_FreeHandle_m2466807271
Zkd:_GraphicRegistry_get_instance_m2112667631
yV:__ZN11UnityEngine15CloudWebService14DataDispatcher25OnDataBlockConsumedStaticEPv
$ad:_ExecuteEvents_Execute_m2476343313
Udh:__ZL54_MethodInfo_t3642518830_CustomAttributesCacheGeneratorP21CustomAttributesCache
ggd:_CanvasUpdateRegistry_CleanInvalidItems_m1402635291
q8i:__ZNK6il2cpp5utils11collections13ArrayValueMapIPK10Il2CppType17Il2CppInteropData26InteropDataToTypeConverterNS_8metadata14Il2CppTypeLessENS8_26Il2CppTypeEqualityComparerEE10find_firstERKS5_
$fe:_Int64_System_IConvertible_ToByte_m3027162116_AdjustorThunk
ubd:_ExecuteEvents_get_endDragHandler_m56074740
zMg:_Playable_get_Null_m3678950051
K1b:__ZZN8Renderer15InitializeClassEvEN28FunctorImpl_136kLayerChanged4CallEPviR11MessageData
jqd:_InputField_IsValidChar_m3929866302
eTb:__Z14resize_trimmedINSt3__26vectorIN9ShaderLab20SerializedSubProgram16SamplerParameterENS0_9allocatorIS4_EEEEEvRT_j
tzd:_ArrayList__cctor_m2090802806
_Pj:__ZNSt3__212basic_stringIcNS_11char_traitsIcEENS_9allocatorIcEEE6insertEjPKcj
eqc:__Z44InitializeTransferFunctionScriptingTraitsForI8JSONReadEvR31TransferFunctionScriptingTraits
Vbb:__ZNSt3__26vectorINS_4pairIN4core12basic_stringIcNS2_20StringStorageDefaultIcEEEES6_EE13stl_allocatorIS7_L18MemLabelIdentifier37ELi16EEE6insertENS_11__wrap_iterIPKS7_EERSD_
gza:__ZNSt3__27__sort4IRNS_4lessIN22BuiltinResourceManager8ResourceEEEPS3_EEjT0_S7_S7_S7_T_
dbd:_ExecuteEvents_Execute_m171612015
Zha:__ZN15dense_hashtableINSt3__24pairIKPK17RenderSurfaceBaseP13RenderTextureEES4_19PointerHashFunctionIS4_EN14dense_hash_mapIS4_S7_SA_NS0_8equal_toIS4_EE13stl_allocatorIS8_L18MemLabelIdentifier65ELi16EEE9SelectKeyESD_SG_E12resize_deltaEjj
JHa:__ZN4crnd12crn_unpacker11unpack_dxt5EPPhjjjjjj
SSf:_UInt32_System_IConvertible_ToUInt64_m4083788326_AdjustorThunk
uDh:__ZL99GUIStyle_t1799908754_CustomAttributesCacheGenerator_GUIStyle_t1799908754____clipOffset_PropertyInfoP21CustomAttributesCache
YJc:_UNITY_tt_face_get_location
LHf:_DESTransform_Permutation_m4174035780
Cie:_Path_IsDsc_m1314465747
Gje:_MonoIO_Seek_m3461199288
rRb:__Z29Transfer_Blittable_ArrayFieldI18StreamedBinaryReadILb0EE4AABBEvRT_R9ArrayInfoRK23StaticTransferFieldInfo
D8a:__ZN10GameObject34AddFirstTransformComponentInternalEP9Transform
Rcc:__Z31Cursor_Get_Custom_PropLockStatev
p1:__ZNSt3__26__treeINS_12__value_typeINS_4pairIPcS3_EENS_3setIS3_15compare_tstringIPKcENS_9allocatorIS3_EEEEEENS_19__map_value_compareIS4_SD_20smaller_tstring_pairIS8_ELb1EEENSA_ISD_EEE7destroyEPNS_11__tree_nodeISD_PvEE
kP:__ZN12AudioManager29GetCurrentAmbisonicDefinitionE31UnityAudioEffectDefinitionFlags
L2i:__ZN15dense_hashtableINSt3__24pairIK10KeyWrapperIPK22Il2CppGenericParameterEP11Il2CppClassEES6_N6il2cpp5utils11PointerHashIS4_EEN14dense_hash_mapIS6_S9_SE_NS6_14EqualsComparerINS0_8equal_toIS5_EEEENS0_9allocatorISA_EEE9SelectKeyESJ_SL_E15insert_noresizeERKSA_
Tdc:__Z52Register_UnityEngine_GameObject_GetComponentInParentv
Xyb:__ZN15SerializeTraitsINSt3__24pairIPKN5Unity4TypeE7Hash128EEE8TransferI14SafeBinaryReadEEvRS7_RT_
h5a:__Z37GenerateCombinedDynamicVisibleListJobP11CullResults
EZ:__GLOBAL__sub_I_runtime_graphics_billboard_lump_cpp
Uda:__ZNK13ScreenManager21GetCursorInsideWindowEv
uAj:__ZN6il2cpp2vmL22RaiseOverflowExceptionEv
e0d:_Array_InternalArray__ICollection_Add_TisSByte_t454417549_m46595441_gshared
Jxi:_Match_get_Empty_m3581361913
h2a:__Z20IntersectAABBFrustumRK4AABBPK5Planej
a7c:_String_Concat_m626692867
e3b:__ZN13RenderManager15InitializeClassEv
WGb:__ZN15SerializeTraitsI12PropertyNameE8TransferI14SafeBinaryReadEEvRS0_RT_
jJi:_TextGenerationSettings_CompareVector2_m592645251_AdjustorThunk
fsc:__ZN9JSONWrite8TransferI11ColorRGBA32EEvRT_PKc17TransferMetaFlags
yuc:__Z22TransferField_NonArrayI8JSONRead27Converter_SimpleNativeClassI8GradientEEvRK23StaticTransferFieldInfoR31RuntimeSerializationCommandInfoRT0_
Mdb:__ZNSt3__26__treeIN4core12basic_stringIcNS1_20StringStorageDefaultIcEEEENS_4lessIS5_EE13stl_allocatorIS5_L18MemLabelIdentifier37ELi16EEE7destroyEPNS_11__tree_nodeIS5_PvEE
nJa:__ZNSt3__26vectorI15ComputeShaderCBNS_9allocatorIS1_EEE21__push_back_slow_pathIKS1_EEvRT_
nDb:__ZN10MonoScript13AwakeFromLoadE17AwakeFromLoadMode
S_b:__ZN13ProduceHelperI11MonoManagerLb0EE7ProduceE18MemLabelIdentifier18ObjectCreationMode
zLa:__ZNK18GfxFramebufferGLES15DiscardContentsER12ObjectHandleI17RenderSurface_TagP17RenderSurfaceBaseE
xxe:_KeyPairPersistence_IsUserProtected_m37342608
krc:__Z18Transfer_BlittableI9JSONWriteLb1EdEvRK29SerializationCommandArgumentsR31RuntimeSerializationCommandInfo
uXj:_glGetIntegerv__wrapper
K9d:_NumberFormatter_ResetCharBuf_m3823516989
H:Math_pow
tca:__ZN14dense_hash_mapIN4core12basic_stringIcNS0_20StringStorageDefaultIcEEEE10vector_setI4PPtrI11SpriteAtlasENSt3__24lessIS8_EE13stl_allocatorIS8_L18MemLabelIdentifier79ELi16EEE20StringHash32FunctionIS4_ENS9_8equal_toIS4_EESC_INS9_4pairIKS4_SF_EELSD_79ELi16EEE15set_deleted_keyERSL_
L8a:__ZN10GameObject28FinalizeAddComponentInternalEPN5Unity9ComponentE
cH:__Z64AnimatorControllerPlayable_CUSTOM_INTERNAL_CALL_SetTriggerStringR9HPlayableP12Il2CppString
oGg:_GUIStyle_Internal_Draw_m3610093213
IIi:_StackTraceUtility_IsSystemStacktraceType_m506502194
wpb:__ZN9Texture2DD2Ev
zZ:__GLOBAL__sub_I_runtime_geometry_lump_cpp
Ozd:_ArrayList_Remove_m3941780739
l4f:__Z69RuntimeInvoker_Void_t1841601450_SByte_t454417549_TimeSpan_t3430258949PFvvEPK10MethodInfoPvPS4_
hrg:_ConstructorBuilder_not_created_m2150488017
jXf:__Z63RuntimeInvoker_Char_t3454481338_Int16_t4041245914_RuntimeObjectPFvvEPK10MethodInfoPvPS4_
lG:__ZNSt3__26vectorIiNS_9allocatorIiEEE6insertENS_11__wrap_iterIPKiEERS5_
rDi:_Uri_AppendQueryAndFragment_m2358658590
oKg:_Mesh_GetIndicesImpl_m2398977086
Nq:__ZN13dynamic_arrayIhLj1EE18resize_initializedEjRKh12ResizePolicy
gci:_InvokableCallList_AddListener_m786891050
xxa:__ZN17PersistentManager27GetLoadErrorMessageFromPathERKN4core12basic_stringIcNS0_20StringStorageDefaultIcEEEE
y8c:_DecoderReplacementFallbackBuffer_Fallback_m1790184670
bm:_glGenRenderbuffers
Bsj:__ZN6il2cpp6icalls8mscorlib6System2IO6MonoIO19GetCurrentDirectoryEPi
h7c:_String_GetHashCode_m931956593
kzb:__ZN14PlayerSettings23VirtualRedirectTransferER17RemapPPtrTransfer
KXj:_emscripten_glGetIntegerv__wrapper
bP:__ZN12AudioManager31GetCurrentSpatializerDefinitionEv
Mwb:__ZN12MeshRenderer16UpdateCachedMeshEv
DGb:__Z19TransferField_ArrayI14SafeBinaryRead27Converter_SimpleNativeClassI8GradientEEvRK23StaticTransferFieldInfoR31RuntimeSerializationCommandInfoRT0_
iuj:__ZN6il2cpp2vm5Image9GetCorlibEv
ly:__ZNK27StateMachineBehaviourPlayer25FireStateMachineBehaviourEiiN7mecanim12statemachine19StateMachineMessageE
YSh:_ScrollRectEvent__ctor_m2283981448
S3f:__Z52RuntimeInvoker_Single_t2076509932_Single_t2076509932PFvvEPK10MethodInfoPvPS4_
$fg:__Z109RuntimeInvoker_Single_t2076509932_RuntimeObject_RuntimeObject_Single_t2076509932_ILayoutElementU26_t440254879PFvvEPK10MethodInfoPvPS4_
fGe:_Enumerator_VerifyState_m3913376581_AdjustorThunk
Wnf:_NameObjectCollectionBase_System_Collections_ICollection_CopyTo_m810189168
c8a:__ZN6Camera15SetOrthographicEb
NCc:_UNITY_FT_Stream_GetUShort
VAa:__ZN13GfxDeviceGLES14DisableScissorEv
bdh:__ZL71ReliabilityContractAttribute_t1625655220_CustomAttributesCacheGeneratorP21CustomAttributesCache
nKd:_Decimal_op_Explicit_m1986696267
p$g:_Dictionary_2_System_Collections_ICollection_CopyTo_m3578539931_gshared
dpg:_Assembly_GetModules_m2242070953
jae:_NumberFormatter_AppendDecimalString_m3532330813
Kc:_glVertexAttrib4f
l8f:__Z94RuntimeInvoker_RuntimeObject_RuntimeObject_Int32_t2071877448_SByte_t454417549_SByte_t454417549PFvvEPK10MethodInfoPvPS4_
sSd:_Environment_GetFolderPath_m1849163024
$ve:_ASN1_Add_m2540239672
nWd:_Array_InternalArray__ICollection_Remove_TisInt16_t4041245914_m3380378727_gshared
rNg:_PlayableHandle_GetInputCount_m3249715311_AdjustorThunk
hzf:_MethodDictionary_CopyTo_m1721788774
sxc:__ZNSt3__26vectorINS_4pairINS1_IttEEfEENS_9allocatorIS3_EEE8__appendEj
ugi:_SinkProviderData__ctor_m1828480392
sdd:_RaycastResult_ToString_m2233441736_AdjustorThunk
xJg:_Mathf_Sin_m831310046
sGj:_GC_set_hdr_marks
oWa:__Z17SetupObjectMatrixRK10Matrix4x4fi
c4c:_SecurityFrame_ToString_m1282306399
Qte:_SimpleCollator_MatchesBackwardCore_m1884994267
nPf:_TimeSpan_From_m1249538749
kte:_SimpleCollator_GetSortKey_m1317491197
Fjc:__Z43Object_CUSTOM_DoesObjectWithInstanceIDExisti
m1:__ZN13RuntimeStaticINSt3__23mapINS0_4pairIPcS3_EEPFbPvR14SafeBinaryReadE20smaller_tstring_pairIPKcENS0_9allocatorINS2_IKS4_S9_EEEEEELb0EE13StaticDestroyES5_
pyg:_MonoEvent_GetCustomAttributes_m3899596098
NJd:_Convert_ToSByte_m3295168715
Ht:__ZN7mecanim9animation16CreateClipMemoryEPKNS0_4ClipEiRNS_6memory9AllocatorE
ezc:_open_face
P1b:__ZZL31RegisterOtherRendererPropertiesR22GenericPropertyBindingEN30Wrapper_RendererReceiveShadows13SetFloatValueEPvf
nPc:__Z17RegisterModule_UIv
poe:_UnmanagedMemoryStream_Flush_m3305300000
z7h:_Camera_FireOnPreRender_m24116662
sRf:_TypeLoadException_GetObjectData_m2885802706
GBa:__ZN9GfxDevice24CreateRenderDepthSurfaceE9TextureIDiiii16TextureDimension17DepthBufferFormat18SurfaceCreateFlags
lEf:_ObjectManager_DoFixups_m835924385
NBf:_RemotingServices_CreateWellKnownServerIdentity_m3390048085
_I:__ZN4FMOD5Sound11setUserDataEPv
oSb:__ZN14SafeBinaryRead21TransferSTLStyleArrayINSt3__26vectorIN9ShaderLab19SerializedSubShaderENS1_9allocatorIS4_EEEEEEvRT_17TransferMetaFlags
Csj:__ZN6il2cpp6icalls8mscorlib6System2IO6MonoIO17GetFileAttributesEP12Il2CppStringPi
fw:__ZN27AnimationLayerMixerPlayable13SetInputCountEi
Hbf:_ARC4Managed_KeySetup_m73384687
mRa:__ZNK25SingleBlockMemoryFileData4SizeEv
zMd:_DateTime_Equals_m2562884703
LA:__ZN9BlobWrite8TransferIN7mecanim12statemachine18StateMachineMemoryEEEvRT_PKc17TransferMetaFlags
HM:__ZL50UnityAudioEffect_InternalSetFloatParameterCallbackP14FMOD_DSP_STATEif
Iwj:__ZNK15dense_hashtableINSt3__24pairIK10KeyWrapperIP12Il2CppObjectEN6il2cpp2gc9CachedCCWEEES5_NS7_5utils11PointerHashIS3_EEN14dense_hash_mapIS5_S9_SD_NS5_14EqualsComparerINS0_8equal_toIS4_EEEENS0_9allocatorISA_EEE9SelectKeyESI_SK_E3endEv
hgb:__ZN17LowLevelAllocator4FreeEPvj
vEd:_KeyMarker__cctor_m2057880225
o2i:__ZN15dense_hashtableINSt3__24pairIK10KeyWrapperIPK22Il2CppGenericParameterEP11Il2CppClassEES6_N6il2cpp5utils11PointerHashIS4_EEN14dense_hash_mapIS6_S9_SE_NS6_14EqualsComparerINS0_8equal_toIS5_EEEENS0_9allocatorISA_EEE9SelectKeyESJ_SL_E9copy_fromERKSO_j
Pce:_TextInfo_get_ListSeparator_m3426465394
nke:_FileStream_BeginWrite_m3895959548
Ihf:_Context_set_RecordProtocol_m1968834768
K7:__ZL19StaticCleanupPlayerPv
Vtf:_X509Certificate2Enumerator_MoveNext_m1861665712
E4b:__ZN13PlayableGraph4StopEv
bZf:__Z87RuntimeInvoker_RuntimeObject_RuntimeObject_RuntimeObject_RuntimeObject_SByte_t454417549PFvvEPK10MethodInfoPvPS4_
Xba:__ZN15dense_hashtableINSt3__24pairIKN4core12basic_stringIcNS2_20StringStorageDefaultIcEEEEP11AssetBundleEES6_20StringHash32FunctionIS6_EN14dense_hash_mapIS6_S9_SC_NS0_8equal_toIS6_EENS0_9allocatorISA_EEE9SelectKeyESF_SH_ED2Ev
VMf:_Monitor_Monitor_wait_m3813798368
i8c:_DecoderExceptionFallbackBuffer_Fallback_m3457210607
ygb:__ZN9Behaviour10DeactivateE19DeactivateOperation
Vai:_Display_get_renderingWidth_m2127568366
K_e:_Collection_1_System_Collections_IList_get_Item_m2836259259_gshared
o5h:_Debug_LogWarning_m2503577968
Wva:__ZN13StreamingInfo8TransferI14SafeBinaryReadEEvRT_
L$h:_AnimatorControllerPlayable_GetBoolString_m2522782124
NSb:__ZN15dense_hashtableINSt3__24pairIKiN4core17string_with_labelILi1EEEEEi18SInt32HashFunctionN14dense_hash_mapIiS5_S7_NS0_8equal_toIiEE13stl_allocatorIS6_L18MemLabelIdentifier1ELi16EEE9SelectKeyESA_SD_E15insert_noresizeERKS6_
XAb:__ZN14SafeBinaryRead21TransferSTLStyleArrayINSt3__26vectorIN4core12basic_stringIcNS3_20StringStorageDefaultIcEEEE13stl_allocatorIS7_L18MemLabelIdentifier12ELi16EEEEEEvRT_17TransferMetaFlags
bwc:__GLOBAL__sub_I_runtime_dynamics_lump_cpp
Hp:__Z23CalculateGlobalRotation23TransformAccessReadOnly
Ztf:_X509Store_Close_m2412711366
fF:__Z25HumanPoseMaskFromBodyMaskRK13dynamic_arrayIjLj4EE
j0h:_AnimatorControllerPlayable_SetInteger_m881630854_AdjustorThunk
M1b:__Z43InitializeRendererAnimationBindingInterfacev
w6:__ZL26DestroyGameObjectRecursiveR10GameObjectR11BatchDelete
MPh:_CullStateChangedEvent__ctor_m4025397477
JGj:_GC_allochblk_nth
_Mf:_Mutex_ReleaseMutex_m2143813124
JSf:_UInt32_System_IConvertible_ToSByte_m604037412_AdjustorThunk
Z0b:__Z7HaloTexP9Texture2DPhiiii
_Tj:dynCall_i
K0d:_Array_InternalArray__ICollection_CopyTo_TisKeyValuePair_2_t3749587448_m2750720485_gshared
_R:__ZN17AudioCustomFilter4InitEv
oFi:_X509Certificate__cctor_m2984068893
K6d:_Component_GetComponents_TisRuntimeObject_m1186222966_gshared
kTj:dynCall_f
lKb:__Z35Transfer_Blittable_FixedBufferFieldI24GenerateTypeTreeTransferjEvRK29SerializationCommandArgumentsR31RuntimeSerializationCommandInfo
Umb:__ZN8Playable13SetInputCountEi
BSj:dynCall_v
Rle:_Path__cctor_m3685888661
eOd:_Decimal_System_IConvertible_ToDateTime_m4247760250_AdjustorThunk
vwe:_BitConverterLE_ULongFromBytes_m2583105400
EKa:__ZN7ApiGLES14TextureSamplerEjjRK24GfxTextureSamplingParams17TextureColorSpace
g_g:_Dictionary_2_ToTKey_m965425080_gshared
Ljb:__ZN6Camera23VirtualRedirectTransferER14SafeBinaryRead
xLe:_List_1_System_Collections_IList_Insert_m2838947798_gshared
_Kj:__ZNSt3__26vectorINS_12basic_stringIDsNS_11char_traitsIDsEENS_9allocatorIDsEEEENS4_IS6_EEE8__appendEj
mPf:_TimeSpan_FromDays_m2859053398
ugj:__ZN6il2cpp2vm4Type11IsEmptyTypeEPK10Il2CppType
XSc:__ZN11UnityEngine7Connect13ConnectConfig11ConfigValueD2Ev
SEa:__ZNSt3__26__treeINS_12__value_typeIjP14DataBufferGLESEENS_19__map_value_compareIjS4_NS_4lessIjEELb1EEENS_9allocatorIS4_EEE7destroyEPNS_11__tree_nodeIS4_PvEE
K4b:__ZN13PlayableGraph15SetPrepareStageE13DirectorStage
Db:invoke_viiiiiiii
Voe:_MissingMemberException__ctor_m2869542203
AOi:_CachedInvokableCall_1__ctor_m3238306320_gshared
I5a:__ZNK6Camera16GetCullingMatrixEv
zRe:_List_1_Find_m160737912_gshared
QCi:_Uri_EnsureAbsoluteUri_m1892758054
Spb:__ZN16LightmapSettings5ResetEv
jQa:__ZN12FileAccessor4ReadEyPvPy
qmc:__Z42Register_UnityEngine_Event_get_commandNamev
rzd:_ArrayList_ThrowNewArgumentOutOfRangeException_m3795973535
izi:_Regex_Init_m1873144192
zwe:_BitConverterLE_ToDouble_m516016818
k6:__ZNK15FileSystemEntry6ExistsEv
jxb:__ZNK9Transform21GetLocalToWorldMatrixER10Matrix4x4f
Ex:__ZN26AnimatorControllerPlayable12ResetTriggerEi
TJ:__ZN13AudioListener23VirtualRedirectTransferER19StreamedBinaryWriteILb0EE
vCa:__ZN13GfxDeviceGLES11CopyTextureE9TextureIDS0_
lbc:__Z72Register_UnityEngine_AssetBundleCreateRequest_DisableCompatibilityChecksv
FWj:_emscripten_glViewport__wrapper
scg:__Z47RuntimeInvoker_RuntimeObject_Single_t2076509932PFvvEPK10MethodInfoPvPS4_
jhi:_Context__cctor_m3895126354
YIc:_tt_size_select
QV:__ZN11UnityEngine15CloudWebService17SessionEventQueue15RestoreFromFileER12FileAccessorPvy
bzb:__ZN14PlayerSettingsD2Ev
Nje:_FileStream_get_Length_m2265080501
BQf:_Type_type_is_assignable_from_m1620694099
xFj:_GC_reclaim_all
haa:__ZN13PlayableGraph14DestroyOutputsEv
iii:_ContextAttribute_GetPropertiesForNewContext_m4007241045
rf:___syscall122
waf:_Kernel_Subtract_m2224959291
Hdi:_ResourceSet__ctor_m2566914412
k0h:_AnimatorControllerPlayable_SetInteger_m3338355659
Abf:_ASN1Convert_ToDateTime_m2305963290
x0c:_SymmetricAlgorithm_Finalize_m1665128997
G9e:_BigInteger__ctor_m2991182310
p3h:_AnimatorStateInfo_IsName_m4069203550
vcc:__Z52Register_UnityEngine_Camera_INTERNAL_CALL_RaycastTryv
Tbb:__ZN13sorted_vectorINSt3__24pairIN4core12basic_stringIcNS2_20StringStorageDefaultIcEEEES6_EEN10vector_mapIS6_S6_27compare_tstring_insensitiveIS6_E13stl_allocatorIS7_L18MemLabelIdentifier37ELi16EEE13value_compareESD_E10insert_oneERKS7_
TGd:_Convert_ToByte_m791636053
cvi:_InternalEnumerator_1_get_Current_m2986222582_AdjustorThunk
d6e:_ReadOnlyCollection_1_System_Collections_IList_RemoveAt_m2372993063_gshared
ETj:dynCall_iifi
T9b:__ZN18ScriptingArguments13CopyFromOtherERKS_
DJg:_Mathf_Ceil_m3621406599
eFc:_ps_hints_close
o3b:__Z16CreateRenderLoopR6Camera
Z_:_tlsf_create
gwi:_DefaultComparer_Compare_m4039941311_gshared
kWg:_Enumerator_MoveNext_m2534596951_AdjustorThunk
SBb:__ZN13MonoBehaviour23VirtualRedirectTransferER18StreamedBinaryReadILb0EE
XTb:__ZN9ShaderLab20SerializedSubProgramC2ERKS0_
h$j:_emscripten_glCompileShader__wrapper
J$c:_SHA256Managed_ProcessBlock_m1064908669
SQj:__ZNK10__cxxabiv121__vmi_class_type_info27has_unambiguous_public_baseEPNS_19__dynamic_cast_infoEPvi
NKd:_Convert_ToUInt64_m2215781574
JFi:_X509Certificate_VerifySignature_m4020723406
oRf:_TypeInitializationException_GetObjectData_m2244451030
UTd:_CompareInfo_LastIndexOf_m2978196696
Vwe:_DSAManaged_Generate_m3166917081
LSg:_Enumerator_VerifyCurrent_m3330382363_AdjustorThunk
ZTh:_ScrollRect_StopMovement_m1824352159
tl:_emscripten_glGetActiveUniform
N$a:__Z20RenderFullScreenQuadR9GfxDeviceRK6Camera17ShaderChannelMaskRK5RectTIfEf21MonoOrStereoscopicEye
D1e:_ReadOnlyCollection_1_System_Collections_IList_Contains_m2320811592_gshared
xka:__ZN16RenderTextureMap5QueryEPK17RenderSurfaceBase
boe:_UnexceptionalStreamWriter_Write_m186237617
MTh:_ScrollRect_UpdateScrollbars_m3921404746
k_j:_emscripten_glUniform4iv__wrapper
vwd:_Boolean_CompareTo_m1086129598_AdjustorThunk
_1b:__ZN8Material8GetFloatEN9ShaderLab16FastPropertyNameE
V5h:_AudioPlayableOutput__ctor_m2971183853
IAc:_psnames_module_class_pic_free
vkc:__Z11GetGUIStatev
qg:_pthread_key_create
kdg:__Z61RuntimeInvoker_Boolean_t3825574718_Int32_t2071877448_IntPtr_tPFvvEPK10MethodInfoPvPS4_
Gzd:_ArrayList_Clear_m3834604134
xg:_emscripten_glGetObjectParameterivARB
Yma:__ZN15SerializeTraitsI10ColorRGBAfE8TransferI14SafeBinaryReadEEvRS0_RT_
G9i:__ZN6il2cpp2vm13MetadataCache27GetEventDefinitionFromIndexEi
Q7:__ZN22BuiltinResourceManager13StaticDestroyEPv
s4d:_Array_Resize_TisCustomAttributeTypedArgument_t1498197914_m3055365808_gshared
p6:__ZN10GameObject17GetComponentIndexEPN5Unity9ComponentE
_sb:__ZN14SafeBinaryRead21TransferSTLStyleArrayI13dynamic_arrayI7SubMeshLj4EEEEvRT_17TransferMetaFlags
R4c:_Single_IsNegativeInfinity_m2615809279
Xfe:_Int32_GetTypeCode_m3811463295_AdjustorThunk
Cff:_CipherSuiteFactory_GetSsl3SupportedCiphers_m2476597368
Gpf:_IPv6Address_Fill_m1824197512
MKc:__ZNK13TextRendering4Font11GetMaterialEv
vM:__ZN29AudioEffectInternalDefinition9CreateDSPEPN4FMOD6SystemEPvPfP23UnityAudioAmbisonicDataPP25UnityAudioSpatializerData
BKc:_UNITY_tt_face_vary_cvt
tbj:__ZNK6il2cpp5utils10functional6FilterINSt3__212basic_stringIcNS3_11char_traitsIcEENS3_9allocatorIcEEEENS0_13VmStringUtils21CaseSensitiveComparerEEclIPKcEEbRKT_
Ikc:__Z28DidLoadAllAssembliesCallbackv
xbb:__ZN35RegisterRuntimeInitializeAndCleanup22ExecuteInitializationsEv
Y8d:_GameObject_GetComponents_TisRuntimeObject_m3618562997_gshared
dsa:__ZN23PreloadManagerOperation14SetFinalTimingEffff
i:DYNAMICTOP_PTR
qjd:_Dropdown_SetupTemplate_m1416189897
KWa:__Z11CopyTextureP7TextureiiS0_ii
Zyb:__ZN13BuildSettings8TransferI18StreamedBinaryReadILb0EEEEvRT_
SQh:_PositionAsUV1__ctor_m412270210
SZb:__ZN10GameObject15InitializeClassEv
$Ef:_SerializationInfo_GetInt16_m3549836657
kec:__Z38Renderer_Get_Custom_PropSortingLayerIDP12Il2CppObject
HMh:__ZL90StencilMaterial_t1630303189_CustomAttributesCacheGenerator_StencilMaterial_Add_m1745413071P21CustomAttributesCache
TVd:_Array_InternalArray__ICollection_Contains_TisWorkRequest_t1154022482_m865286315_gshared
bRd:_Double_Equals_m920556135_AdjustorThunk
xef:_CipherSuite_get_ExpandedKeyMaterialSize_m296573450
TFd:_Stack_Push_m284336154
God:_InputField_set_caretBlinkRate_m3521089516
kMd:_DateTime_Add_m4237489122
kAb:__ZN15ResourceManager10Dependency8TransferI14SafeBinaryReadEEvRT_
$Ej:_GC_extend_size_map
lxi:_Comparer_1_System_Collections_IComparer_Compare_m637596782_gshared
XM:__ZN4FMOD6System9setDriverEi
fwj:__ZN6il2cpp8metadataL24RecursiveGenericDepthForEPK17Il2CppGenericInst
u3b:__ZNK9Transform11GetRotationEv
Msf:_X509Certificate2_Find_m833446211
kS:__ZN12AudioManager15DidReloadDomainEv
DFc:_pshinter_get_globals_funcs
mKb:__Z18Transfer_BlittableI24GenerateTypeTreeTransferLb0EyEvRK29SerializationCommandArgumentsR31RuntimeSerializationCommandInfo
eha:__ZN8Material14CreateMaterialER6ShaderN6Object9HideFlagsEb
Gxe:_KeyPairPersistence_FromXml_m2310151202
Abc:__Z60Register_UnityEngine_AsyncOperation_get_allowSceneActivationv
JNd:_DBNull_System_IConvertible_ToUInt64_m2919804476
_Oj:_fread
Nlb:__ZNK17InstancedPropInfo15RenderInstancesERK15RenderNodeQueuePK17BatchInstanceDataj17ShaderChannelMaskPFbPvS6_iR11MeshBuffersR16DrawBuffersRangeRiSC_E
mnc:__Z31GUIStyle_CUSTOM_GetFontInternalP12Il2CppObject
oEc:_tt_cmap12_char_map_binary
z3f:__Z51RuntimeInvoker_Double_t4078015681_Int16_t4041245914PFvvEPK10MethodInfoPvPS4_
pBc:_ft_outline_glyph_transform
hha:__Z25GetBuiltinResourceManagerv
Iri:_InternalEnumerator_1_System_Collections_IEnumerator_get_Current_m439366097_AdjustorThunk
qwj:__ZN6il2cpp2gc8GCHandle15GetTargetHandleEP12Il2CppObjectii
Nh:_llvm_trap
d1:__ZNSt3__27__sort5IRNS_6__lessIN12_GLOBAL__N_114ParamNameIndexES3_EEPS3_EEjT0_S7_S7_S7_S7_T_
mie:_Directory_CreateDirectory_m3561886598
wFj:_get_index
CYa:__Z26scripting_method_get_class18ScriptingMethodPtr
Ogf:_ClientSessionInfo_get_Valid_m3589823308
Fye:_PKCS1_Sign_v15_m2137018891
BXd:_SetPropertyUtility_SetClass_TisRuntimeObject_m3524554928_gshared
D6b:__ZN17CollisionMeshData20VertexDataHasChangedEv
zaj:__ZN6il2cpp2vm21ThreadPoolCompartment12DetachThreadEP12Il2CppThread
WBa:__ZN13GfxDeviceGLES30SetBackBufferColorDepthSurfaceEP17RenderSurfaceBaseS1_
PJf:_Latin1Encoding_GetBytes_m1067304501
Yoc:__Z52Register_UnityEngine_GUIUtility_get_systemCopyBufferv
k5b:__ZN16StreamedResource8TransferI18StreamedBinaryReadILb0EEEEvRT_
Yec:__Z49Register_UnityEngine_Input_get_imeCompositionModev
MSb:__ZN15dense_hashtableINSt3__24pairIKiN4core17string_with_labelILi1EEEEEi18SInt32HashFunctionN14dense_hash_mapIiS5_S7_NS0_8equal_toIiEE13stl_allocatorIS6_L18MemLabelIdentifier1ELi16EEE9SelectKeyESA_SD_E12resize_deltaEjj
E6a:__ZNK20OcclusionCullingData22GetStaticRendererCountEv
ACc:_UNITY_tt_face_free_ps_names
g0a:__ZNK6Camera17GetSkyboxMaterialEv
t$j:_emscripten_glDisableVertexAttribArray__wrapper
uoi:_InternalEnumerator_1_get_Current_m3259181373_AdjustorThunk
rqi:_InternalEnumerator_1_get_Current_m789289033_gshared
fAc:__ZNSt3__26vectorIN20TextRenderingPrivate8FontImpl13CharacterInfoE13stl_allocatorIS3_L18MemLabelIdentifier34ELi16EEE6insertENS_11__wrap_iterIPKS3_EERS9_
q8d:_Array_InternalArray__get_Item_TisUILineInfo_t3621277874_m1432166059_gshared
Owb:__ZN12MeshRenderer18CalculateLocalAABBER4AABBRKS_RK4Mesh
C4f:__Z242RuntimeInvoker_Boolean_t3825574718_RuntimeObject_RuntimeObject_RuntimeObject_SByte_t454417549_DateTimeU26_t3448131235_DateTimeOffsetU26_t3212986406_RuntimeObject_Int32_t2071877448_SByte_t454417549_BooleanU26_t3168250738_BooleanU26_t3168250738PFvvEPK10MethodInfoPvPS4_
Ide:_Guid_ToString_m3927110175
bgb:__ZN21UnityDefaultAllocatorI17LowLevelAllocatorE8AllocateEji
bqf:_IPv6Address_AsIPv4Int_m3565745471
tOc:__ZL28InitializeUIScriptingClassesv
jbc:__Z43AssetBundleRequest_Get_Custom_PropAllAssetsP12Il2CppObject
Lra:__ZN10UnityScene10ClearRootsEv
ZRa:__ZN12HandlerChain10AtomicMoveER13FileEntryDataS1_
CXd:_SetPropertyUtility_SetStruct_TisBoolean_t3825574718_m752301298_gshared
Daa:__ZZN15DirectorManager15InitializeClassEvEN48PreLateUpdateDirectorDeferredEvaluateRegistrator7ForwardEv
u0:__ZN20SpeedTreeWindManager6UpdateEf
h9h:_Color_op_Multiply_m325555950
SBi:_Literal_GetWidth_m1285678191
iId:_Decimal_ThrowAtPos_m3318712794
fze:_RSAManaged_GetPaddedValue_m4394397
sC:__ZN7mecanim9animation20CreateAvatarConstantEPNS_8skeleton8SkeletonEPNS1_13SkeletonPoseTIN4math4trsXEEES8_PNS_5human5HumanES3_iRKS6_RNS_6memory9AllocatorE
$ne:_UnexceptionalStreamWriter__ctor_m2209699189
S5h:_AudioMixerPlayable_INTERNAL_CALL_SetAutoNormalizeInternal_m2425179629
LNe:_List_1_Find_m970100220_gshared
TKi:_Transform_INTERNAL_get_rotation_m2427701365
XWd:_Array_InternalArray__ICollection_Remove_TisVector2_t2243707579_m3881494282_gshared
hwb:__ZN14CompressedMesh8TransferI19StreamedBinaryWriteILb0EEEEvRT_
opg:_AssemblyFileVersionAttribute__ctor_m2026149866
hbc:__Z58AssetBundleCreateRequest_CUSTOM_DisableCompatibilityChecksP12Il2CppObject
A1d:_Array_InternalArray__ICollection_CopyTo_TisUILineInfo_t3621277874_m2142954044_gshared
wvg:_TypeBuilder_SetParent_m387557893
tDj:__ZNK6il2cpp5utils13VmStringUtils21CaseSensitiveComparerclERKNSt3__212basic_stringIcNS3_11char_traitsIcEENS3_9allocatorIcEEEEPKc
nff:_CipherSuiteCollection_cultureAwareCompare_m1825407448
C9d:_DateTimeFormatInfo_GetEraName_m1437894363
e2d:_Array_InternalArray__Insert_TisLabelFixup_t4090909514_m3927736182_gshared
jvf:_X509KeyUsageExtension_Encode_m3100824560
nlb:__ZN24GenerateTypeTreeTransfer8TransferI21PlatformShaderDefinesEEvRT_PKc17TransferMetaFlags
Uzb:__ZNK15ResourceManager22GetTypeVirtualInternalEv
o0g:_DefaultComparer_GetHashCode_m1728348656_gshared
Ypd:_InputField_MouseDragOutsideRect_m3758282095
LQh:_Outline_ModifyMesh_m3796381413
Xwc:__ZN13TextRendering4Font23VirtualRedirectTransferER24GenerateTypeTreeTransfer
pwf:_Interpreter_PopulateGroup_m4098755954
edf:_PrivateKeyInfo_DecodeRSA_m919734506
efc:__ZNSt3__27__sort4IRNS_6__lessI11KeyframeTplIfES3_EEPS3_EEjT0_S7_S7_S7_T_
Ueb:__ZL16MouseMoveHandleriPK20EmscriptenMouseEventPv
bde:_GuidParser_Reset_m3389485794
dT:__ZN11AudioSource15InitializeClassEv
JTe:_Enumerator_System_Collections_IEnumerator_get_Current_m1270503615_gshared
NDg:_GUILayoutGroup_CalcHeight_m1454440153
Mni:_InternalEnumerator_1_System_Collections_IEnumerator_get_Current_m3315293493_gshared
B0h:_AnimatorControllerPlayable_ResetTriggerID_m1114520954
cZa:__ZN11HaloManager17RenderGeometryJobEP25DynamicVBOGeometryJobDataj
Aqi:_InternalEnumerator_1_System_Collections_IEnumerator_get_Current_m4023948615_gshared
tE:__ZNSt3__227__insertion_sort_incompleteIRPFbN7mecanim9animation13MuscleIndexIdES3_EPS3_EEbT0_S8_T_
h9c:_BaseInput_get_mousePresent_m3571192771
F$j:_emscripten_glBlendEquation__wrapper
toj:__ZN15dense_hashtableINSt3__24pairIK10KeyWrapperIP11Il2CppClassES4_EES5_N6il2cpp8metadata16SZArrayClassHashEN14dense_hash_mapIS5_S4_SA_NS5_14EqualsComparerINS9_19SZArrayClassCompareEEENS0_9allocatorIS7_EEE9SelectKeyESE_SG_E13set_empty_keyERKS7_
LPj:__ZNSt3__212basic_stringIcNS_11char_traitsIcEENS_9allocatorIcEEE6__initEPKcj
Rj:_emscripten_set_fullscreenchange_callback
qye:_KeyPairPersistence__IsUserProtected_m3417764903
Mvf:_CategoryUtils_CategoryFromName_m226887453
hPd:_Decimal_op_Division_m1099836590
BY:__ZN11UnityEngine15CloudWebService14DataDispatcher22ResetNetworkRetryIndexEv
Wj:_emscripten_glDrawArrays
PTa:__ZZ23InitPlayerLoopCallbacksvEN43EarlyUpdateExecuteMainThreadJobsRegistrator7ForwardEv
cY:__ZN11UnityEngine15CloudWebService19SessionEventManagerC2Ev
fje:_File_Open_m1543461971
dyf:_LogicalCallContext_GetObjectData_m104142736
bEd:_Hashtable_KeyEquals_m1433874944
dzi:_QuickSearch_GetShiftDistance_m2364008966
uKi:_TouchScreenKeyboard_get_text_m538529702
_Wc:__ZN13RuntimeStaticI14dynamic_bitsetLb0EE16StaticInitializeEPv
Pca:__ZNSt3__222__merge_move_constructIRNS_4lessIN4core12basic_stringIcNS2_20StringStorageDefaultIcEEEEEENS_11__wrap_iterIPS6_EESB_EEvT0_SC_T1_SD_PNS_15iterator_traitsISC_E10value_typeET_
lcc:__Z41Register_UnityEngine_Camera_get_eventMaskv
lT:__ZL19CleanupModule_Audiov
SUi:_GenericComparer_1_Compare_m2516380588_gshared
Yej:__ZN6il2cpp2os4File10DeleteFileERKNSt3__212basic_stringIcNS2_11char_traitsIcEENS2_9allocatorIcEEEEPi
nie:_File_Exists_m1685968367
GHb:__Z29Transfer_Blittable_ArrayFieldI14SafeBinaryReadiEvRT_R9ArrayInfoRK23StaticTransferFieldInfo
pbj:__ZN6il2cpp6icalls8mscorlib6System8MonoType8GetFieldEP20Il2CppReflectionTypeP12Il2CppStringi
A7i:__ZN15dense_hashtableINSt3__24pairIK10KeyWrapperIN6il2cpp5utils13dynamic_arrayIPK10Il2CppTypeLj4EEEEPFvvEEESA_NS3_8metadata19Il2CppSignatureHashEN14dense_hash_mapISA_SD_SG_NSA_14EqualsComparerINSF_22Il2CppSignatureCompareEEENS0_9allocatorISE_EEE9SelectKeyESK_SM_E5clearEv
J4h:_AudioClipPlayable__ctor_m1273139759_AdjustorThunk
ZXj:_emscripten_glVertexAttrib3fv__wrapper
Q8e:_Comparison_1_BeginInvoke_m1549337842_gshared
JGi:_X509Crl_VerifySignature_m25189948
AXd:_PlayableOutputHandle_IsPlayableOutputOfType_TisScriptPlayableOutput_t1666207618_m804587587_AdjustorThunk
a$b:__ZNK28MonoBehaviourPropertyBinding13GetFloatValueERKN11UnityEngine9Animation10BoundCurveE
tFf:_RuntimeFieldHandle_Equals_m1202966418_AdjustorThunk
lAb:__ZN14SafeBinaryRead21TransferSTLStyleArrayINSt3__26vectorI4PPtrI6ObjectE13stl_allocatorIS5_L18MemLabelIdentifier51ELi16EEEEEEvRT_17TransferMetaFlags
A$h:_AnimatorControllerPlayable_INTERNAL_CALL_GetFloatID_m1278007428
mHj:_GC_generic_malloc
aQg:_Rect_op_Equality_m2793663577
i$b:__ZNSt3__26vectorI16MessageForwarder13stl_allocatorIS1_L18MemLabelIdentifier6ELi8EEE6resizeEj
LVg:_Enumerator_System_Collections_IEnumerator_get_Current_m2160496972_AdjustorThunk
mMa:__Z19GetVertexFormatSize12VertexFormat
qtb:__ZN24GenerateTypeTreeTransfer8TransferINSt3__26vectorI13dynamic_arrayI8Vector2fLj4EENS1_9allocatorIS5_EEEEEEvRT_PKc17TransferMetaFlags
cSg:_Enumerator_System_Collections_IDictionaryEnumerator_get_Value_m120250090_gshared
Xca:__ZN15dense_hashtableINSt3__24pairIKN4core12basic_stringIcNS2_20StringStorageDefaultIcEEEE13dynamic_arrayI4PPtrI6SpriteELj4EEEES6_20StringHash32FunctionIS6_EN14dense_hash_mapIS6_SC_SF_NS0_8equal_toIS6_EE13stl_allocatorISD_L18MemLabelIdentifier79ELi16EEE9SelectKeyESI_SL_E9set_valueEPSD_RKSD_
Sxi:_MatchCollection_TryToGet_m2938913145
X$j:_emscripten_glIsTexture__wrapper
VOg:_Ray_ToString_m2019179238_AdjustorThunk
gRj:_llvm_bswap_i32
SXc:_KeyedHashAlgorithm_get_Key_m3672929432
ABa:__ZN9GfxDevice25ReleaseAsyncCommandHeaderEPN21GfxDeviceAsyncCommand3ArgE
R2h:_AnimatorControllerPlayable_INTERNAL_CALL_PlayInternal_m1154456170
gcf:_MD2Managed_HashCore_m248147901
TBb:__ZN13MonoBehaviour23VirtualRedirectTransferER17RemapPPtrTransfer
aMa:__ZN21UniformBufferTFMethod20IsBoneCountSupportedEi
U2h:_AnimatorControllerPlayable_Play_m3939684325_AdjustorThunk
rZh:_AnimationClipPlayable_INTERNAL_CALL_GetAnimationClipInternal_m4096750434
tbg:__Z101RuntimeInvoker_Void_t1841601450_RuntimeObject_Single_t2076509932_Int32_t2071877448_Single_t2076509932PFvvEPK10MethodInfoPvPS4_
Wke:_MemoryStream__ctor_m4073175573
Kla:__ZN6Shader27MarkShaderStateNotSupportedEPKS_
C5d:_Array_Sort_TisVector4_t2243707581_TisVector4_t2243707581_m917148421_gshared
uRf:_UInt16_System_IConvertible_ToBoolean_m887616848_AdjustorThunk
XIh:__ZL81AnimationTriggers_t3244928895_CustomAttributesCacheGenerator_m_HighlightedTriggerP21CustomAttributesCache
P9a:__ZN10GameObject21EnsureUniqueTransformEbb
CLa:__ZN25TransformFeedbackSkinning8SkinMeshERK18VertexStreamSourceP9GfxBufferP17GPUSkinPoseBufferS4_ii17ShaderChannelMaskb
Atj:__ZN15dense_hashtableINSt3__24pairIK10KeyWrapperIP14Il2CppIUnknownEjEES5_N6il2cpp5utils11PointerHashIS3_EEN14dense_hash_mapIS5_jSB_NS5_14EqualsComparerINS0_8equal_toIS4_EEEENS0_9allocatorIS7_EEE9SelectKeyESG_SI_E12resize_deltaEjj
QKf:_UnicodeEncoding_GetCharCount_m3719064538
rwd:_Boolean_CompareTo_m3691698947
p0g:_DefaultComparer_Equals_m3262686272_gshared
DMb:__Z22TransferField_NonArrayI19StreamedBinaryWriteILb0EE27Converter_SimpleNativeClassI8GUIStyleEEvRK23StaticTransferFieldInfoR31RuntimeSerializationCommandInfoRT0_
zme:_StreamReader_ReadToEnd_m3871366821
VUh:_Selectable_set_interactable_m63718297
Y6d:_GameObject_GetComponentsInParent_TisRuntimeObject_m3757051886_gshared
z1d:_Array_InternalArray__ICollection_CopyTo_TisUICharInfo_t3056636800_m2132994790_gshared
Ip:__Z17CalculateGlobalSM23TransformAccessReadOnlyRKN4math7_float4E
Ul:_emscripten_glLoadIdentity
Lbb:__ZNSt3__26vectorINS_4pairIN4core12basic_stringIcNS2_20StringStorageDefaultIcEEEEPK17MessageIdentifierEENS_9allocatorISA_EEE26__swap_out_circular_bufferERNS_14__split_bufferISA_RSC_EEPSA_
CGd:_Decimal_op_GreaterThan_m1625379433
W4a:__Z29CullShadowCastersWithoutUmbraR9IndexListRK17CullingParametersPK4AABBjj
YMi:_Vector3_get_down_m2372302126
cq:__ZN4AABB8TransferI14SafeBinaryReadEEvRT_
dvh:__ZL86Object_t1021602117_CustomAttributesCacheGenerator_Object_FindObjectsOfType_m2121813744P21CustomAttributesCache
$4f:__Z79RuntimeInvoker_RuntimeObject_SByte_t454417549_SByte_t454417549_SByte_t454417549PFvvEPK10MethodInfoPvPS4_
wLg:_PlayerConnection_ConnectedCallbackInternal_m2685675347
$de:_Int16_System_IConvertible_ToDecimal_m2010889121_AdjustorThunk
OWd:_Array_InternalArray__ICollection_Remove_TisPlayableBinding_t2498078091_m2632165671_gshared
Eqb:__ZN18StreamedBinaryReadILb0EE21TransferSTLStyleArrayI13dynamic_arrayI12LightmapDataLj4EEEEvRT_17TransferMetaFlags
igc:__Z49Register_UnityEngine_MonoBehaviour_StartCoroutinev
Rdb:__Z11MD5ToStringPh
gFe:_Enumerator_MoveNext_m2625246500_AdjustorThunk
Jec:__Z38Input_Get_Custom_PropCompositionStringv
hMf:_UTF8Encoding_GetPreamble_m4179999478
pLg:_ConnectionChangeEvent__ctor_m616483304
c4i:__ZN6il2cpp2vm5Class19GetArrayElementSizeEPK11Il2CppClass
pGc:_cf2_builder_moveTo
VUf:_ValueType_InternalEquals_m4068150072
kW:__ZN9JSONWrite8TransferIN4core12basic_stringIcNS1_20StringStorageDefaultIcEEEEEEvRT_PKc17TransferMetaFlags
wLf:_UTF7Encoding_GetByteCount_m253528135
Ncd:_PointerInputModule_CopyFromTo_m2185451090
Bje:_FileNotFoundException_GetObjectData_m3405690481
UPj:__ZNSt3__212basic_stringIcNS_11char_traitsIcEENS_9allocatorIcEEE6resizeEjc
ezb:__ZN14PlayerSettings16CheckConsistencyEv
PS:__ZN11AudioModule30GetOrCreateDSPFromCustomFilterEP17AudioCustomFilter
QVa:__ZN19AtomicPageAllocatorD2Ev
Bn:FUNCTION_TABLE_viiiiiiiiiiiiii
auj:__ZN6il2cpp6icalls8mscorlib6System13GlobalizationL20culture_lcid_locatorEPKvS5_
VXe:_Collection_1_Add_m3182287887_gshared
_bd:_PointerEventData_set_useDragThreshold_m2778439880
iob:__ZNK12CubemapArray16ExtractImageImplEP14ImageReferenceNS0_8BlitModeEbi
hgc:__Z63Register_UnityEngine_MonoBehaviour_StartCoroutine_Auto_Internalv
v8b:__ZN10systeminfo24GetSystemLanguageCultureEi
uKf:_StringBuilder_Append_m3618697540
jUh:_ScrollRect_get_normalizedPosition_m1640825682
e2c:_SecurityElement_IsValidAttributeName_m2201790420
qzb:__ZN10VRSettings8TransferI14SafeBinaryReadEEvRT_
CRf:_UInt16_System_IConvertible_ToDecimal_m984067306_AdjustorThunk
bKi:_Texture2D_INTERNAL_CALL_GetPixelBilinear_m570286059
sBc:_UNITY_FT_Outline_Get_CBox
j0d:_Array_InternalArray__ICollection_Add_TisUInt16_t986882611_m2791161149_gshared
ja:invoke_viifiiii
uSg:_Enumerator_Reset_m3115320746_gshared
V9d:_NumberFormatter_FormatDecimal_m1435371940
cte:_SimpleCollator_GetTailContraction_m1037943844
pZc:_RC2CryptoServiceProvider_CreateEncryptor_m252199767
HRi:_U3CStartU3Ec__Iterator0_MoveNext_m2339115502_gshared
rcg:__Z165RuntimeInvoker_Void_t1841601450_RuntimeObject_Int32_t2071877448_Int32_t2071877448_RuntimeObject_Int32_t2071877448_Single_t2076509932_Single_t2076509932_RuntimeObjectPFvvEPK10MethodInfoPvPS4_
rWa:__ZN22PerThreadPageAllocator14AcquireNewPageEj
lS:__ZN24AudioScriptBufferManager15DidReloadDomainEv
A5h:_AudioClipPlayable_Seek_m2908742681
U0a:__ZN6Camera13ClearNoSkyboxEb
nge:_Int64_System_IConvertible_ToInt64_m989981560_AdjustorThunk
UMe:_List_1_CheckIndex_m2576265846_gshared
qeg:__Z110RuntimeInvoker_Boolean_t3825574718_Vector2_t2243707579_Vector2_t2243707579_Single_t2076509932_SByte_t454417549PFvvEPK10MethodInfoPvPS4_
bQg:_Rect_GetHashCode_m559954498
Q3h:_Application_CallLowMemory_m626389230
R6i:__ZNK15dense_hashtableI10KeyWrapperIPK17Il2CppGenericInstES4_N6il2cpp8metadata21Il2CppGenericInstHashEN14dense_hash_setIS4_S7_NS4_14EqualsComparerINS6_24Il2CppGenericInstCompareEEENSt3__29allocatorIS4_EEE8IdentityESB_SE_E12test_deletedEj
hud:_Array_combsort_m2486643569
i9:__ZNSt3__27__sort5IR17CompareInstanceIDPP6ObjectEEjT0_S6_S6_S6_S6_T_
Kib:__ZNSt3__26vectorI17SortingLayerEntryNS_9allocatorIS1_EEE12__move_rangeEPS1_S5_S5_
E0g:_DefaultComparer_Equals_m145577182_gshared
GEa:__ZN18GfxFramebufferGLES10InvalidateEv
NBe:_SmallXmlParser_SkipWhitespaces_m2923234398
rOd:_Decimal_System_IConvertible_ToSingle_m1736019752_AdjustorThunk
GHa:__ZN4crnd11crnd_deleteINS_13prefix_coding14decoder_tablesEEEvPT_
rKi:_TouchScreenKeyboard_Open_m2760130151
a0:__ZN10MemoryPoolD2Ev
Eei:_GCHandle__ctor_m2952050298_AdjustorThunk
klc:__ZNSt3__26__treeINS_12__value_typeIN4core12basic_stringIcNS2_20StringStorageDefaultIcEEEEN5IMGUI12NamedControlEEENS_19__map_value_compareIS6_S9_NS_4lessIS6_EELb1EEENS_9allocatorIS9_EEE7destroyEPNS_11__tree_nodeIS9_PvEE
Wkf:_SslClientStream_get_SelectedClientCertificate_m1580018944
vHd:_DateTime_FromTicks_m75527956
Ywe:_KeyGeneratedEventHandler_Invoke_m4220935979
Arg:_ILGenerator__ctor_m3365621387
qMf:_CompressedStack_Capture_m179370023
VPd:_DebuggerTypeProxyAttribute__ctor_m3082078467
YWd:_Array_InternalArray__ICollection_Remove_TisVector3_t2243707580_m3881497481_gshared
DOj:___mmap
X9b:__ZN9Scripting26RaiseArgumentNullExceptionEPKc
g$:__ZL18InternalLogConsolePKcz
xNj:_lseek
CMe:_List_1_System_Collections_IList_set_Item_m2267202349_gshared
zGe:_Enumerator_System_Collections_IEnumerator_get_Current_m3866069145_AdjustorThunk
lYe:_Collection_1_ConvertItem_m2972284337_gshared
Umf:_AuthorityKeyIdentifierExtension_Decode_m1941074339
eP:__ZN11AudioSource16UpdatePauseStateEv
R8:__ZL52StaticUnregisterSceneLoadedCallback_LightmapSettingsPv
Bw:__ZN7mecanim5human25HumanPoseAddAdditiveLayerERNS0_9HumanPoseERKS1_fRKNS_6bitsetILj70EEE
jgc:__Z48Register_UnityEngine_MonoBehaviour_StopCoroutinev
Qmd:_HorizontalOrVerticalLayoutGroup_set_childForceExpandWidth_m1140293254
kLj:__ZN6il2cpp5utils25NativeDelegateMethodCache17AddNativeDelegateEPFvvEPK10MethodInfo
cof:_NameObjectCollectionBase_BaseAdd_m964300824
bVd:_Array_InternalArray__ICollection_Contains_TisKeyValuePair_2_t1174980068_m650645929_gshared
d0a:__ZN27DeviceViewProjMatricesStateD2Ev
u_c:_RNGCryptoServiceProvider_RngOpen_m2238023214
H6h:_Bounds__ctor_m1202659404_AdjustorThunk
mqg:_CustomAttributeData_GetCustomAttributes_m4124612360
xJb:__Z18Transfer_BlittableI24GenerateTypeTreeTransferLb0E8Vector3fEvRK29SerializationCommandArgumentsR31RuntimeSerializationCommandInfo
Xuj:__ZN15dense_hashtableINSt3__24pairIK10KeyWrapperINS1_IPKcS4_EEEiEES6_24NamespaceAndNamePairHashN14dense_hash_mapIS6_iS9_NS6_14EqualsComparerI26NamespaceAndNamePairEqualsEENS0_9allocatorIS8_EEE9SelectKeyESD_SF_E14squash_deletedEv
Twc:__ZNK13TextRendering4Font22GetTypeVirtualInternalEv
tpj:__ZN6il2cpp2vm6Thread16RequestInterruptEP12Il2CppThread
Lmf:_TlsStream_get_Position_m3551173234
dhi:_LeaseManager_SetPollTime_m3137304074
kDd:_Hashtable_CalcPrime_m1835281409
f:HEAPU32
qva:__ZN6prcoreL10inner_flipILj2EEEvPhS1_j
yvg:_TypeBuilder_has_ctor_method_m3449702467
Hrc:__ZN9JSONWrite8TransferIbEEvRT_PKc17TransferMetaFlags
Dtd:_Array_CreateInstance_m679102425
yfb:__ZN12TLSAllocatorI14StackAllocatorED0Ev
Hei:_GCHandle_GetTarget_m2056570211
pyb:__ZN11TimeManager16CheckConsistencyEv
yZa:__ZN21GfxDeviceAsyncCommand10ArgScratch15ThreadedCleanupEv
zAj:__ZN6il2cpp6icalls8mscorlib6System9ValueType19InternalGetHashCodeEP12Il2CppObjectPP11Il2CppArray
Ose:_MSCompatUnicodeTable_IsJapaneseSmallLetter_m2541532635
O9e:_BigInteger_GenerateRandom_m1878468830
YIb:__ZN12NativeBufferI27Converter_UnityEngineObjectE15SetupForWritingER9ArrayInfo
rld:_Graphic_UpdateGeometry_m2431537946
we:_glTexImage3D
iT:__Z20RegisterModule_Audiov
wff:_TlsCipherSuite__ctor_m2983563913
Kma:__ZNSt3__26vectorINS_4pairI11ShaderTagIDS2_EENS_9allocatorIS3_EEE6insertENS_11__wrap_iterIPKS3_EERS8_
$xj:__ZN6il2cpp2vm6Object13UnboxNullableEP12Il2CppObjectP11Il2CppClassPv
Fe:_JS_SystemInfo_GetCurrentCanvasWidth
S3e:_ReadOnlyCollection_1_System_Collections_IList_Remove_m2668898250_gshared
x9b:__ZL34GetComponentsImplementationRecurseILb1ELi0ELi1EEbR10GameObjectbRK17CompareParametersRK39GetComponentsImplementation_ReturnValue
KKg:_Mesh_SetColors_m3438776703
Hrj:__ZN6il2cpp2vm14PlatformInvoke30MarshalCSharpStringToCppStringEP12Il2CppString
Jxj:__ZN6il2cpp2vm5Field10IsInstanceEP9FieldInfo
AQf:_Type_GetTypeHandle_m2405042843
Jzb:__ZN10VRSettings8TransferI18StreamedBinaryReadILb0EEEEvRT_
Fv:__ZN22AnimationMixerPlayable12MixerProcessEP35AnimationPlayableEvaluationConstantP32AnimationPlayableEvaluationInputP33AnimationPlayableEvaluationOutputM17AnimationPlayableFvS1_S3_S5_EPFvS1_S3_S5_ESA_PFvS5_S1_S3_S5_PN7mecanim16ValueArrayWeightEfEPFvS1_S3_S5_SD_fE
mpi:_InternalEnumerator_1_System_Collections_IEnumerator_get_Current_m1322273508_AdjustorThunk
r8c:_DecoderFallbackException__ctor_m3081822699
Oge:_Int64_TryParse_m3093198325
g6f:__Z145RuntimeInvoker_Void_t1841601450_RuntimeObject_RuntimeObject_RuntimeObject_Int32_t2071877448_Int32_t2071877448_Int32_t2071877448_Int32_t2071877448PFvvEPK10MethodInfoPvPS4_
Waj:__ZN6il2cpp2vm10ThreadPool5QueueEP14Il2CppDelegatePPvS3_P12Il2CppObject
JMb:__Z19TransferField_ArrayI19StreamedBinaryWriteILb0EE27Converter_SimpleNativeClassI8GradientEEvRK23StaticTransferFieldInfoR31RuntimeSerializationCommandInfoRT0_
wje:_FileLoadException_ToString_m319701103
Nle:_NullStream_Seek_m1809916110
rtc:__Z18Transfer_BlittableI8JSONReadLb0E12PropertyNameEvRK29SerializationCommandArgumentsR31RuntimeSerializationCommandInfo
mPd:_Delegate_SetMulticastInvoke_m361277268
j9c:_BaseInput_GetMouseButtonUp_m32571233
FIf:_EncoderReplacementFallbackBuffer_get_Remaining_m2777488845
Etb:__ZN7SubMesh8TransferI18StreamedBinaryReadILb0EEEEvRT_
$Lf:_UTF8Encoding_GetCharCount_m3557355060
Soi:_InternalEnumerator_1_System_Collections_IEnumerator_get_Current_m127456009_gshared
kf:_emscripten_glIsEnabled
zOb:__ZN18StreamedBinaryReadILb1EE21TransferSTLStyleArrayI13dynamic_arrayIdLj8EEEEvRT_17TransferMetaFlags
Vdc:__Z45Register_UnityEngine_GameObject_get_transformv
x3:__Z29scripting_class_instance_size17ScriptingClassPtr
e0i:_Func_2_Invoke_m2929712329_gshared
wlf:_SslHandshakeHash_initializePad_m4132246594
Ghi:_Context_get_HasExitSinks_m1233814330
EY:__ZN11UnityEngine15CloudWebService19SessionEventManager26ProcessEventQueueJobStaticEPv
HAi:_AnchorInfo_get_IsUnknownWidth_m3747592836
Ggg:__Z99RuntimeInvoker_Void_t1841601450_Int32_t2071877448_Int32_t2071877448_Int32_t2071877448_RuntimeObjectPFvvEPK10MethodInfoPvPS4_
YY:__ZN11UnityEngine15CloudWebService19SessionEventManager37OnTimerExpiredPerformArchiveJobStaticEPv
By:__ZN23AnimationPlayableOutputC2EjP13PlayableGraph
aKi:_Texture2D_GetPixelBilinear_m3063031185
mMj:__ZN6il2cpp6icalls8mscorlib6System10Reflection4Emit11DerivedType21create_unmanaged_typeEP20Il2CppReflectionType
aF:__ZN7mecanim12statemachine13GetStateIndexEPKNS0_20StateMachineConstantEj
_Cf:_FormatterConverter_ToInt32_m1004171952
Isd:_Array_System_Collections_IList_set_Item_m4290470392
JBf:_RemotingConfiguration_RegisterActivatedServiceType_m4003543022
Yhc:__Z39Register_UnityEngine_Sprite_get_texturev
Ygi:_ConfigHandler_GetNotNull_m2454680251
D1i:__ZL10rescale128PyS_Piiiii
AJ:__ZN9AudioClip7WWWSeekEPvjS0_
EVd:_Array_InternalArray__ICollection_Contains_TisUInt32_t2149682021_m672455245_gshared
jUf:_UIntPtr_System_Runtime_Serialization_ISerializable_GetObjectData_m3481735378
f7:__ZL32StaticInitializeIUnityInterfacesPv
ZYa:__Z13CameraProjectRK8Vector3fRK10Matrix4x4fS4_RK5RectTIiERS_b
EBb:__ZN30RuntimeInitializeOnLoadManager15ClassMethodInfo8TransferI19StreamedBinaryWriteILb0EEEEvRT_
e8:__Z22CreateMutexLockedStackv
KLd:_DateTime_System_IConvertible_ToType_m3821835592
Exf:_IntervalCollection_get_Item_m1667788970
hza:__ZNSt3__27__sort5IRNS_4lessIN22BuiltinResourceManager8ResourceEEEPS3_EEjT0_S7_S7_S7_S7_T_
LJf:_Latin1Encoding_GetByteCount_m2812921286
MUa:__ZN9ShaderLab11ShaderStateD2Ev
$Nd:_Decimal_System_IConvertible_ToByte_m3432160840
EJf:_UTF7Encoding__ctor_m1941256679
bDb:__Z23TransferScriptingObjectI24GenerateTypeTreeTransferEvRT_18ScriptingObjectPtr17ScriptingClassPtrPK15MonoScriptCache
bDf:_BinaryCommon__cctor_m3619690968
qGi:_X509Chain_FindCertificateRoot_m589250107
pMb:__ZL17Transfer_GUIStyleI19StreamedBinaryWriteILb0EELb0EEvRK29SerializationCommandArgumentsR31RuntimeSerializationCommandInfo
NLi:_UnityString_Format_m2949645127
SCd:_Comparer_GetObjectData_m3370677985
jRi:_UnityEvent_4_GetDelegate_m2704961864_gshared
WRa:__ZNK12HandlerChain6TargetERK13FileEntryDataR15FileSystemEntry
LIf:_Encoding__ctor_m3985582722
XDf:_ObjectManager_RaiseOnDeserializingEvent_m1841526046
k7c:_String_CreateString_m560359261
eCc:_UNITY_FT_Init_Class_tt_service_get_cmap_info
UHf:_DSA_ToXmlString_m1014346120
JMj:___shlim
H$c:_SHA256Managed__ctor_m1410575277
PTd:_CompareInfo_internal_index_managed_m859405335
Nvd:_Boolean_System_IConvertible_ToDateTime_m2613818037_AdjustorThunk
Z9i:__ZNSt3__211__tree_nextIPNS_16__tree_node_baseIPvEEEET_S5_
w5e:_ReadOnlyCollection_1_System_Collections_IList_Clear_m2240307498_gshared
Cvj:__ZN15dense_hashtableI10KeyWrapperIP18Il2CppGenericClassES3_N6il2cpp8metadata22Il2CppGenericClassHashEN14dense_hash_setIS3_S6_NS3_14EqualsComparerINS5_25Il2CppGenericClassCompareEEENSt3__29allocatorIS3_EEE8IdentityESA_SD_E14squash_deletedEv
lyj:__ZN6il2cpp2vm11MethodStack17GetStackFramesRawEv
bra:__ZN6prcoreL17RemapGenericFloatI17TexFormatRGBAHalf17TexFormatRGBFloatEEvPKNS_9InnerInfoE
nDf:_BinaryFormatter_NoCheckDeserialize_m1968202401
Jld:_Graphic_CrossFadeAlpha_m4067047552
Oeg:__Z92RuntimeInvoker_Void_t1841601450_RuntimeObject_RuntimeObject_Color32_t874517518_RuntimeObjectPFvvEPK10MethodInfoPvPS4_
Mhc:__Z35Sprite_Get_Custom_PropPixelsPerUnitP12Il2CppObject
Fvc:__ZN9rapidjson12PrettyWriterI16TempBufferWriterNS_4UTF8IcEES3_13JSONAllocatorE10StartArrayEv
T6i:__ZNSt3__26__sortIRN6il2cpp5utils11collections13ArrayValueMapIPK10Il2CppType17Il2CppInteropData26InteropDataToTypeConverterNS1_8metadata14Il2CppTypeLessENSA_26Il2CppTypeEqualityComparerEE12SortComparerEPS8_EEvT0_SH_T_
MDb:__ZN11PreloadDataD2Ev
pWc:__ZN15DownloadHandler14ProcessHeadersERK9HeaderMap
ec:invoke_iifi
Faa:__ZZN15DirectorManager15InitializeClassEvEN44PostLateUpdateDirectorRenderImageRegistrator7ForwardEv
m9g:__ZL79Hashtable_t909839986_CustomAttributesCacheGenerator_Hashtable__ctor_m3742489710P21CustomAttributesCache
bKg:_Mesh__ctor_m2975981674
pYh:_VertexHelper_AddUIVertexStream_m3599763288
AJg:_Mathf_Abs_m1942863256
c2g:_EqualityComparer_1_System_Collections_IEqualityComparer_Equals_m1565968086_gshared
W2d:_Array_InternalArray__set_Item_TisSlot_t2022531261_m3811041838_gshared
Ewa:__ZN15SharedLightData15UpdateTransformERK9Transform
LZc:_RijndaelTransform__cctor_m1393306207
eld:_Graphic_get_defaultMaterial_m1022773737
JFc:_UNITY_FT_Init_Class_pscmaps_interface
cWh:_Slider_OnDidApplyAnimationProperties_m3202463395
B8c:_EncoderExceptionFallback__ctor_m3203614411
Cmd:_GridLayoutGroup_SetLayoutVertical_m3233681648
zdc:__Z44Register_UnityEngine_RectOffset_get_verticalv
bRf:_Type_MakeGenericType_m973683242
PKj:__ZN6il2cpp2vm9LastError31InitializeLastErrorThreadStaticEv
z0b:__ZN13ProduceHelperI13RenderTextureLb0EE7ProduceE18MemLabelIdentifier18ObjectCreationMode
Xge:_Int64_ToString_m2785525583
QM:__ZN4FMOD6System17setSoftwareFormatEi17FMOD_SOUND_FORMATii18FMOD_DSP_RESAMPLER
Dtg:_FieldBuilder_GetCustomAttributes_m291168515
Z5h:_AudioPlayableOutput_INTERNAL_CALL_InternalSetTarget_m3274611424
Pyg:_MonoGenericCMethod__ctor_m2520666358
kh:_JS_SystemInfo_GetCurrentCanvasHeight
vMg:_AudioPlayableGraphExtensions_InternalCreateAudioOutput_m433444197
wmi:_InternalEnumerator_1_System_Collections_IEnumerator_get_Current_m1313308902_gshared
_zf:_ReturnMessage_get_OutArgs_m299904174
zma:__ZNK8Material22GetTypeVirtualInternalEv
bnc:__Z34GUIStyle_Get_Custom_PropFixedWidthP12Il2CppObject
dze:_RSAManaged_get_PublicOnly_m2603845138
pOd:_Decimal_System_IConvertible_ToSByte_m3745141000_AdjustorThunk
PAj:__ZN6il2cpp2gc16GarbageCollector11GetWeakLinkEPPv
kqe:_MonoType_GetMethods_m353342170
bWf:__Z108RuntimeInvoker_Boolean_t3825574718_SByte_t454417549_RuntimeObject_Int32_t2071877448_ExceptionU26_t1467204777PFvvEPK10MethodInfoPvPS4_
Yyj:__GLOBAL__sub_I_Console_cpp
Tqa:__ZN6prcoreL17RemapGenericFloatI14TexFormatRHalf17TexFormatRGBAHalfEEvPKNS_9InnerInfoE
Tcj:__ZN6il2cpp2vm7Runtime11InvokeArrayEPK10MethodInfoPvP11Il2CppArrayPP15Il2CppException
PG:__Z71AnimatorControllerPlayable_CUSTOM_INTERNAL_CALL_PlayInFixedTimeInternalR9HPlayableiif
ube:_GregorianCalendar_get_Eras_m4010603022
NRd:_Enum_System_IConvertible_ToUInt16_m1001858842
UZg:_Dictionary_2_make_pair_m394533803_gshared
PJc:_Dual_Project
AI:__ZN9AudioClip23VirtualRedirectTransferER14SafeBinaryRead
uff:_CipherSuiteCollection_Clear_m533808424
CKa:__ZN4gles20EnsureTextureCreatedEP7ApiGLESP17RenderSurfaceGLES
vsd:_LayoutRebuilder_U3CRebuildU3Em__2_m3239837417
PZa:__ZN15ReplacementPass13PrepareSubsetEjRK10RenderNodeifRK17ShaderReplaceData
qOd:_Decimal_System_IConvertible_ToSingle_m1736019752
vN:__Z32AudioMeasurement_GetTimeConstantff
lzj:__ZN6il2cpp2os6Thread10RunWrapperEPv
rBj:__ZN6il2cpp8metadata11FieldLayout12LayoutFieldsEjjjRKNSt3__26vectorIPK10Il2CppTypeNS2_9allocatorIS6_EEEERNS1_15FieldLayoutDataE
_Dh:__ZL54ContextMenu_t2283362202_CustomAttributesCacheGeneratorP21CustomAttributesCache
x5a:__ZL27PrepareSceneNodesJobCombineP25ScheduleSceneNodesJobData
vke:_Stream_EndWrite_m263497992
Wyd:_Char_Parse_m2121403806
Tgf:_ClientSessionCache_SetContextInCache_m907788136
G9:__ZN18AsyncUploadManager13StaticDestroyEPv
Osg:_EnumBuilder_GetConstructorImpl_m331611313
$Rb:__ZN6Shader7SetNameEPKc
uca:__ZN14dense_hash_mapIN4core12basic_stringIcNS0_20StringStorageDefaultIcEEEE13dynamic_arrayI4PPtrI6SpriteELj4EE20StringHash32FunctionIS4_ENSt3__28equal_toIS4_EE13stl_allocatorINSC_4pairIKS4_S9_EEL18MemLabelIdentifier79ELi16EEE13set_empty_keyERSH_
iid:_DefaultControls_SetParentAndAlign_m3048898502
Sab:__ZN19CustomRenderTexture22HandleBoundaryWrappingERKNS_14UpdateZoneInfoEj
V9i:__ZN6il2cpp2vm13MetadataCache32GenerateCustomAttributeTypeCacheEi
xuf:_X509Chain__cctor_m826131835
uz:__ZNK11UnityEngine9Animation30GenericBindingValueArrayUniqueclERKNS0_14GenericBindingES4_
Gud:_ArrayTypeMismatchException__ctor_m1923871345
pHf:_CspParameters__ctor_m3051314030
A0h:_AnimatorControllerPlayable_ResetTrigger_m758725835
UJc:_Direct_Move_Y
SJc:_Direct_Move_X
Gtf:_X509ChainElement_Set_m2634474339
Bbi:_Event_get_isKey_m1145918225
Jvd:_Boolean_System_IConvertible_ToByte_m1443044213_AdjustorThunk
Fi:_glClearDepthf
o0b:__ZN19SkinnedMeshRenderer7GetMeshEv
qYb:__ZN19RuntimeSceneManager14GetActiveSceneEv
qcj:__ZN6il2cpp6icalls8mscorlib6SystemL8IsStaticEPK9EventInfo
idc:__Z29RectOffset_Set_Custom_PropTopP12Il2CppObjecti
Zqf:_WebRequest__ctor_m1537196628
U3a:__ZNSt3__27__sort4IR15ReflProbeSorterPP15ReflectionProbeEEjT0_S6_S6_S6_T_
Oue:_BigInteger_op_Equality_m366854173
xkb:__ZN16GraphicsSettings10SmartResetEv
P5b:__ZN19StreamedBinaryWriteILb0EE4InitE24TransferInstructionFlags20BuildTargetSelection
SPh:_MaskableGraphic_Cull_m3130802047
F8h:_CanvasRenderer_Clear_m2419751129
fkf:_RecordProtocol_MapV2CipherCode_m4064211604
J7c:_ASCIIEncoding_GetByteCount_m2696039881
Ujf:_ReceiveRecordAsyncResult_SetComplete_m2441107665
L8h:_CanvasRenderer_AddUIVertexStream_m1988414477
gmb:__ZN20SphericalHarmonicsL28TransferI19StreamedBinaryWriteILb0EEEEvRT_
ugd:_CanvasUpdateRegistry_InternalUnRegisterCanvasElementForLayoutRebuild_m3740187734
x$b:__ZNK28RectTransformPropertyBinding9BindValueER6ObjectRKN11UnityEngine9Animation14GenericBindingERNS3_10BoundCurveE
isg:_DerivedType_get_AssemblyQualifiedName_m2010127631
twb:__ZN4Mesh14UploadMeshDataEb
Cqi:_InternalEnumerator_1_System_Collections_IEnumerator_get_Current_m4023948615_AdjustorThunk
m4a:__ZN14qsort_internal5QSortIP16RenderObjectDatai25RenderPrePassObjectSorterEEvT_S4_T0_T1_
HCe:_ArgIterator_Equals_m2415994310
a7f:__Z85RuntimeInvoker_Char_t3454481338_RuntimeObject_Int32U26_t455636984_CharU26_t1894467670PFvvEPK10MethodInfoPvPS4_
D0b:__ZN14RenderSettings12CleanupClassEv
Uhc:__Z43DataUtility_CUSTOM_INTERNAL_CALL_GetPaddingP12Il2CppObjectR8Vector4f
cIa:__ZN18AsyncUploadManager15DoDeCruncherJobEP26FileAssetUploadInstruction
SCa:__ZN9GfxDevice15ImmediateNormalEfff
JIf:_EncoderReplacementFallbackBuffer_GetNextChar_m1811006007
XLi:_Vector2__ctor_m3067419446
C9a:__ZN15SerializeTraitsI13dynamic_arrayIN10GameObject13ComponentPairELj4EEE19ResizeSTLStyleArrayERS3_i18MemLabelIdentifier
GKb:__ZN13GUIStyleState8TransferI24GenerateTypeTreeTransferEEvRT_
q5:__ZN20dynamic_block_vectorI14FileIdentifierE22push_back_no_constructEv
Zua:__ZN9Texture3D23VirtualRedirectTransferER14SafeBinaryRead
wKf:_StringBuilder_Append_m1462406979
ITb:__ZNSt3__26vectorIN9ShaderLab20SerializedSubProgram16TextureParameterENS_9allocatorIS3_EEE8__appendEj
Hpb:__ZN9Texture2D13UploadTextureEi
oJf:_Type_GetType_m773255995
yIc:_cff_get_cid_from_glyph_index
XQh:_RawImage__ctor_m527845386
RM:__ZN4FMOD6System19setSoftwareChannelsEi
k3d:_Array_InternalArray__set_Item_TisResourceCacheItem_t333236149_m2074358118_gshared
ATg:_Enumerator_MoveNext_m3349738440_gshared
isf:_X500DistinguishedName_DecodeRawData_m3640767187
jVd:_Array_InternalArray__ICollection_Contains_TisDouble_t4078015681_m2262383923_gshared
owd:_Boolean_System_IConvertible_ToUInt64_m3594533761
shg:__Z85RuntimeInvoker_Boolean_t3825574718_SpriteStateU26_t1330646292_SpriteState_t1353336012PFvvEPK10MethodInfoPvPS4_
afc:__Z60Register_UnityEngine_Input_INTERNAL_set_compositionCursorPosv
Fwh:__ZL51Collider_t3497673348_CustomAttributesCacheGeneratorP21CustomAttributesCache
dEg:_GUISettings_Internal_GetCursorFlashSpeed_m3799968572
sue:_BigInteger_get_Rng_m1268152318
LSj:dynCall_viiiii
QSj:dynCall_viiiif
nyg:_MonoEvent_IsDefined_m3151861274
QEc:_Cubic_To
TH:__Z85Register_UnityEngine_Animations_AnimatorControllerPlayable_INTERNAL_CALL_SetTriggerIDv
$ff:_TlsStream_WriteInt24_m1660453494
icc:__Z44Register_UnityEngine_Camera_get_farClipPlanev
oS:__ZNK12AudioManager15GetDSPBlockSizeEv
LAb:__ZNK17IAnimationBinding30CurveAttributeToSerializedPathERKN11UnityEngine9Animation10BoundCurveE
ndg:__Z87RuntimeInvoker_Color_t2020392075_Color_t2020392075_Color_t2020392075_Single_t2076509932PFvvEPK10MethodInfoPvPS4_
bxj:__ZN6il2cpp2gc16GarbageCollector14GetOrCreateCCWEP12Il2CppObjectRK10Il2CppGuid
dvj:__ZN6il2cpp2vm5Image21FromTypeNameParseInfoEPK11Il2CppImageRKNS0_17TypeNameParseInfoEb
XFa:__ZN17BufferManagerGLES13AcquireBufferEjN14DataBufferGLES11BufferUsageEb
_Fd:_Console_OpenStandardError_m3676373108
ooe:_UnmanagedMemoryStream_SetLength_m1805321486
dhf:_Context_get_ProtocolNegotiated_m624488778
zKe:_List_1_System_Collections_IList_IndexOf_m1671340024_gshared
Aud:_SimpleEnumerator_MoveNext_m1696906961
DUc:__ZN16UnityAdsSettingsD0Ev
Shf:_Context_StartSwitchingSecurityParameters_m373522596
Zzg:_MonoProperty_GetRequiredCustomModifiers_m576853384
RGa:__ZNK7ApiGLES10DebugLabelEN2gl10ObjectTypeEjPKc
D_d:_Array_InternalArray__IndexOf_TisInt16_t4041245914_m1619355230_gshared
YFj:_GC_push_marked
RQj:__ZNK10__cxxabiv121__vmi_class_type_info16search_below_dstEPNS_19__dynamic_cast_infoEPKvib
cge:_Int64_System_IConvertible_ToDateTime_m1002280174
UGd:_Convert_ToByte_m9159597
kGi:_X509Store_BuildCertificatesCollection_m4224672591
Vhc:__Z38DataUtility_CUSTOM_Internal_GetMinSizeP12Il2CppObjectP13Vector2fIcall
y4b:__ZN8PlayableC2E17ScriptingClassPtr18DirectorPlayerType
ydi:_ResourceEnumerator_get_Key_m1012797265
_9d:_NumberFormatter_FormatPercent_m776769918
Ldj:_il2cpp_class_has_attribute
aEg:_GUISettings__ctor_m2453724887
jOf:_Scheduler_ShrinkIfNeeded_m2186823111
Udf:_Alert_get_IsCloseNotify_m577852330
T3:__Z27FindOrCreateMonoScriptCache17ScriptingClassPtr22InitScriptingCacheTypeP6Objecti
KPb:__Z18Transfer_BlittableI18StreamedBinaryReadILb0EELb1E8Vector3fEvRK29SerializationCommandArgumentsR31RuntimeSerializationCommandInfo
_Hg:_GUIUtility__cctor_m46116445
aOc:__ZN2UI14CanvasRenderer13SyncVertexPtrER8JobFenceNS0_8SyncFlagE
i4:__Z35scripting_method_get_argument_count18ScriptingMethodPtr
Wxa:__ZN18AssetBundleManager18SortPreloadObjectsER13dynamic_arrayIiLj4EEb
yRf:_UInt16_System_IConvertible_ToChar_m4055364664_AdjustorThunk
fec:__Z20Gradient_CUSTOM_InitP12Il2CppObject
$oc:__Z48Register_UnityEngine_GUIUtility_Internal_ExitGUIv
cnj:__ZN14dense_hash_mapI10KeyWrapperINSt3__24pairIPK9FieldInfoP11Il2CppClassEEEj17ReflectionMapHashIS8_ENS9_14EqualsComparerINS1_8equal_toIS8_EEEENS1_9allocatorINS2_IKS9_jEEEEE15set_deleted_keyERSH_
GMg:_Playable_GetPlayableType_m2389123558
zFi:_X509Certificate_get_RawData_m1262574599
Zwd:_Byte_System_IConvertible_ToDouble_m4224320007
B5a:__ZL21CullDynamicObjectsJobP14CullingJobDataj
uMc:__ZN2UI15ClearCanvasDataER8JobFenceRNS_10CanvasDataE
Spf:_IPAddress_ToString_m1462985652
L3e:_ReadOnlyCollection_1_System_Collections_ICollection_CopyTo_m318855319_gshared
OWg:_ValueCollection_System_Collections_Generic_ICollectionU3CTValueU3E_Clear_m3471385195_gshared
eTg:_Enumerator_get_CurrentKey_m1408186928_AdjustorThunk
Cbb:__ZN14ManagerContext17InitializeClassesEv
mQh:_MaskUtilities_GetRectMasksForClip_m1540508301
Lhb:__ZN19StreamedBinaryWriteILb0EE21TransferSTLStyleArrayINSt3__26vectorI14ConstantStringNS2_9allocatorIS4_EEEEEEvRT_17TransferMetaFlags
$t:__ZN7mecanim5human20MaskHasRightFootGoalERKNS_6bitsetILj70EEE
nOb:__ZN18StreamedBinaryReadILb1EE21TransferSTLStyleArrayI31ArrayOfManagedObjectsTransfererEEvRT_17TransferMetaFlags
JHe:_List_1_System_Collections_IList_IndexOf_m406088260_gshared
zVf:_WeakReference_get_Target_m1672141897
Zue:_Kernel_DwordDivMod_m4066997639
vFc:_t1_hints_open
G5f:__Z68RuntimeInvoker_Boolean_t3825574718_DateTime_t693205669_RuntimeObjectPFvvEPK10MethodInfoPvPS4_
r1c:_X509Certificate_GetCertHash_m2299453268
PYc:_MD5CryptoServiceProvider__ctor_m457716966
aVd:_Array_InternalArray__ICollection_Contains_TisKeyValuePair_2_t888819835_m3819112676_gshared
RKi:_Transform_get_rotation_m1033555130
ZId:_Decimal_s64_m2965457432
Q6b:__Z18TransformPoints3x4RK10Matrix4x4fPK8Vector3fjPS2_ji
PWc:__ZN22UnityWebRequestManager21CreateUnityWebRequestEv
Onc:__Z38Register_UnityEngine_GUIStyle_InitCopyv
LL:__ZN4FMOD7Channel11getUserDataEPPv
vCc:_UNITY_tt_face_load_gasp
Ifg:__Z150RuntimeInvoker_RuntimeObject_RuntimeObject_Int32_t2071877448_Int32_t2071877448_Int32_t2071877448_Int32_t2071877448_Int32_t2071877448_Int32_t2071877448PFvvEPK10MethodInfoPvPS4_
X4e:_ReadOnlyCollection_1_System_Collections_IList_Insert_m3650067527_gshared
suf:_X509Chain__ctor_m2243818698
Mzc:_ft_ansi_stream_close
gm:_JS_Sound_SetPitch
AKh:__ZL69InputField_t1631627530_CustomAttributesCacheGenerator_m_TextComponentP21CustomAttributesCache
zej:_il2cpp_runtime_invoke_convert_args
tuc:__Z19TransferField_ArrayI8JSONRead27Converter_SimpleNativeClassI10RectOffsetEEvRK23StaticTransferFieldInfoR31RuntimeSerializationCommandInfoRT0_
KRg:_Enumerator_get_CurrentKey_m447338908_AdjustorThunk
agf:_Context_get_SecurityProtocol_m1600902905
Dsj:__ZN6il2cpp6icalls8mscorlib6System2IO6MonoIO11GetFileStatEP12Il2CppStringPNS3_8FileStatEPi
BDa:__ZN9GfxDevice33InsertCustomMarkerCallbackAndDataEPFviPvEiS0_j
RZa:__ZNK9ShaderLab9IntShader6GetTagE11ShaderTagIDb
Z2a:__Z25CalculateShadowCasterCullbPK5PlaneRK10Matrix4x4fRK8Vector3fff9LightTypeS7_R16ShadowCasterCullPKb
fdj:_il2cpp_get_corlib
$Xc:_HMAC_HashCore_m1869699062
Rog:_Assembly_GetTypes_m1317253146
nee:_Int16_System_IConvertible_ToType_m2901377575_AdjustorThunk
pge:_Int64_System_IConvertible_ToSByte_m253213816_AdjustorThunk
WOc:__ZN2UI14CanvasRenderer11SetMaterialEP8Materiali
Scd:_MouseState_SetButtonState_m2329922363
hje:_FileStream__ctor_m3815606687
nFj:_GC_freehblk
E9d:_NumberFormatter_NumberToString_m668979517
o8e:_ReadOnlyCollection_1_System_Collections_IList_Remove_m2507730234_gshared
rWg:_Enumerator_System_Collections_IEnumerator_Reset_m2482663638_gshared
J9b:__ZN9Scripting35DestroyObjectFromScriptingImmediateEP6Objectb
w6a:__ZNK6Camera48AreVRStereoViewMatricesWithinSingleCullToleranceEv
Iwh:__ZL53Rigidbody2D_t502193897_CustomAttributesCacheGeneratorP21CustomAttributesCache
cBf:_RemotingServices_GetRemoteObject_m3663391550
$T:__Z64AudioMixerPlayable_CUSTOM_INTERNAL_CALL_SetAutoNormalizeInternalR9HPlayableh
DTe:_Queue_1_Peek_m1224538505_gshared
K0f:__Z105RuntimeInvoker_RuntimeObject_Int32_t2071877448_RuntimeObject_RuntimeObject_RuntimeObject_SByte_t454417549PFvvEPK10MethodInfoPvPS4_
VKc:__ZN20TextRenderingPrivate22ScriptingTextGenerator9InitVertsEi
H_d:_Array_InternalArray__IndexOf_TisRuntimeObject_m2440219229_gshared
yc:invoke_iiiiiiiiiiiiiii
ibf:_ASN1_Add_m1528660622
Z$j:_emscripten_glIsRenderbuffer__wrapper
_8d:_GameObject_GetComponentsInParent_TisRuntimeObject_m3479568873_gshared
KMc:__ZN2UI11CanvasGroup8TransferI19StreamedBinaryWriteILb0EEEEvRT_
Flb:__ZNK20IntermediateRenderer8GetLayerEv
Kcj:__ZN6il2cpp5utils9PathUtils7CombineIcEENSt3__212basic_stringIT_NS3_11char_traitsIS5_EENS3_9allocatorIS5_EEEERKSA_RKNS0_10StringViewIS5_EE
ksb:__ZN15QualitySettings8TransferI14SafeBinaryReadEEvRT_
D4i:__ZN14dense_hash_mapI10KeyWrapperIPK11Il2CppClassEPKcN6il2cpp5utils11PointerHashIS1_EENS4_14EqualsComparerINSt3__28equal_toIS3_EEEENSC_9allocatorINSC_4pairIKS4_S6_EEEEE13set_empty_keyERSI_
jHb:__ZN14SafeBinaryRead21TransferSTLStyleArrayI13dynamic_arrayIxLj8EEEEvRT_17TransferMetaFlags
$me:_StringReader_CheckObjectDisposedException_m3099453260
unf:_ListDictionary_System_Collections_IEnumerable_GetEnumerator_m2244736244
ovj:__ZNSt3__26vectorIN6il2cpp2vm5Image20EmbeddedResourceDataENS_9allocatorIS4_EEE21__push_back_slow_pathIS4_EEvOT_
uKj:__ZN6il2cpp2os9FastMutexD2Ev
qfg:__Z97RuntimeInvoker_Void_t1841601450_SByte_t454417549_SByte_t454417549_Int32_t2071877448_RuntimeObjectPFvvEPK10MethodInfoPvPS4_
a_d:_Array_IndexOf_TisCustomAttributeTypedArgument_t1498197914_m3666284377_gshared
zve:_Kernel_AddSameSign_m2332657679
e3:__ZN14SerializedFile10ReadObjectEx18ObjectCreationModebPPK8TypeTreePbR6Object
RUe:_Collection_1_System_Collections_IList_IndexOf_m3460849589_gshared
O6b:__ZN4Mesh12SetIndexDataEiiPKv16GfxPrimitiveTypei
lza:__ZN14dynamic_bitset6resizeEjb
D9c:_BaseInputModule_FindCommonRoot_m2696088443
IW:__ZN11UnityEngine15CloudWebService10RestClientINS0_23WebRequestRestHeaderMapEE7SetDataEPKhj
VA:__ZN7mecanim8skeleton16SkeletonPoseCopyIN4math4trsXES3_EEvPKNS0_13SkeletonPoseTIT_EEPNS4_IT0_EE
E4i:__ZN14dense_hash_mapI10KeyWrapperIPK11Il2CppClassEPKcN6il2cpp5utils11PointerHashIS1_EENS4_14EqualsComparerINSt3__28equal_toIS3_EEEENSC_9allocatorINSC_4pairIKS4_S6_EEEEE15set_deleted_keyERSI_
zAa:__ZN9GfxDevice34SetStencilRefWhenStencilWasSkippedEi
QSc:__ZN11UnityEngine7Connect13ConnectConfig20RestoreTimeoutConfigERK13dynamic_arrayIiLj4EEjRS3_
xc:invoke_fi
kJj:__ZN6il2cpp6icalls8mscorlib6System10Reflection4Emit11TypeBuilder20create_runtime_classEP27Il2CppReflectionTypeBuilderS7_
f$:__ZL21InternalAssertConsolePKcz
vc:invoke_ff
Gd:_emscripten_glVertexAttrib3f
xjj:__ZN30dense_hashtable_const_iteratorINSt3__24pairIK10KeyWrapperINS1_IPK11Il2CppImageP11Il2CppClassEEEjEES9_17ReflectionMapHashIS8_EN14dense_hash_mapIS9_jSD_NS9_14EqualsComparerINS0_8equal_toIS8_EEEENS0_9allocatorISB_EEE9SelectKeyESI_SK_EppEv
Dyd:_Char_CompareTo_m3044885427
qNe:_List_1_System_Collections_IList_IndexOf_m2887559165_gshared
_Wg:_ValueCollection__ctor_m1825701219_gshared
Vxc:__ZN20TextRenderingPrivate8TextMesh11ApplyToMeshEv
lVj:_emscripten_glDrawRangeElements__wrapper
Gnc:__Z35GUIStyle_CUSTOM_Internal_CalcHeight13Il2Cpp_IntPtrP12Il2CppObjectf
DYa:__Z28scripting_class_is_valuetype17ScriptingClassPtr
Qeb:__ZNSt3__26__treeINS_12__value_typeIN4core12basic_stringIcNS2_20StringStorageDefaultIcEEEEPN16MemoryFileSystem4NodeEEENS_19__map_value_compareIS6_SA_NS_4lessIS6_EELb1EEE13stl_allocatorISA_L18MemLabelIdentifier54ELi16EEE7destroyEPNS_11__tree_nodeISA_PvEE
afb:__ZNSt3__25dequeI10InputEventNS_9allocatorIS1_EEE19__add_back_capacityEv
lFe:_Enumerator_System_Collections_IEnumerator_Reset_m336811426_AdjustorThunk
AWa:__ZN13ComputeShader13SetValueParamERKN9ShaderLab16FastPropertyNameEiPKv
Awb:__ZN14BlendShapeDataD2Ev
Q9i:__ZN6il2cpp2vm13MetadataCache25GetIndexForTypeDefinitionEPK11Il2CppClass
RIa:__ZL18ProgramUniform3uivPK7ApiGLESjiihPKv
Yud:_Attribute_IsDefined_m1350918959
FPc:__Z47CanvasRenderer_Set_Custom_PropHasPopInstructionP12Il2CppObjecth
Izg:_MonoProperty_get_DeclaringType_m4236036432
yIa:__ZN5Image8SetImageEii13TextureFormatb
A4:__ZN17MessageIdentifier21GetRegisteredMessagesEv
Rji:_U3CGetEnumeratorU3Ec__Iterator0_System_Collections_IEnumerator_get_Current_m480171694_gshared
PVd:_Array_InternalArray__ICollection_Contains_TisContentType_t1028629049_m2321684690_gshared
gZ:__Z13RegisterClassI23CloudWebServicesManagerEvv
sAj:__ZN6il2cpp2vm5Array3NewEP11Il2CppClassi
fuj:__GLOBAL__sub_I_Image_cpp
Hoe:_Math_Sin_m2320256962
z7e:_ReadOnlyCollection_1_System_Collections_Generic_IListU3CTU3E_Insert_m2409570138_gshared
DMe:_List_1_Add_m2123823603_gshared
joa:__ZNSt3__27__sort5IRPFbRKNS_4pairIN9ShaderLab16FastPropertyNameEfEES6_EPS4_EEjT0_SB_SB_SB_SB_T_
M0h:_AnimatorControllerPlayable_GetLayerCount_m1917775927
bfd:_CanvasUpdateRegistry__ctor_m4037208045
tac:__ZN8Material25DidModifyShaderKeywordSetEv
BBj:__ZN14dense_hash_mapI10KeyWrapperIPK19Il2CppGenericMethodEP10MethodInfoN6il2cpp8metadata23Il2CppGenericMethodHashENS4_14EqualsComparerINS8_26Il2CppGenericMethodCompareEEENSt3__29allocatorINSD_4pairIKS4_S6_EEEEE15set_deleted_keyERSG_
pHb:__Z29Transfer_Blittable_ArrayFieldI14SafeBinaryRead4AABBEvRT_R9ArrayInfoRK23StaticTransferFieldInfo
Z4e:_ReadOnlyCollection_1_System_Collections_IList_RemoveAt_m2396335261_gshared
DUg:_Transform_1_Invoke_m2675095773_gshared
_Gg:_GUIStyle_CalcHeight_m1685124037
Xid:_Dropdown_set_captionImage_m1952025570
EGh:__ZL56g_UnityEngine_UI_Assembly_CustomAttributesCacheGeneratorP21CustomAttributesCache
_ye:_RSAManaged_remove_KeyGenerated_m452989252
ydc:__Z46Register_UnityEngine_RectOffset_get_horizontalv
Mnb:__ZN18DelayedCallManager8ClearAllEv
Ybb:__ZN17PersistentManagerC2E18MemLabelIdentifierii
tfc:__Z22Mesh_CUSTOM_HasChannelP12Il2CppObject30InternalScriptingShaderChannel
u4a:__ZNK25RenderPrePassObjectSorterclERK16RenderObjectDataS2_
yOb:__Z22TransferField_NonArrayI18StreamedBinaryReadILb1EE27Converter_SimpleNativeClassI8GUIStyleEEvRK23StaticTransferFieldInfoR31RuntimeSerializationCommandInfoRT0_
te:_Mix_LoadWAV_RW
Wa:invoke_viififiii
LKa:__Z13IsFloatFormat14GraphicsFormat
qLi:_Enumerator__ctor_m147705785
qr:__ZNSt3__27__sort4IRNS_6__lessIN11UnityEngine9Animation13CachedBindingES4_EEPS4_EEjT0_S8_S8_S8_T_
lwj:__ZN6il2cpp2gcL12alloc_handleEPNS0_10HandleDataEP12Il2CppObjectb
jZj:_emscripten_glGetAttribLocation__wrapper
egd:_CanvasScaler_HandleConstantPhysicalSize_m687057631
A_j:b98
UAe:_PKCS12_Encrypt_m1401341763
t5:__ZL16ReadTypeTreeImplILb1EEbR8TypeTreeRK16TypeTreeIteratorRPKhS6_i
Le:_glBlendEquationSeparate
P$c:_SHA384_Create_m1970724783
qm:_emscripten_glDeleteVertexArrays
UDa:__ZN13GfxDeviceGLES17SetComputeUniformE12ObjectHandleI18ComputeProgram_TagPvER18ComputeShaderParamjPKv
usj:__ZN6il2cpp6icalls8mscorlib6System2IO6MonoIO5CloseE12Il2CppIntPtrPi
l$j:_emscripten_glValidateProgram__wrapper
Yxe:_SmallXmlParser_ReadComment_m1117342068
Se:_emscripten_glUniform3fv
Vfc:__Z35MonoBehaviour_CUSTOM_StartCoroutineP12Il2CppObjectP12Il2CppStringS0_
Yla:__ZN9ShaderLab7Program14RemoveVariantsERK13dynamic_arrayI16ShaderKeywordSetLj4EE
nrj:__ZN6il2cpp2vm9Exception20GetArgumentExceptionEPKcS3_
uvc:__Z29Transfer_Blittable_ArrayFieldI8JSONReadiEvRT_R9ArrayInfoRK23StaticTransferFieldInfo
cDi:_Uri_System_Runtime_Serialization_ISerializable_GetObjectData_m214698768
vZj:_glDrawArrays__wrapper
TR:__ZN9AudioClip27IsFormatSupportedByPlatformERKN4core12basic_stringIcNS0_20StringStorageDefaultIcEEEE
NUb:__ZN9ShaderLab26SerializedShaderDependency8TransferI24GenerateTypeTreeTransferEEvRT_
X8:__ZN16LightmapSettings7RebuildEv
PXf:__Z92RuntimeInvoker_RuntimeObject_RuntimeObject_Int32_t2071877448_Int32_t2071877448_RuntimeObjectPFvvEPK10MethodInfoPvPS4_
PCc:_UNITY_FT_Match_Size
Vgd:_ColorBlock_Equals_m738243050
jv:__ZN7mecanim20CreateValueArrayMaskEPKNS_18ValueArrayConstantERNS_6memory9AllocatorE
qPj:_free
Znf:_NameObjectCollectionBase_GetEnumerator_m646294968
LRc:__ZN11UnityEngine7Connect14AppUpdateEventC2Ev
bkb:__ZN12ImageFilters17RemoveImageFilterERK11ImageFilter
CDa:__ZN9GfxDevice31InsertCustomBlitCallbackAndDataEPFviPvER33UnityRenderingExtCustomBlitParams
yPa:__Z32AddPathRemapsForBuiltinResourcesRKN4core12basic_stringIcNS_20StringStorageDefaultIcEEEE
gIg:_IL2CPPStructAlignmentAttribute__ctor_m2555798229
xJi:_TextGenerator_GetCharacters_m2554471692
Twe:_DSAManaged_remove_KeyGenerated_m61544860
wIb:__ZL26Transfer_SimpleNativeClassI17RemapPPtrTransfer17AnimationCurveTplIfELb0EEvRK29SerializationCommandArgumentsR31RuntimeSerializationCommandInfo
YDi:_KeyUsageExtension_Decode_m4115739726
sm:_glDeleteTransformFeedbacks
xf:_JS_WebRequest_Send
rEj:__ZN6il2cpp2os4Time31GetTicks100NanosecondsMonotonicEv
nAj:__ZNSt3__26__treeINS_12basic_stringIcNS_11char_traitsIcEENS_9allocatorIcEEEENS_4lessIS6_EENS4_IS6_EEE16__construct_nodeIJRKS6_EEENS_10unique_ptrINS_11__tree_nodeIS6_PvEENS_22__tree_node_destructorINS4_ISH_EEEEEEDpOT_
MFd:_Stack_Clear_m771767447
uge:_Int64_System_IConvertible_ToUInt16_m2638682734
geh:__ZL102ChannelServices_t2007814595_CustomAttributesCacheGenerator_ChannelServices_RegisterChannel_m3832858065P21CustomAttributesCache
SXj:_emscripten_glGenRenderbuffers__wrapper
sQj:__ZNK10__cxxabiv117__class_type_info24process_found_base_classEPNS_19__dynamic_cast_infoEPvi
P0i:_Nullable_1_Equals_m1889119397_AdjustorThunk
rGg:_GUIStyle_Draw_m3134455812
X9i:__ZN6il2cpp2vm13MetadataCache21GetFieldInfoFromIndexEj
ARh:_Raycast2DCallback_BeginInvoke_m4219004388
fQ:__ZN17AudioClipPlayable13OnAdvanceTimeEd
kCj:__GLOBAL__sub_I_String_cpp
znf:_ListDictionary_FindEntry_m432748847
Jq:__ZNSt3__26vectorIN4core12basic_stringIcNS1_20StringStorageDefaultIcEEEENS_9allocatorIS5_EEE6assignINS_11__wrap_iterIPS5_EEEENS_9enable_ifIXaasr21__is_forward_iteratorIT_EE5valuesr16is_constructibleIS5_NS_15iterator_traitsISE_E9referenceEEE5valueEvE4typeESE_SE_
s6h:_AudioSettings_InvokeOnAudioConfigurationChanged_m3225073778
adj:_il2cpp_init
_Lc:__ZNSt3__26__treeIPN2UI14CanvasRendererENS_4lessIS3_EENS_9allocatorIS3_EEE7destroyEPNS_11__tree_nodeIS3_PvEE
F_f:__Z176RuntimeInvoker_Boolean_t3825574718_RuntimeObject_Int32U26_t455636984_Int32_t2071877448_Int32_t2071877448_Int32_t2071877448_RuntimeObject_SByte_t454417549_ContextU26_t3131521781PFvvEPK10MethodInfoPvPS4_
oCa:__ZN13GfxDeviceGLES22UploadTextureSubData2DE9TextureIDPKhiiiiii14GraphicsFormat
y4:__ZNK15dense_hashtableINSt3__24pairIKPKcPK4RTTIEES3_N11TypeManager23ConstCharPtrHashFunctorEN14dense_hash_mapIS3_S7_SA_NS9_19ConstCharPtrEqualToE13stl_allocatorIS8_L18MemLabelIdentifier6ELi16EEE9SelectKeyESC_SF_E23find_position_with_hashERS4_j
uec:__Z35Register_UnityEngine_Screen_get_dpiv
Glj:__ZNK15dense_hashtableINSt3__24pairIK10KeyWrapperIPK14Il2CppAssemblyEPK22Il2CppMonoAssemblyNameEES6_N6il2cpp5utils11PointerHashIS4_EEN14dense_hash_mapIS6_SA_SF_NS6_14EqualsComparerINS0_8equal_toIS5_EEEENS0_9allocatorISB_EEE9SelectKeyESK_SM_E5beginEv
AKg:_Mesh_get_normals_m1837187359
Ytc:__ZN8JSONRead8TransferIxEEvRT_PKc17TransferMetaFlagsb
x0:__ZN13SpeedTreeWind7AdvanceEbd
HFa:__ZN18GlslGpuProgramGLES19ApplyGpuProgramGLESERK20GpuProgramParametersPKh
Dac:__ZN9Transform16SetLocalPositionERK8Vector3f
_md:_LayoutGroup_GetTotalMinSize_m2600700952
HPb:__Z15Transfer_StringI18StreamedBinaryReadILb0EELb0EEvRK29SerializationCommandArgumentsR31RuntimeSerializationCommandInfo
yM:__ZN12SoundManagerC2Ev
tCc:_UNITY_tt_face_free_name
p5d:_Array_Sort_TisUICharInfo_t3056636800_m37864585_gshared
b_j:_emscripten_glGetUniformfv__wrapper
KJa:__ZN14DataBufferGLES3MapEjjj
isi:_InternalEnumerator_1_System_Collections_IEnumerator_get_Current_m771161214_gshared
Po:FUNCTION_TABLE_fidi
$Sg:_Enumerator_get_CurrentValue_m2645962456_gshared
p_j:_emscripten_glGetShaderiv__wrapper
v_b:__Z13RegisterClassI9TransformEvv
Wna:__ZN18UnityPropertySheet11UnityTexEnv8TransferI19StreamedBinaryWriteILb0EEEEvRT_
Edi:_ResourceInfo_t3933049236_marshal_pinvoke_back
GHj:_GC_make_descriptor
A1h:_AnimatorControllerPlayable_GetAnimatorClipInfoCountInternal_m2158191784
kdj:_il2cpp_array_new
F$d:_Array_InternalArray__ICollection_Add_TisDictionaryEntry_t3048875398_m279246399_gshared
Vfi:_ChannelServices_GetCurrentChannelInfo_m4080942430
PK:__ZN4FMOD3DSP8getInputEiPPS0_PPNS_13DSPConnectionE
qDe:_KeyValuePair_2_ToString_m2882821022_AdjustorThunk
X4:__ZN20dynamic_block_vectorI14FileIdentifierE5clearEv
Iwb:__ZN10MeshFilter23VirtualRedirectTransferER17RemapPPtrTransfer
qBc:_ft_outline_glyph_bbox
ERi:_IndexedSet_1_RemoveAll_m2736534958_gshared
JKc:_UNITY_FT_Done_Library
qYh:_VertexHelper__cctor_m1150948588
gR:__ZN13AudioPlayable25UpdateChannelGroupVisitorERK16AudioProcessData
qOc:__ZN2UI13CanvasManager17EmitDataForCameraEP6Camera
Wxj:__ZN6il2cpp2vm6Object16GetVirtualMethodEP12Il2CppObjectPK10MethodInfo
q6h:_PCMSetPositionCallback_BeginInvoke_m2507142524
LUg:_Transform_1_Invoke_m1111426439_gshared
Bhc:__Z44Register_UnityEngine_Material_GetTextureImplv
Pxc:__ZN13sorted_vectorIN20TextRenderingPrivate8FontImpl13CharacterInfoENSt3__24lessIS2_EE13stl_allocatorIS2_L18MemLabelIdentifier34ELi16EEE10insert_oneERKS2_
PKi:_Transform_INTERNAL_set_localPosition_m432504087
LZj:_glUniform3uiv__wrapper
bga:__ZL8MainLoopv
Npg:_Binder_ConvertArgs_m2999223281
ttg:_TypeBuilder_IsDefined_m3186251655
bQc:__Z47Register_UnityEngine_CanvasRenderer_SetMaterialv
Fgi:_ConfigHandler_ValidatePath_m3188987489
rZg:_Dictionary_2_ToTValue_m1227484397_gshared
tre:_NumberFormatter_get_IntegerDigits_m3972411141
dxb:__ZThn32_N12MeshRendererD1Ev
Cia:__ZN13RenderTexture23VirtualRedirectTransferER19StreamedBinaryWriteILb0EE
dUg:_ShimEnumerator_MoveNext_m2728191736_gshared
bgg:__Z135RuntimeInvoker_RuntimeObject_Ray_t2469606224_RaycastHitU26_t1969197280_Single_t2076509932_Int32_t2071877448_RuntimeObject_RuntimeObjectPFvvEPK10MethodInfoPvPS4_
yTf:_UInt64_System_IConvertible_ToInt32_m930227577_AdjustorThunk
eDj:__ZN6il2cpp2vm13ComObjectBase17GetMarshalSizeMaxERK10Il2CppGuidPvjS5_jPj
J1b:__ZN9TransformC2E18MemLabelIdentifier18ObjectCreationMode
oPj:_truncate
yVb:__ZN9ShaderLab27SerializedShaderVectorValue8TransferI18StreamedBinaryReadILb0EEEEvRT_
_qb:__ZN8Renderer21RendererBecameVisibleEv
s6e:_ReadOnlyCollection_1_System_Collections_Generic_ICollectionU3CTU3E_Clear_m2503787861_gshared
LOj:___stpncpy
IXe:_Collection_1_System_Collections_IList_Add_m669232520_gshared
QPe:_List_1_RemoveAt_m1843849279_gshared
P$:__ZN10MemoryPool16StaticInitializeEPv
Fba:__ZN11TypeManager21CleanupGlobalInstanceEv
mRf:_TypedReference_GetHashCode_m3498861551_AdjustorThunk
N:Math_atan
hgj:__ZNSt3__212basic_stringIcNS_11char_traitsIcEENS_9allocatorIcEEE6__initIPKcEENS_9enable_ifIXsr21__is_forward_iteratorIT_EE5valueEvE4typeESA_SA_
CJ:__ZNK10SampleClip11GetResourceEv
rQa:__ZN4core12basic_stringIcNS_20StringStorageDefaultIcEEE6resizeEj
tmc:__Z43Register_UnityEngine_Event_set_displayIndexv
wui:_InternalEnumerator_1_System_Collections_IEnumerator_get_Current_m2821735692_AdjustorThunk
awc:__GLOBAL__sub_I_CmEventProfiler_cpp
bbf:_PrimalityTests_GetSPPRounds_m873706010
xKf:_StringBuilder_AppendLine_m1686706871
b8e:_ReadOnlyCollection_1_System_Collections_Generic_IListU3CTU3E_Insert_m584948331_gshared
rib:__ZN17GlobalGameManager23VirtualRedirectTransferER24GenerateTypeTreeTransfer
mle:_MemoryStream_ToArray_m547789004
BTc:__ZN19UnityConnectServiceD0Ev
n2h:_AnimatorControllerPlayable_CrossFade_m3794224188
zke:_MonoIO_SetLength_m1019790894
UTa:__ZZ23InitPlayerLoopCallbacksvEN46EarlyUpdateUpdateAllUnityWebStreamsRegistrator7ForwardEv
rUf:_UIntPtr_ToString_m387842486
tkb:__ZNSt3__26vectorIfNS_9allocatorIfEEE8__appendEjRKf
uSc:__ZN11UnityEngine15PlatformWrapper21GetCopyTextureSupportEv
cld:_Graphic_get_depth_m3526566553
OS:__ZN11AudioModule27IsFormatSupportedByPlatformEPKc
nCd:_CollectionBase_get_InnerList_m44314156
ORd:_Enum_System_IConvertible_ToUInt32_m3575456858
xCg:_WindowFunction_BeginInvoke_m322627481
Pib:__ZNSt3__26vectorI17SortingLayerEntryNS_9allocatorIS1_EEE6assignINS_11__wrap_iterIPS1_EEEENS_9enable_ifIXaasr21__is_forward_iteratorIT_EE5valuesr16is_constructibleIS1_NS_15iterator_traitsISA_E9referenceEEE5valueEvE4typeESA_SA_
Y4:__ZN14SerializedFile14SerializedTypeD2Ev
zbc:__Z48Register_UnityEngine_AsyncOperation_set_priorityv
mvc:__Z19TransferField_ArrayI8JSONRead16Converter_StringEvRK23StaticTransferFieldInfoR31RuntimeSerializationCommandInfoRT0_
Xfb:__ZNK25ThreadsafeLinearAllocator22GetAllocatedMemorySizeEv
dGc:_cff_size_request
jnb:__ZN15DirectorManager14ConnectionPool12SwitchBucketEP14ConnectionList
tQf:_Type_EqualsInternal_m266086934
mMc:__ZN2UI11CompareFuncEPNS_6CanvasES1_
DL:__ZN4FMOD7Channel11set3DSpreadEf
JKj:__ZN6il2cpp2os6Memory14AlignedReAllocEPvjj
W:Math_fround
EFc:_pshinter_get_t1_funcs
Zva:__ZN24GenerateTypeTreeTransfer16TransferTypelessEPjPKc17TransferMetaFlags
YOf:_TimeSpan_get_TotalMinutes_m1645177229
eYc:_HMACMD5__ctor_m3425004426
Dze:_SymmetricTransform_InternalTransformBlock_m55428483
SIa:__ZL18ProgramUniform4uivPK7ApiGLESjiihPKv
Qpe:_LongComparer_Compare_m398047722
RQ:__ZN18AudioMixerPlayable18CacheFMODResourcesEPN4FMOD6SystemE
B2g:_EqualityComparer_1_System_Collections_IEqualityComparer_Equals_m2170611288_gshared
M5h:_AudioMixerPlayable_op_Explicit_m1657546053
Rud:_Attribute_CheckParameters_m1754681684
JKf:_UnicodeEncoding_GetByteCount_m2761661599
Y0a:__ZN10builtintex21GetAttenuationTextureEv
Sm:FUNCTION_TABLE_viiiiiiiiiiiiiii
lVh:_Selectable_TriggerAnimation_m3096883407
h7b:__ZNK4Mesh19CanAccessFromScriptEv
U9:__Z15GetGraphicsCapsv
HEa:__ZN7ApiGLES15BindVertexArrayEN2gl6HandleILNS0_10ObjectTypeE3EEE
_u:__ZN17AnimationPlayable17GetAnimationClipsER13dynamic_arrayIP13AnimationClipLj4EE
H1a:__Z20IntersectionAABBAABBRK10MinMaxAABBS1_PS_
Jkj:__ZN30dense_hashtable_const_iteratorINSt3__24pairIK10KeyWrapperINS1_IPK9EventInfoP11Il2CppClassEEEjEES9_17ReflectionMapHashIS8_EN14dense_hash_mapIS9_jSD_NS9_14EqualsComparerINS0_8equal_toIS8_EEEENS0_9allocatorISB_EEE9SelectKeyESI_SK_EppEv
CPf:_TimeSpan_op_GreaterThan_m2202243191
vZb:__ZN18BackgroundJobQueue29ScheduleMainThreadJobInternalEPFvPvES0_
itf:_X509Chain_IsSelfIssued_m2009755967
DMc:__ZN2UI11CanvasGroup23VirtualRedirectTransferER24GenerateTypeTreeTransfer
ynb:__ZNK20ScriptPlayableOutput9GetStagesER13dynamic_arrayI16StageDescriptionLj4EE
BEb:__Z18Transfer_BlittableI14SafeBinaryReadLb1EhEvRK29SerializationCommandArgumentsR31RuntimeSerializationCommandInfo
dMd:_DateTime_GetTimeMonotonic_m4135038456
Kca:__ZNSt3__224__buffered_inplace_mergeIRNS_4lessIN4core12basic_stringIcNS2_20StringStorageDefaultIcEEEEEENS_11__wrap_iterIPS6_EEEEvT0_SC_SC_T_NS_15iterator_traitsISC_E15difference_typeESG_PNSF_10value_typeE
qKf:_StringBuilder_Append_m3636508479
kc:invoke_viifff
A2:__Z22DestroyObjectHighLevelP6Objectb
T_a:__Z26BeginRenderQueueExtractionR15RenderNodeQueuePK16RendererCullDataRK13CullingOutputPK12LODDataArray15ExtractionFlagsP18JobBatchDispatcher
Oxc:__ZNK13TextRendering4Font10GetTextureEv
jZc:_SymmetricAlgorithm_set_KeySize_m270664177
pj:_emscripten_glVertexAttrib3fv
DOh:__ZL49Shadow_t4269599528_CustomAttributesCacheGeneratorP21CustomAttributesCache
dqj:__ZN6il2cpp6icalls8mscorlib6System9Threading6Thread16SetName_internalEP12Il2CppThreadP12Il2CppString
tj:_glBeginTransformFeedback
Khf:_Context_ClearKeyInfo_m205678623
dxa:__ZN18JobBatchDispatcherC2E11JobPriorityi
nkc:__ZN8GUIStyle14GetBuiltinFontEv
gDa:__ZN9GfxDevice13EndFrameStatsEv
e1b:__Z7Empty2DP9Texture2DPhiiii
vhe:_IntPtr_ToString_m1500137303_AdjustorThunk
jdd:_RaycasterManager__cctor_m3713028899
ZLe:_List_1_CheckCollection_m1228076404_gshared
bTi:_SymmetricTransform_ThrowBadPaddingException_m2553969731
$N:__ZL34StaticDestroyAudioCustomFilterRootPv
mXa:__ZN19ComputeShaderKernelD2Ev
cZb:__ZN10systeminfo21GetTemporaryCachePathEv
r_e:_Collection_1_IsValidItem_m2164075061_gshared
zvc:__ZN9rapidjson12PrettyWriterI16TempBufferWriterNS_4UTF8IcEES3_13JSONAllocatorE12PrettyPrefixENS_4TypeE
$Sa:__ZN15ArchiveReadFile4ReadEyyPvPy
nXb:__ZN12ScriptMapper8TransferI14SafeBinaryReadEEvRT_
Dhf:_Context_set_ClientWriteKey_m1137238126
VJb:__Z18Transfer_BlittableI24GenerateTypeTreeTransferLb1E10Matrix4x4fEvRK29SerializationCommandArgumentsR31RuntimeSerializationCommandInfo
kBi:_Expression_GetFixedWidth_m2900825908
NB:__Z10SetLocalTR15TransformAccessRKN4math7_float3ERKNS0_7_float4E
zVi:_GenericEqualityComparer_1_Equals_m1663005117_gshared
b9h:_Color_ToString_m4028093047_AdjustorThunk
Irg:_ILGenerator_Mono_GetCurrentOffset_m3553856682
isc:__ZN9JSONWrite8TransferI10Matrix4x4fEEvRT_PKc17TransferMetaFlags
m5g:__ZL58Decimal_t724701077_CustomAttributesCacheGenerator_MinValueP21CustomAttributesCache
xHc:_cf2_hintmap_map
qGe:_Enumerator_VerifyState_m3639069574_AdjustorThunk
jQ:__ZN17AudioClipPlayable15ApplyPropertiesEPN4FMOD6SystemEP11AudioSourcebyj
Vdh:__ZL50_Module_t2144668161_CustomAttributesCacheGeneratorP21CustomAttributesCache
fHb:__ZN15SerializeTraitsI5RectTIfEE8TransferI14SafeBinaryReadEEvRS1_RT_
GJg:_Mathf_CeilToInt_m2672598779
pic:__Z41Register_UnityEngine_Texture_get_wrapModev
zzc:_UNITY_FT_Raccess_Get_DataOffsets
avf:_X509Extension_CopyFrom_m2644634650
M4b:__ZN14PlayableOutputC2EjP13PlayableGraph
lrb:__ZThn32_NK8Renderer11GetMaterialEi
JVb:__ZN9ShaderLab20SerializedSubProgram8TransferI19StreamedBinaryWriteILb0EEEEvRT_
_hh:__ZL118SecurityManager_t3191249573_CustomAttributesCacheGenerator_SecurityManager_t3191249573____SecurityEnabled_PropertyInfoP21CustomAttributesCache
DJe:_List_1_System_Collections_IList_Insert_m813883425_gshared
vEj:__ZN6il2cpp6icalls8mscorlib6System7Runtime15InteropServices8GCHandle15GetTargetHandleEP12Il2CppObjectii
jfi:_SafeHandle_Dispose_m3871883741
mk:_unsetenv
qAa:__ZN9GfxDevice29GetMinimumNodesPerGraphicsJobEv
Qvb:__ZN17BlendShapeChannel8TransferI24GenerateTypeTreeTransferEEvRT_
Vbg:__Z427RuntimeInvoker_Boolean_t3825574718_RuntimeObject_RuntimeObject_Color_t2020392075_Int32_t2071877448_Single_t2076509932_Single_t2076509932_Int32_t2071877448_SByte_t454417549_SByte_t454417549_Int32_t2071877448_Int32_t2071877448_Int32_t2071877448_Int32_t2071877448_SByte_t454417549_Int32_t2071877448_Single_t2076509932_Single_t2076509932_Single_t2076509932_Single_t2076509932_SByte_t454417549_SByte_t454417549_UInt32U26_t2197289955PFvvEPK10MethodInfoPvPS4_
CBg:_GameObject_SendMessage_m71956653
OPg:_Rect_set_yMin_m734445288_AdjustorThunk
aHj:_GC_init_size_map
tzi:_Parser_NewParseException_m3909819299
y$h:_AnimatorControllerPlayable_GetFloat_m753829628
Yaa:__ZN15DirectorManager17OnSampleFixedTimeEv
T5a:__ZNK13RendererScene21GetDynamicObjectCountEv
fWg:_Enumerator_System_Collections_IEnumerator_get_Current_m1805365227_AdjustorThunk
UEj:_GC_is_black_listed
d9c:_BaseInput_get_imeCompositionMode_m4145003637
spd:_InputField_set_caretSelectPositionInternal_m2063243072
w$j:_emscripten_glDisable__wrapper
BKb:__ZN24GenerateTypeTreeTransfer32TransferSTLStyleArrayWithElementI23ManagedObjectTransfererEEvRT_17TransferMetaFlags
Ati:_InternalEnumerator_1_System_Collections_IEnumerator_get_Current_m3043347404_AdjustorThunk
rke:_WriteDelegate_BeginInvoke_m2985235908
qNd:_DateTimeOffset_get_Offset_m2335492074_AdjustorThunk
M6d:_Component_GetComponentsInChildren_TisRuntimeObject_m1992201622_gshared
kQg:_RectOffset_Cleanup_m3198970074
$nc:__Z42Register_UnityEngine_GUIStyle_set_wordWrapv
vAc:_UNITY_FT_Destroy_Class_tt_driver_class
dfe:_Int32_System_IConvertible_ToChar_m719315943_AdjustorThunk
VKj:__ZN6il2cpp6icalls8mscorlib6System7Runtime8Remoting16RemotingServices16GetVirtualMethodEP20Il2CppReflectionTypeP22Il2CppReflectionMethod
Exi:_Match__ctor_m478172746
F2d:_Array_InternalArray__Insert_TisWorkRequest_t1154022482_m452198486_gshared
Pbc:__Z42Register_UnityEngine_Behaviour_get_enabledv
Koe:_Math_Pow_m3099781906
jfj:__ZN6il2cpp2vm14TypeNameParser23ParseNestedTypeOptionalERi
vqe:_MonoType_ReorderParamArrayArguments_m979187413
W9e:_BigInteger_ToString_m1842353154
tKj:__ZN6il2cpp2os13FastMutexImplC2Ev
rRc:__ZN22BaseUnityConnectClient14QueueCoreEventERN11UnityEngine15CloudWebService17CloudServiceEventEb
Rmi:_InternalEnumerator_1_get_Current_m2882946014_gshared
jBb:__ZN30RuntimeInitializeOnLoadManager9ClassInfo8TransferI14SafeBinaryReadEEvRT_
Oei:_GCHandle_Equals_m170815541_AdjustorThunk
g2a:__ZL13RenderCastersiRK8Vector3fS1_RK13ShadowJobDataR17ShaderPassContextRKNSt3__26vectorI16ShadowCasterData13stl_allocatorIS9_L18MemLabelIdentifier2ELi16EEEERKNS8_I20ShadowCasterPartDataSA_ISG_LSB_2ELi16EEEERK15RenderNodeQueuebPKj
ml:_emscripten_glGetShaderInfoLog
Xfj:__ZNSt3__26vectorIiNS_9allocatorIiEEE8allocateEj
Tih:__ZL100CompressedStack_t1568001503_CustomAttributesCacheGenerator_CompressedStack_GetObjectData_m2387204186P21CustomAttributesCache
YZc:_RIPEMD160Managed_Compress_m3844168032
CNd:_DBNull_System_IConvertible_ToInt32_m3596596664
See:_Int16_ToString_m1247017262_AdjustorThunk
tQg:_RectTransform_get_anchorMax_m3816015142
XCc:_UNITY_ft_glyphslot_set_bitmap
y3:__ZN24GenerateTypeTreeTransfer18SetScriptingObjectE18ScriptingObjectPtri
GQg:_RectTransform_INTERNAL_get_pivot_m3003734630
dU:__Z92Register_UnityEngine_Audio_AudioMixerPlayable_INTERNAL_CALL_CreateAudioMixerPlayableInternalv
ufe:_Int32_System_IConvertible_ToType_m573330549_AdjustorThunk
uqg:_CustomAttributeTypedArgument_Equals_m1555989603
GYb:__ZN6prcoreL11inner_clearILj3EEEvPhjjj
j9f:__Z99RuntimeInvoker_RuntimeObject_RuntimeObject_RuntimeObject_Vector3_t2243707580_Quaternion_t4030073918PFvvEPK10MethodInfoPvPS4_
xjb:__Z29FindReflectionProbeFromAnchorP9TransformRK4AABBRS1_RsS5_
CUd:_CultureInfo_insert_into_shared_tables_m348522444
PT:__Z74Register_UnityEngine_Audio_AudioClipPlayable_INTERNAL_CALL_GetClipInternalv
zxf:_Interval_Merge_m1170166798
GCf:_WellKnownServiceTypeEntry__ctor_m1109686429
tJc:_Read_CVT_Stretched
vNg:_PlayableHandle_SetInputCount_m2001045454_AdjustorThunk
Qbj:__ZN6il2cpp6icalls8mscorlib6System18CollectTypeMethodsINS_5utils10functional10TrueFilterEEEvP11Il2CppClassPKS7_jRKT_RNSt3__26vectorIPK10MethodInfoNSE_9allocatorISI_EEEERA65535_b
jTe:_Enumerator_get_Current_m2566716693_AdjustorThunk
lga:__Z14SetPlayerPause11PlayerPauseb
b5h:_AudioClipPlayable_GetLooped_m2341122984_AdjustorThunk
cNi:_Vector3_op_Equality_m305888255
dkd:_FontData_get_defaultFontData_m3296571046
Kcg:__Z65RuntimeInvoker_Int32_t2071877448_RuntimeObject_Single_t2076509932PFvvEPK10MethodInfoPvPS4_
Awj:__ZN15dense_hashtableINSt3__24pairIK10KeyWrapperIP12Il2CppObjectEN6il2cpp2gc9CachedCCWEEES5_NS7_5utils11PointerHashIS3_EEN14dense_hash_mapIS5_S9_SD_NS5_14EqualsComparerINS0_8equal_toIS4_EEEENS0_9allocatorISA_EEE9SelectKeyESI_SK_EC2ERKSN_j
Mpd:_InputField_InPlaceEditing_m1040314765
I1:__Z30scripting_stack_trace_info_for21ScriptingExceptionPtrR14StackTraceInfo
hUj:_glCompressedTexSubImage3D__wrapper
Vjj:__ZN15dense_hashtableINSt3__24pairIK10KeyWrapperINS1_IPK12PropertyInfoP11Il2CppClassEEEjEES9_17ReflectionMapHashIS8_EN14dense_hash_mapIS9_jSD_NS9_14EqualsComparerINS0_8equal_toIS8_EEEENS0_9allocatorISB_EEE9SelectKeyESI_SK_EC2ERKSN_j
YK:__ZN15AudioReverbZone7CleanupEv
QMa:__ZN10BufferGLESD0Ev
eti:_InternalEnumerator_1_System_Collections_IEnumerator_get_Current_m790514740_gshared
m3c:__Z9NullCheckPv
fUc:__ZN22UnityAnalyticsSettings8TransferI14SafeBinaryReadEEvRT_
RCb:__ZN9Scripting35ErrorMessageForUnsupportedEnumFieldE17ScriptingFieldPtr
FHc:_cf2_hintmask_isNew
$1d:_Array_InternalArray__Insert_TisIntPtr_t_m3232864760_gshared
Ara:__ZN6prcoreL26RemapGenericIntegerToFloatI17TexFormatARGB888818TexFormatARGBFloatEEvPKNS_9InnerInfoE
FWi:__ZL24UnresolvedVirtualCall_10P12Il2CppObjectPK10MethodInfo
YYj:_emscripten_glCompressedTexSubImage2D__wrapper
THf:_DSA_FromXmlString_m2141326025
WGg:_GUIStyle_CalcSizeWithConstraints_m4117833199
cVc:__ZZN18UnityConnectClient23RegisterGlobalCallbacksEvEN46EarlyUpdateUnityConnectClientUpdateRegistrator7ForwardEv
LYg:_Dictionary_2_System_Collections_IDictionary_Remove_m2901901588_gshared
$Ki:_Transform_INTERNAL_set_localScale_m3680777866
Xaj:__ZN6il2cpp2vmL29SocketPollingThreadEntryPointEPv
eMd:_DateTime_GetNow_m1004310079
y$f:__Z97RuntimeInvoker_Void_t1841601450_RuntimeObject_Int32_t2071877448_SByte_t454417549_SByte_t454417549PFvvEPK10MethodInfoPvPS4_
Uvb:__ZN10Matrix4x4f8TransferI18StreamedBinaryReadILb0EEEEvRT_
zmf:_SslStreamBase_get_Length_m763159069
X8e:_Comparison_1_Invoke_m4190993814_gshared
QO:__ZN4FMOD7Channel19getReverbPropertiesEP29FMOD_REVERB_CHANNELPROPERTIES
Uui:_InternalEnumerator_1_get_Current_m906360510_AdjustorThunk
$Pd:_StackFrame_GetSecureFileName_m389986943
ZCf:_FormatterConverter_ToInt16_m2774942580
cgd:_CanvasScaler_HandleConstantPixelSize_m229625308
hgd:_CanvasUpdateRegistry_PerformUpdate_m2200492017
wRf:_UInt16_System_IConvertible_ToByte_m806893944_AdjustorThunk
dLf:_UTF32Encoding_GetCharCount_m3319809517
g9b:__Z12CancelInvokeR13MonoBehaviourR11ICallString
aCg:_GUILayout_Height_m607115982
Gbj:__ZN6il2cpp6icalls8mscorlib6System8MonoType13GetInterfacesEP20Il2CppReflectionType
qX:__ZN11UnityEngine15CloudWebService25WebRequestDownloadHandler7OnAbortEv
OR:__ZN9AudioClip16EnableLegacyModeEv
_Ab:__ZN14SafeBinaryRead21TransferSTLStyleArrayINSt3__26vectorIi13stl_allocatorIiL18MemLabelIdentifier12ELi16EEEEEEvRT_17TransferMetaFlags
UDe:_KeyValuePair_2_ToString_m2613351884_AdjustorThunk
yFe:_Enumerator_System_Collections_IEnumerator_get_Current_m3461301268_AdjustorThunk
szj:__ZN6il2cpp2os6Thread22SetNativeThreadCleanupEPFvPvE
abc:__Z35Application_Get_Custom_PropPlatformv
pdj:_il2cpp_class_from_system_type
EJb:__Z18Transfer_BlittableI24GenerateTypeTreeTransferLb1E10ColorRGBAfEvRK29SerializationCommandArgumentsR31RuntimeSerializationCommandInfo
Aqa:__ZN6prcoreL17RemapGenericFloatI18TexFormatRGBAFloat16TexFormatRGFloatEEvPKNS_9InnerInfoE
Rse:_MSCompatUnicodeTable_FillCJKCore_m1100372933
LFi:_X509Certificate_VerifySignature_m2806336005
BGb:__ZNSt3__26vectorI10RectOffset13stl_allocatorIS1_L18MemLabelIdentifier1ELi16EEE8__appendEj
AHd:_DateTime_op_Inequality_m1607380213
rt:__ZN21AnimationClipPlayable22PrepareAnimationEventsEfR13dynamic_arrayI22AnimationClipEventInfoLj4EE
j4i:__ZN6il2cpp2vm5Class12HasAttributeEP11Il2CppClassS3_
p6d:_Dictionary_2_Do_ICollectionCopyTo_TisRuntimeObject_m4050345195_gshared
vVd:_Array_InternalArray__ICollection_Contains_TisResourceCacheItem_t333236149_m1769941464_gshared
_9h:_ContextMenu__ctor_m3931483141
vwj:__ZN14dense_hash_mapI10KeyWrapperIP12Il2CppObjectEN6il2cpp2gc9CachedCCWENS4_5utils11PointerHashIS1_EENS3_14EqualsComparerINSt3__28equal_toIS2_EEEENSB_9allocatorINSB_4pairIKS3_S6_EEEEE13set_empty_keyERSH_
$o:FUNCTION_TABLE_ff
dub:__ZNSt3__218__stable_sort_moveIRNS_4lessI4PPtrI11SpriteAtlasEEENS_11__wrap_iterIPS4_EEEEvT0_SA_T_NS_15iterator_traitsISA_E15difference_typeEPNSD_10value_typeE
bp:FUNCTION_TABLE_fi
Y8c:_BaseEventData_set_selectedObject_m2198139983
Gz:__ZNSt3__227__insertion_sort_incompleteIRN11UnityEngine9Animation11BindingSortEPNS_4pairINS2_14GenericBindingEPNS2_10BoundIndexEEEEEbT0_SB_T_
ELj:__ZN6il2cpp2vm16GenericContainer19GetGenericParameterEPK22Il2CppGenericContainert
tyd:_Char_System_IConvertible_ToSingle_m2547558725_AdjustorThunk
hDg:_GUILayoutEntry_ApplyOptions_m115321759
BAb:__ZN18StreamedBinaryReadILb0EE21TransferSTLStyleArrayINSt3__26vectorIN15ResourceManager10DependencyE13stl_allocatorIS5_L18MemLabelIdentifier51ELi16EEEEEEvRT_17TransferMetaFlags
zd:_emscripten_glGetAttribLocation
V4:__ZNSt3__26vectorINS_4pairIiiEE13stl_allocatorIS2_L18MemLabelIdentifier37ELi16EEE6insertENS_11__wrap_iterIPKS2_EERS8_
$Ta:__ZZ23InitPlayerLoopCallbacksvEN39PostLateUpdateResetInputAxisRegistrator7ForwardEv
qN:__ZN4FMOD12ChannelGroup14getParentGroupEPPS0_
Pkf:_SslClientStream_add_ServerCertValidation_m684653638
Dd:_emscripten_set_blur_callback
wJi:_TextGenerator_Invalidate_m3217235344
IJj:__GLOBAL__sub_I_MemoryMappedFile_cpp
vVj:___cxa_pure_virtual__wrapper
nIa:__ZNK14ImageReference9ClipImageEiiii
U2a:__ZN10Matrix4x4f30SetPositionAndOrthoNormalBasisERK8Vector3fS2_S2_S2_
qhb:__ZN5RectTIfE8TransferI24GenerateTypeTreeTransferEEvRT_
sgi:_CrossAppDomainSink__cctor_m1547233779
mse:_TableRange__ctor_m1944319286_AdjustorThunk
PYa:__ZN12FlareManager6UpdateEv
TVj:_glColorMask__wrapper
Mdh:__ZL59_ConstructorInfo_t3269099341_CustomAttributesCacheGeneratorP21CustomAttributesCache
_Zg:_Dictionary_2_ContainsKey_m1385349577_gshared
EAe:_X509CertificateEnumerator_MoveNext_m1031936092
Orj:__ZN6il2cpp6icalls8mscorlib6System4Type29GetGenericTypeDefinition_implEP20Il2CppReflectionType
cgf:_TlsStream__ctor_m2982031560
Frf:_X509EnhancedKeyUsageExtension__ctor_m4050164330
jPb:__ZN18StreamedBinaryReadILb1EE8TransferI8Vector3fEEvRT_PKc17TransferMetaFlags
esi:_InternalEnumerator_1_get_Current_m2198364332_AdjustorThunk
Vsa:__ZN27GenericSlowGarbageCollector16ProcessReferenceEi
uBf:_RealProxy_InternalGetProxyType_m858618403
SSd:_FieldAccessException__ctor_m1240495912
tDi:_Uri_HexUnescapeMultiByte_m25670899
Wfd:_CanvasScaler_set_dynamicPixelsPerUnit_m742632820
eOj:_fopen
gAc:__ZN20TextRenderingPrivate8FontImplD2Ev
$Y:__ZN19CloudServiceHandler8SaveFileERKN4core12basic_stringIcNS0_20StringStorageDefaultIcEEEEPKvj
E9c:_BaseInputModule_HandlePointerExitAndEnter_m1570886840
_uf:_X509EnhancedKeyUsageExtension_CopyFrom_m1426370958
Ppc:__ZN9rapidjson13GenericReaderINS_4UTF8IcEES2_13JSONAllocatorE10ParseValueILj1ENS_25GenericInsituStringStreamIS2_EENS_15GenericDocumentIS2_S3_S3_EEEEvRT0_RT1_
NWj:_glFramebufferTexture2D__wrapper
JLj:__ZN6il2cpp6icalls8mscorlib6System7Runtime8Remoting7Proxies9RealProxy27InternalGetTransparentProxyEP12Il2CppObjectP12Il2CppString
yPe:_List_1_AddEnumerable_m1000825969_gshared
Xzj:__ZN6il2cpp2vm6Method10IsInflatedEPK10MethodInfo
AEj:__ZNK6il2cpp8metadata14Il2CppTypeLessclEPK10Il2CppTypeS4_
rFj:_GC_remove_header
Ace:_RegionInfo_GetHashCode_m1038358761
H4i:__ZN15dense_hashtableINSt3__24pairIK10KeyWrapperIPK11Il2CppClassEPKcEES6_N6il2cpp5utils11PointerHashIS3_EEN14dense_hash_mapIS6_S9_SE_NS6_14EqualsComparerINS0_8equal_toIS5_EEEENS0_9allocatorISA_EEE9SelectKeyESJ_SL_E14squash_deletedEv
nT:__ZN17AudioClipPlayableC2E18DirectorPlayerType
Mgi:_ConfigHandler_ReadCustomProviderData_m784203316
Oib:__ZNSt3__26vectorI17SortingLayerEntryNS_9allocatorIS1_EEE7reserveEj
_gf:_Context_set_MasterSecret_m1422386411
yMb:__Z19TransferField_ArrayI19StreamedBinaryWriteILb0EE27Converter_UnityEngineObjectEvRK23StaticTransferFieldInfoR31RuntimeSerializationCommandInfoRT0_
wdf:_RSAManaged_ToXmlString_m2606223477
Bzi:_CharacterClass__ctor_m1318163925
jgg:__Z150RuntimeInvoker_Void_t1841601450_Vector3_t2243707580_Color32_t874517518_Vector2_t2243707579_Vector2_t2243707579_Vector3_t2243707580_Vector4_t2243707581PFvvEPK10MethodInfoPvPS4_
Dpg:_AssemblyName_GetObjectData_m1221677827
uFa:__Z16GetMSAALevelDesc9MSAALevel
uti:_InternalEnumerator_1_get_Current_m4196174237_AdjustorThunk
nWa:__ZN8Renderer27EnsureTransformInfoUpToDateEv
dca:__ZN15dense_hashtableINSt3__24pairIKN4core12basic_stringIcNS2_20StringStorageDefaultIcEEEEP11AssetBundleEES6_20StringHash32FunctionIS6_EN14dense_hash_mapIS6_S9_SC_NS0_8equal_toIS6_EENS0_9allocatorISA_EEE9SelectKeyESF_SH_E9copy_fromERKSK_j
x$j:_emscripten_glFrontFace__wrapper
Wai:_Display_GetRenderingExtImpl_m3739199112
Ma:invoke_fiffi
UJj:__ZN6il2cpp5utils6Memory6CallocEjj
n5:__ZN14SerializedFile14SerializedType8ReadTypeILb1EEEbibRPKhS3_Pi
IWj:_emscripten_glRenderbufferStorage__wrapper
Zmb:__ZN8Playable7SetTimeEd
f1:__ZN13RuntimeStaticI12GraphicsCapsLb0EE16StaticInitializeEPv
gva:__ZN9Texture3D17UploadToGfxDeviceEv
itc:__Z18Transfer_BlittableI8JSONReadLb1E8Vector4fEvRK29SerializationCommandArgumentsR31RuntimeSerializationCommandInfo
vDc:_tt_cmap2_validate
pia:__ZN13RenderTexture14SetColorFormatE19RenderTextureFormat
oIc:_cff_cmap_unicode_done
Iae:_NumberFormatter_Init_m1515770916
RBi:_Literal_Compile_m3864266818
mhg:__Z72RuntimeInvoker_Boolean_t3825574718_CharU26_t1894467670_Int16_t4041245914PFvvEPK10MethodInfoPvPS4_
pgb:__ZN9Scripting20SendScriptingMessageER10GameObjectPKc18ScriptingObjectPtr
hga:__Z26IsSplashScreenFadeCompletev
xwb:__Z17SendMessageDirectR6ObjectRK17MessageIdentifierR11MessageData
Zc:_glGenSamplers
Opd:_InputField_LateUpdate_m1045279070
occ:__Z42Register_UnityEngine_Camera_get_clearFlagsv
Ibj:__ZNSt3__26__treeIP11Il2CppClassNS_4lessIS2_EENS_9allocatorIS2_EEED2Ev
bZg:_Dictionary_2_InitArrays_m852496598_gshared
foi:_InternalEnumerator_1_get_Current_m1389169756_gshared
$Dg:_GUIScrollGroup_SetVertical_m3540700730
lKf:_StringBuilder_set_Chars_m1019094834
W5a:__ZN15LODGroupManager24UpdateLODGroupComponentsEv
gbb:__ZN13RenderManager27UpdatePreviousFrameMatricesEv
vxd:_Byte_System_IConvertible_ToUInt64_m2667486567
e7:__Z22SetManagerPtrInContextiP6Object
Lzb:__ZN14PlayerSettings8TransferI19StreamedBinaryWriteILb0EEEEvRT_
Wsc:__Z18Transfer_BlittableI8JSONReadLb0E10ColorRGBAfEvRK29SerializationCommandArgumentsR31RuntimeSerializationCommandInfo
X_e:_Collection_1_Remove_m2017992820_gshared
Y1d:_Array_InternalArray__Insert_TisInt16_t4041245914_m371511339_gshared
_qg:_ConstructorBuilder_get_next_table_index_m932085784
KXg:_ValueCollection_System_Collections_ICollection_get_SyncRoot_m919209341_gshared
T7i:__ZN15dense_hashtableINSt3__24pairIK10KeyWrapperIN6il2cpp5utils13dynamic_arrayIPK10Il2CppTypeLj4EEEEPFvvEEESA_NS3_8metadata19Il2CppSignatureHashEN14dense_hash_mapISA_SD_SG_NSA_14EqualsComparerINSF_22Il2CppSignatureCompareEEENS0_9allocatorISE_EEE9SelectKeyESK_SM_E14squash_deletedEv
iWh:_Slider_UpdateDrag_m1963963631
sGf:_SByte_Equals_m755715567
_9:__ZN15DirectorManagerD2Ev
qte:_SortKeyBuffer_AppendNormal_m2554296431
aSc:__ZN11UnityEngine15PlatformWrapper12GetInfoFlagsEv
R9f:__Z87RuntimeInvoker_Void_t1841601450_Int32_t2071877448_Single_t2076509932_Single_t2076509932PFvvEPK10MethodInfoPvPS4_
Wtj:__ZN6il2cpp6icalls8mscorlib6System13Globalization11CultureInfo45construct_internal_locale_from_current_localeEP17Il2CppCultureInfo
RKh:__ZL70InputField_t1631627530_CustomAttributesCacheGenerator_m_CaretBlinkRateP21CustomAttributesCache
$Zd:_Array_IndexOf_TisCustomAttributeNamedArgument_t94157543_m2205974312_gshared
c_d:_Array_IndexOf_TisAnimatorClipInfo_t3905751349_m4033344779_gshared
RLa:__ZN15TextureTFMethod16BindForRenderingEj
QVd:_Array_InternalArray__ICollection_Contains_TisUICharInfo_t3056636800_m2001435744_gshared
r0g:_DefaultComparer_GetHashCode_m3250641461_gshared
Wvf:_Key_ToString_m1129871742
nud:_Array_Sort_m1417611156
xOj:_access
iZf:__Z59RuntimeInvoker_RuntimeObject_RuntimeObject_Int64_t909078037PFvvEPK10MethodInfoPvPS4_
nuj:__ZN15dense_hashtableINSt3__24pairIK10KeyWrapperINS1_IPKcS4_EEEiEES6_24NamespaceAndNamePairHashN14dense_hash_mapIS6_iS9_NS6_14EqualsComparerI26NamespaceAndNamePairEqualsEENS0_9allocatorIS8_EEE9SelectKeyESD_SF_E4findERS7_
$Ci:_Uri_Merge_m2181117222
Lxc:__ZN20TextRenderingPrivate8FontImpl13CharacterInfo8TransferI19StreamedBinaryWriteILb0EEEEvRT_
$9i:__ZN6il2cpp2os19SocketHandleWrapper7ReleaseEv
sid:_DefaultControls_CreateRawImage_m2572997170
VOf:_TimeSpan_get_TotalDays_m3496775483_AdjustorThunk
Syb:__ZNSt3__27__sort4IRNS_6__lessINS_4pairIPKN5Unity4TypeE7Hash128EES8_EEPS8_EEjT0_SC_SC_SC_T_
Jka:__ZNK11NamedObject22GetTypeVirtualInternalEv
ENf:_Thread_Start_m1419497481
Pdg:__Z94RuntimeInvoker_Void_t1841601450_RuntimeObject_PlayableGraph_t1041204988_RuntimeObject_IntPtr_tPFvvEPK10MethodInfoPvPS4_
y7d:_Array_InternalArray__get_Item_TisDictionaryEntry_t3048875398_m2371191320_gshared
UJh:__ZL62FontData_t2614388407_CustomAttributesCacheGenerator_m_RichTextP21CustomAttributesCache
o$f:__Z65RuntimeInvoker_Double_t4078015681_RuntimeObject_Int32_t2071877448PFvvEPK10MethodInfoPvPS4_
Vli:_InternalEnumerator_1_get_Current_m2351441486_gshared
NVg:_Enumerator_System_Collections_IEnumerator_Reset_m1146954164_AdjustorThunk
Wlc:__ZN11IMGUIModule21QueryGUIDisplayTargetE17ScriptingClassPtr
Uac:__ZN11UTF16StringC2ERKS_18MemLabelIdentifier
BEg:_GUISkin_set_textField_m1154803040
GRj:dynCall_vidi
UCg:_GUIStyle_GetRectOffsetPtr_m4223228888
Y4e:_ReadOnlyCollection_1_System_Collections_IList_Remove_m2350545199_gshared
oIg:_Input_get_mouseScrollDelta_m3430638853
rRj:___udivdi3
UYb:__ZN11PlayerPrefs9SetStringERKN4core12basic_stringIcNS0_20StringStorageDefaultIcEEEES6_
hIj:__ZN6il2cpp6icalls8mscorlib6System8Delegate18SetMulticastInvokeEP14Il2CppDelegate
d1h:_AnimatorControllerPlayable_SetLayerWeight_m3897438650_AdjustorThunk
Nrd:_LayoutGroup_get_minHeight_m2270010946
RTc:__ZNSt3__26__treeINS_12__value_typeIN4core12basic_stringIcNS2_20StringStorageDefaultIcEEEEN11UnityEngine7Connect19RemoteSettingsValueEEENS_19__map_value_compareIS6_SA_NS_4lessIS6_EELb1EEE13stl_allocatorISA_L18MemLabelIdentifier5ELi16EEE16__construct_nodeERKNS_4pairIKS6_S9_EE
aX:__ZN11UnityEngine15CloudWebService20WebRequestRestClient5BeginEv
Lbf:_ARC4Managed_GenerateIV_m2815460576
Q3c:_String_Substring_m2032624251
D2b:__ZN8Material12CleanupClassEv
$Ld:_DateTime_get_DayOfWeek_m2345429939_AdjustorThunk
zQf:_Type_GetTypeCode_m1044483454
Pdi:_ResourceSet_GetObjectInternal_m3556256510
dJb:__Z22TransferField_NonArrayI17RemapPPtrTransfer27Converter_SimpleNativeClassI10RectOffsetEEvRK23StaticTransferFieldInfoR31RuntimeSerializationCommandInfoRT0_
CHd:_DateTimeOffset__ctor_m2870721395
UO:__ZN20SoundChannelInstance11set3DSpreadEf
vz:__ZNSt3__26__sortIRN11UnityEngine9Animation11BindingSortEPNS_4pairINS2_14GenericBindingEPNS2_10BoundIndexEEEEEvT0_SB_T_
O6c:_String_ReplaceFallback_m64616664
gzg:_MonoMethod_GetCustomAttributes_m2493833930
Dzb:__ZN24GenerateTypeTreeTransfer32TransferSTLStyleArrayWithElementI16SplashScreenLogoEEvRT_17TransferMetaFlags
ohj:__ZN15dense_hashtableINSt3__24pairIK10KeyWrapperINS1_IPK9FieldInfoP11Il2CppClassEEEjEES9_17ReflectionMapHashIS8_EN14dense_hash_mapIS9_jSD_NS9_14EqualsComparerINS0_8equal_toIS8_EEEENS0_9allocatorISB_EEE9SelectKeyESI_SK_E6insertERKSB_
$4i:__ZN14dense_hash_mapI10KeyWrapperIPKcEP11Il2CppClassN6il2cpp5utils11StringUtils12StringHasherIS2_EENS3_14EqualsComparerINS7_13VmStringUtils21CaseSensitiveComparerEEENSt3__29allocatorINSF_4pairIKS3_S5_EEEEEC2EjRKSA_RKSE_
jfe:_Int32_System_IConvertible_ToDouble_m3322226667_AdjustorThunk
u1d:_Array_InternalArray__ICollection_CopyTo_TisPlayableBinding_t2498078091_m2296273826_gshared
pRj:_memmove
Ubc:__Z27Camera_Get_Custom_PropDepthP12Il2CppObject
NGf:_CodeAccessPermission_ToString_m3345031296
_xj:__ZN6il2cpp2vm6Object5UnboxEP12Il2CppObject
Zof:_FtpWebRequest__ctor_m3003551676
Kbc:__Z52Register_UnityEngine_ScriptableObject_CreateInstancev
Kye:_EncryptedPrivateKeyInfo__ctor_m832236482
z$:__ZN23DefaultMeshVertexFormatC2E17ShaderChannelMask
SNb:__ZL26Transfer_SimpleNativeClassI18StreamedBinaryReadILb1EE8GradientLb1EEvRK29SerializationCommandArgumentsR31RuntimeSerializationCommandInfo
Y4c:_Single_Equals_m3359827399
oNf:_Thread_FreeLocalSlotValues_m2948667652
Wbb:__ZNSt3__26vectorINS_4pairIN4core12basic_stringIcNS2_20StringStorageDefaultIcEEEES6_EE13stl_allocatorIS7_L18MemLabelIdentifier37ELi16EEE12__move_rangeEPS7_SC_SC_
cFa:__ZN7ApiGLES10InvalidateERK14GfxContextGLES
lPi:_InvokableCall_2_Invoke_m1071013389_gshared
rwe:_ASN1Convert_ToOid_m2695991795
EKc:_UNITY_FT_Init_Class_tt_service_truetype_glyf
qKj:__ZN6il2cpp2os5Mutex7TryLockEjb
A$:__Z20IsVectorBuiltinParamPKcPi
xxj:__ZN6il2cpp2vm5Field8GetFlagsEP9FieldInfo
DMg:_PlayableGraph_INTERNAL_CALL_CreatePlayableHandleInternal_m1089209954
sri:_InternalEnumerator_1_get_Current_m727737343_AdjustorThunk
Dqj:__ZN6il2cpp6icalls8mscorlib6System10ReflectionL16LoadResourceFileEP24Il2CppReflectionAssembly
R4:__Z13IsFileCreatedRKN4core12basic_stringIcNS_20StringStorageDefaultIcEEEE
pJj:__ZN6il2cpp6icalls8mscorlib6System21CurrentSystemTimeZone15GetTimeZoneDataEiPP11Il2CppArrayS6_
cqb:__ZN16LightmapSettings18TransferDeprecatedI14SafeBinaryReadEEvRT_
ixj:__ZN15dense_hashtableINSt3__24pairIK10KeyWrapperIP12Il2CppObjectEN6il2cpp2gc9CachedCCWEEES5_NS7_5utils11PointerHashIS3_EEN14dense_hash_mapIS5_S9_SD_NS5_14EqualsComparerINS0_8equal_toIS4_EEEENS0_9allocatorISA_EEE9SelectKeyESI_SK_E5eraseE30dense_hashtable_const_iteratorISA_S5_SD_SM_SI_SK_E
X2:__ZN15dense_hashtableINSt3__24pairIKiP6ObjectEEi21InstanceIDHashFunctorN14dense_hash_mapIiS4_S6_NS0_8equal_toIiEE13stl_allocatorIS5_L18MemLabelIdentifier65ELi16EEE9SelectKeyES9_SC_E12maybe_shrinkEv
q5c:_String__cctor_m710226597
Svi:_DefaultComparer_Compare_m3953592365_gshared
A0e:_Collection_1_IsValidItem_m404831699_gshared
vPf:_TimeSpan_Negate_m4198463235_AdjustorThunk
rkb:__ZN12FlareManager9AddCameraER6Camera
KP:__ZN11AudioSource8TransferI14SafeBinaryReadEEvRT_
N6b:__ZN4Mesh17SetIndicesComplexEPKvjj16GfxPrimitiveTypei
rAg:_ParameterInfo_GetCustomAttributes_m2985072480
U_e:_Collection_1_Insert_m4010554762_gshared
Lu:__ZN7mecanim9animation23TransformDeltasFromClipEiiiRKNS0_18ClipMuscleConstantERKNS0_12ClipBindingsERKNS_14ValueArrayMaskERN4math4trsXESC_SC_
X4d:_Array_Sort_TisRuntimeObject_m1954851512_gshared
xRj:___divdi3
XJg:_Matrix4x4_GetColumn_m1367096730_AdjustorThunk
hii:_ContextAttribute_GetHashCode_m3646968314
jte:_SimpleCollator_GetSortKey_m540875593
$Vb:__ZN9ShaderLab9IntShader26CreateFromSerializedShaderERKNS_16SerializedShaderERNSt3__26vectorI4PPtrI6ShaderENS4_9allocatorIS8_EEEEbPS7_
RWa:__ZN19ShaderPropertySheet16SetComputeBufferEN9ShaderLab16FastPropertyNameE15ComputeBufferIDNS_8SetFlagsE
LBj:__ZNK15dense_hashtableINSt3__24pairIK10KeyWrapperIPK19Il2CppGenericMethodEP10MethodInfoEES6_N6il2cpp8metadata23Il2CppGenericMethodHashEN14dense_hash_mapIS6_S9_SD_NS6_14EqualsComparerINSC_26Il2CppGenericMethodCompareEEENS0_9allocatorISA_EEE9SelectKeyESH_SJ_E5beginEv
Pu:__ZN7mecanim21CreateFloatValueArrayEPKNS_18ValueArrayConstantERNS_6memory9AllocatorE
rNf:_Thread_GetCachedCurrentCulture_m450033007
m6a:__ZL12CullGroupJobP20CullingGroupsJobDataj
PFj:_GC_remove_dangling_disappearing_links
QX:__ZN11UnityEngine15CloudWebService14RestDownloader9IsAbortedEv
Wx:__ZN7mecanim12statemachine28DestroyStateMachineWorkspaceEPNS0_21StateMachineWorkspaceERNS_6memory9AllocatorE
Pk:_emscripten_glNormalPointer
Anc:__Z30GUIStyle_CUSTOM_SetDefaultFontP12Il2CppObject
fxf:_Interval_t2354235237_marshal_pinvoke_back
qo:FUNCTION_TABLE_f
ep:FUNCTION_TABLE_i
_Od:_Decimal_ToString_m541380585_AdjustorThunk
Kba:__ZN11TypeManager12RegisterTypeERK20TypeRegistrationDesc
Gn:FUNCTION_TABLE_v
Evb:__ZNSt3__26vectorI17BlendShapeChannelNS_9allocatorIS1_EEE8__appendEj
end:_Image_get_preserveAspect_m2161836851
pq:__ZN18StreamedBinaryReadILb0EE21TransferSTLStyleArrayI13dynamic_arrayI8Vector3fLj4EEEEvRT_17TransferMetaFlags
fUa:__ZZ23InitPlayerLoopCallbacksvEN43PostLateUpdateUpdateAllRenderersRegistrator7ForwardEv
iua:__ZN21LightProbeProxyVolume13GetRenderDataER27LightProbeProxyVolumeSample
hLd:_CurrentSystemTimeZone_GetDaylightChanges_m2777828412
Zcj:__ZN6il2cpp2vm7Runtime30CallUnhandledExceptionDelegateEP12Il2CppDomainP14Il2CppDelegateP15Il2CppException
z1i:_Predicate_1_Invoke_m577088274_gshared
BBf:_RemotingProxy_get_TypeName_m1400928020
yyb:__ZN11TimeManager8TransferI24GenerateTypeTreeTransferEEvRT_
ote:_SortKeyBuffer_GetResult_m962852575
Xse:_SimpleCollator_Category_m1504096908
b$i:_DisplayBuffer_Wrap_m137575239
hr:__ZNK11UnityEngine9Animation28GenericAnimationBindingCache10BindCustomERKNS0_14GenericBindingER9TransformRNS0_10BoundCurveE
TTc:__ZN18UnityConnectClient17InitConnectClientEv
Uki:_ArrayReadOnlyList_1_ReadOnlyError_m2158247090_gshared
TMj:_memcmp
rMd:_DateTime_CompareTo_m3372173896
fQg:_Rect_ToString_m2728794442
Fsa:__ZN9Scripting32GetCachedPtrFromScriptingWrapperE18ScriptingObjectPtr
RNc:__ZN2UI29ScheduleUIJobsForInstructionsERNS_7BatchesEjPKNS_13UIInstructionEfjjPNS_13CanvasJobDataE
fN:__ZN5audio5mixer22CreateAudioMixerMemoryERKNS0_18AudioMixerConstantEPN4FMOD6SystemERN7mecanim6memory9AllocatorEib
GCb:__ZL65EmitSerializationCommandsForLinearCollectionOfManagedObjectsFieldRK31TransferFunctionScriptingTraitsRK23TransferArrayField_InfoR20SerializationCommandR32SerializationCommandQueueBuilderRP20AllowNameConversions
ykf:_RSASslSignatureDeformatter_VerifySignature_m3138484348
T0d:_Array_InternalArray__ICollection_CopyTo_TisDecimal_t724701077_m1087621311_gshared
zTg:_Enumerator_System_Collections_IDictionaryEnumerator_get_Value_m2325383168_AdjustorThunk
FJd:_Convert_ToInt64_m4280008532
wfc:__Z28Mesh_CUSTOM_SetTrianglesImplP12Il2CppObjectiP11Il2CppArrayih
xLh:__ZL61RawImage_t2749640213_CustomAttributesCacheGenerator_m_TextureP21CustomAttributesCache
Wya:__ZL20ShaderWarmupFuncImplP6ShaderiPN9ShaderLab4PassERK16ShaderKeywordSetP10DynamicVBOPvR17ShaderPassContext
UXc:_HMAC_set_Key_m1530357889
cJi:_Vector2_get_zero_m3966848876
N6i:__ZN15dense_hashtableI10KeyWrapperIPK17Il2CppGenericInstES4_N6il2cpp8metadata21Il2CppGenericInstHashEN14dense_hash_setIS4_S7_NS4_14EqualsComparerINS6_24Il2CppGenericInstCompareEEENSt3__29allocatorIS4_EEE8IdentityESB_SE_E6insertERKS4_
Ggj:__ZN15dense_hashtableINSt3__24pairIK10KeyWrapperINS1_IPK14Il2CppAssemblyP11Il2CppClassEEEjEES9_17ReflectionMapHashIS8_EN14dense_hash_mapIS9_jSD_NS9_14EqualsComparerINS0_8equal_toIS8_EEEENS0_9allocatorISB_EEE9SelectKeyESI_SK_E3endEv
ITj:dynCall_iiii
_Rh:_Scrollbar_set_numberOfSteps_m579707524
bNj:_fmt_u
WFa:__ZN14DataBufferGLES12RecordUpdateEv
bdi:_ResourceManager__cctor_m2190112652
Zyc:__ZN20TextRenderingPrivate15DynamicFontData28GetFaceForFontRefFromOSFontsERKNS_7FontRefE
Wfc:__Z34MonoBehaviour_CUSTOM_StopCoroutineP12Il2CppObjectP12Il2CppString
tVa:__ZN10systeminfo19IsPlatformWebPlayerE15RuntimePlatform
ayj:__ZN6il2cpp2vm12GenericClass12SetupMethodsEP11Il2CppClass
Vea:__ZNK20LocalFileSystemPosix18GetApplicationPathEv
K$i:_InputBuffer_ReceiveFrameInput_m576052007
dId:_Decimal__ctor_m3876694886
CCb:__ZN9Scripting30IsSystemCollectionsGenericListE17ScriptingClassPtr
_ud:_AttributeUsageAttribute__ctor_m2873156923
hOc:__ZN2UI23InitializeCanvasManagerEv
n9a:__ZN10GameObject16CheckConsistencyEv
B0b:__ZN14RenderSettings15InitializeClassEv
lrf:_AsnEncodedData_set_Oid_m3568255745
Zdc:__Z46Register_UnityEngine_GameObject_get_activeSelfv
mlf:_SslClientStream_OnRemoteCertificateValidation2_m3416857045
NFf:_RuntimeTypeHandle_Equals_m452760426_AdjustorThunk
i7h:_Camera_get_depth_m1329692468
L0b:__ZL19OnLightProbesUpdatev
ivi:_InternalEnumerator_1_System_Collections_IEnumerator_get_Current_m762846484_AdjustorThunk
rNc:__ZN2UI16GetCanvasManagerEv
Alc:__ZNK8GUIStyle20GetCursorStringIndexERK5RectTIfER10GUIContentRK8Vector2f
k7b:__ZN15GUIEventManager8PopEventER10InputEvent
fdc:__Z31RectOffset_Get_Custom_PropRightP12Il2CppObject
ELc:__Z54Register_UnityEngine_TextGenerator_GetVerticesInternalv
oZc:__Z3BoxP11Il2CppClassPv
kUd:_CultureInfo_Clone_m2970753766
Awf:_IntStack_Push_m1259764820
WLa:__ZN21UniformBufferTFMethodD2Ev
lje:_FileStream_InitBuffer_m2153931481
cRf:_Type_MakeGenericType_m2765875033
p9b:__ZL34GetComponentsImplementationRecurseILb1ELi1ELi2EEbR10GameObjectbRK17CompareParametersRK39GetComponentsImplementation_ReturnValue
tpa:__ZN6prcoreL12RemapGenericI15TexFormatRGB56515TexFormatRGB888EEvPKNS_9InnerInfoE
_pd:_InputField_OnEndDrag_m1818224847
G9d:_NumberFormatter_GetInstance_m2421260460
uPc:__Z41CanvasGroup_Get_Custom_PropBlocksRaycastsP12Il2CppObject
uSb:__ZNSt3__26vectorIN9ShaderLab26SerializedShaderDependencyENS_9allocatorIS2_EEE8__appendEj
Epi:_InternalEnumerator_1_System_Collections_IEnumerator_get_Current_m4242639349_gshared
D6:__ZN32TransformHierarchyChangeDispatch26DispatchSelfAndAllChildrenE15TransformAccessNS_12InterestTypeE
sJf:_UTF32Encoding__ctor_m3199945978
i8:__ZN13RuntimeStaticI22VirtualJoystickManagerLb0EE13StaticDestroyEPv
aK:__ZN13AudioListener12ApplyFiltersEv
N8h:_CanvasRenderer_set_cull_m1437892490
E2h:_AnimatorControllerPlayable_PlayInFixedTime_m3726932292_AdjustorThunk
Jce:_SortKey_GetHashCode_m2534654444
mVd:_Array_InternalArray__ICollection_Contains_TisInt64_t909078037_m1425723755_gshared
_hf:_HandshakeMessage_Update_m1733566706
FTj:dynCall_viiif
mKj:__ZN6il2cpp8metadata27Il2CppGenericContextCompare7CompareEPK20Il2CppGenericContextS4_
KSj:dynCall_viiii
GAd:_ArrayListWrapper_ToArray_m235921330
Gbf:_ARC4Managed_set_Key_m663161993
_wg:_MemberInfoSerializationHolder_Serialize_m4243060728
dQh:_MaskableGraphic_OnDisable_m2605143092
Lfj:__ZNSt3__214__split_bufferIN6il2cpp2vm17TypeNameParseInfoERNS_9allocatorIS3_EEED2Ev
VQf:_Type_GetConstructor_m663514781
hge:_Int64_System_IConvertible_ToDouble_m638786774_AdjustorThunk
Ecg:__Z98RuntimeInvoker_Void_t1841601450_Rect_t3681755626_RuntimeObject_Int32_t2071877448_Int32_t2071877448PFvvEPK10MethodInfoPvPS4_
_aa:__ZN15DirectorManager14ConnectionPool16GrowEmptyBucketsEv
Ree:_Int16_ToString_m1247017262
J2:__ZN17PersistentManager32CopyToAwakeFromLoadQueueInternalER18AwakeFromLoadQueue
HPd:_Delegate_Combine_m1976351882
z$a:__ZNK6Camera16SetActiveVRUsageEv
OSf:_UInt32_System_IConvertible_ToUInt16_m2798641702
$Wj:_emscripten_glDrawElementsInstanced__wrapper
fU:__ZN13PlayableGraph12CreateOutputI19AudioPlayableOutputEEPT_PKc
UJi:_Texture_Internal_GetWidth_m56137242
wtc:__ZL26Transfer_SimpleNativeClassI8JSONRead8GradientLb1EEvRK29SerializationCommandArgumentsR31RuntimeSerializationCommandInfo
vNj:_open
jId:_Decimal_ThrowInvalidExp_m3430267638
Mpj:__ZN6il2cpp6icalls8mscorlib6System5Array5CloneEP11Il2CppArray
nbb:__Z30GetPlayerShouldRunInBackgroundv
pT:__ZNK17AudioClipPlayable13GetStartDelayEv
Zui:_InternalEnumerator_1_get_Current_m2986222582_gshared
LUf:_UnitySerializationHolder__ctor_m2832165173
OKf:_UnicodeEncoding_GetBytes_m4175529985
DOc:__Z13RegisterClassIN2UI6CanvasEEvv
jSh:_Selectable_OnDisable_m2660228016
npa:__ZN6prcoreL12RemapGenericI11TexFormatI815TexFormatRGB565EEvPKNS_9InnerInfoE
O$:__ZN13RuntimeStaticINSt3__23setI19RepeatingLogMessageNS0_4lessIS2_EE13stl_allocatorIS2_L18MemLabelIdentifier71ELi16EEEELb0EE13StaticDestroyEPv
F4f:__Z75RuntimeInvoker_DateTime_t693205669_DateTime_t693205669_TimeSpan_t3430258949PFvvEPK10MethodInfoPvPS4_
Zza:__ZNK13TranslateGLES17FramebufferTargetEN2gl17FramebufferTargetE
EAj:__ZL11on_gc_event11GCEventType
Goj:__ZNSt3__214__split_bufferIN6il2cpp8metadata18GenericArrayMethodERNS_9allocatorIS3_EEED2Ev
m4c:_Single_System_IConvertible_ToBoolean_m2661548087_AdjustorThunk
nIf:_DSASignatureDeformatter_VerifySignature_m4078616251
NVj:b62
MVj:b61
LVj:b60
bXj:b67
W_d:_Array_InternalArray__IndexOf_TisUInt16_t986882611_m390127593_gshared
god:_InputField_set_shouldHideMobileInput_m2478534110
PVj:b64
_6c:_String_Concat_m3881798623
eXj:b68
Ftg:_FieldBuilder_IsDefined_m2730324893
Ylh:__ZL56FlagsAttribute_t859561169_CustomAttributesCacheGeneratorP21CustomAttributesCache
R7f:__Z102RuntimeInvoker_RuntimeObject_RuntimeObject_RuntimeObject_Int32_t2071877448_RuntimeObject_RuntimeObjectPFvvEPK10MethodInfoPvPS4_
c1h:_AnimatorControllerPlayable_SetLayerWeight_m3897438650
n8e:_ReadOnlyCollection_1_System_Collections_IList_Insert_m571902768_gshared
W2f:__Z93RuntimeInvoker_Single_t2076509932_SingleU26_t4173844468_Single_t2076509932_Single_t2076509932PFvvEPK10MethodInfoPvPS4_
MSj:dynCall_iifffi
B7b:__Z9SetIIMGUIP6IIMGUI
PEd:_SyncHashtable_ContainsKey_m3408601214
NDc:_tt_cmap10_get_info
Oga:__Z28SetupPixelCorrectCoordinatesi
znd:_Image_set_material_m982841032
zFa:__Z5SplitRKN4core12basic_stringIcNS_20StringStorageDefaultIcEEEEcRNSt3__26vectorIS3_NS6_9allocatorIS3_EEEEi
mCi:_RegularExpression_Compile_m3944989565
_2i:__ZN6il2cpp2vmL10InitLockedEP11Il2CppClassRKNS_2os12FastAutoLockE
X5a:__ZN15LODGroupManager26CollectAllLODGroupManagersEPK6CameraR13dynamic_arrayIPS_Lj4EEb
v3:__ZN17ScriptingGCHandle28ResolveBackendNativeGCHandleEj
j0g:_DefaultComparer_Equals_m524689061_gshared
J4b:__ZN13PlayableGraph16DestroyRecursiveEP8Playable
uQd:_Double_System_IConvertible_ToType_m4036266196_AdjustorThunk
hK:__ZN12AudioManagerD0Ev
$Mj:___fwritex
_b:invoke_viiififii
hke:_Stream_EndRead_m2148943753
FAb:__ZNK22GenericPropertyBinding13SetFloatValueERKN11UnityEngine9Animation10BoundCurveEf
s0b:__ZN6ShaderC2E18MemLabelIdentifier18ObjectCreationMode
DZh:_AnimationClipPlayable_INTERNAL_CALL_SetRemoveStartOffsetInternal_m4218625892
WAc:_raccess_guess_darwin_ufs_export
yTa:__ZN11TypeManager18InitializeAllTypesEv
rI:__ZN9AudioClipD0Ev
pRg:_Renderer_get_sortingOrder_m1544525007
udj:_il2cpp_class_from_name
gWd:_Array_InternalArray__ICollection_Remove_TisKeyValuePair_2_t38854645_m3060436673_gshared
RLe:_List_1_Find_m3480386930_gshared
X1g:_EqualityComparer_1__cctor_m51007461_gshared
vw:__ZN27AnimationLayerMixerPlayable26ProcessAnimationLayerBeginEP35AnimationPlayableEvaluationConstantP32AnimationPlayableEvaluationInputP33AnimationPlayableEvaluationOutput
XZb:__Z13RegisterClassI8GUILayerEvv
Ofb:__ZN25ThreadsafeLinearAllocatorC2EiiPKc
Jte:_SimpleCollator_IsSuffix_m740049399
RJa:__ZN14GfxContextGLES11MakeCurrentER7ApiGLESN2gl13ContextHandleE
SEi:_PKCS12__cctor_m3312759338
mJc:_UNITY_tt_glyphzone_new
igf:_RecordProtocol_BeginSendRecord_m166940611
Tpe:_ShortComparer_Compare_m1398180168
uHi:_Screen_get_width_m41137238
KLg:_Object_Internal_InstantiateSingleWithParent_m509082884
Pya:__ZN16GraphicsSettings22WarmupPreloadedShadersEv
HQc:__Z34Canvas_Set_Custom_PropSortingOrderP12Il2CppObjecti
ule:_MonoIO_get_ConsoleError_m592181393
O1i:__ZL11decimalLog2P19il2cpp_decimal_repr
Jkf:_SslCipherSuite_prf_m2084589217
db:invoke_iiiiiiffiiiiiiiiiffffiii
dMc:__ZN2UI6Canvas8TransferI14SafeBinaryReadEEvRT_
eai:_Coroutine_Finalize_m3953619693
pdg:__Z51RuntimeInvoker_Color32_t874517518_Color_t2020392075PFvvEPK10MethodInfoPvPS4_
oMi:_Vector2_op_Division_m96580069
WU:__ZN11UnityEngine15CloudWebService17CloudJobScheduler11ScheduleJobEPFvPvES2_
CGh:__ZL57CSSMeasureFunc_t2092170507_CustomAttributesCacheGeneratorP21CustomAttributesCache
yde:_Guid_Equals_m2389236871_AdjustorThunk
dW:__ZN11UnityEngine15CloudWebService17CloudServiceEvent12ToJsonStringER9JSONWrite
I8:__ZNK18VertexChannelsInfoltERKS_
fih:__ZL93ASCIIEncoding_t3022927988_CustomAttributesCacheGenerator_ASCIIEncoding_GetDecoder_m3693600923P21CustomAttributesCache
f8b:__Z18SetTargetFrameRatei
mpc:__ZN9JSONWrite8TransferIfEEvRT_PKc17TransferMetaFlags
mhd:_ContentSizeFitter_SetLayoutHorizontal_m2830034151
VQa:__ZN10MemoryFileD0Ev
a5b:__ZN10MonoScript27InitializeAndRegisterScriptERKN4core12basic_stringIcNS0_20StringStorageDefaultIcEEEES6_S6_S6_b
AHf:_DES_set_Key_m2689203108
bVa:__Z23DrawSplashAndWatermarksv
xmi:_InternalEnumerator_1_get_Current_m1526874475_gshared
s8d:_Array_InternalArray__get_Item_TisWorkRequest_t1154022482_m2456727038_gshared
iEi:_SubjectAltNameExtension_ToString_m1300810903
ize:_RSAManaged_ImportParameters_m2382611442
dGb:__ZN13GUIStyleState8TransferI14SafeBinaryReadEEvRT_
Lwi:_Comparer_1_System_Collections_IComparer_Compare_m2490067344_gshared
syi:_PatternCompiler_EmitSet_m866698437
Ud:_glDrawArrays
gmd:_GridLayoutGroup_set_startCorner_m1660251450
Uoi:_InternalEnumerator_1_System_Collections_IEnumerator_get_Current_m127456009_AdjustorThunk
cWi:_HashSet_1_System_Collections_Generic_ICollectionU3CTU3E_CopyTo_m1933244740_gshared
Kih:__ZL54UTF8Encoding_t111055448_CustomAttributesCacheGeneratorP21CustomAttributesCache
CD:__ZN23AnimatedPropertyBuilder5BuildEP13AnimationClip18ScriptingObjectPtr
f6b:__Z17InstantiateObjectR6ObjectR9TransformRK8Vector3fRK11Quaternionf
Ofe:_Int32_TryParse_m656840904
$Vd:_Array_InternalArray__ICollection_Remove_TisChar_t3454481338_m1562002771_gshared
dge:_Int64_System_IConvertible_ToDateTime_m1002280174_AdjustorThunk
Tvb:__ZN14BlendShapeData8TransferI18StreamedBinaryReadILb0EEEEvRT_
KLj:__ZN6il2cpp6icalls8mscorlib6System7Runtime8Remoting7Proxies9RealProxy20InternalGetProxyTypeEP12Il2CppObject
tXa:__ZN13sorted_vectorINSt3__24pairIiN17InstancedPropInfo12PropertyTypeEEEN10vector_mapIiS3_NS0_4lessIiEE13stl_allocatorIS4_L18MemLabelIdentifier1ELi16EEE13value_compareESA_E21sort_clear_duplicatesEv
AJc:_Round_To_Grid
fzc:_UNITY_FT_Stream_Close
Cca:__ZL20FormatOrderedProcessPKcP17FormatOrderedDataPc
Bvc:__ZN9rapidjson6WriterI16TempBufferWriterNS_4UTF8IcEES3_13JSONAllocatorE9WriteBoolEb
Tcc:__Z35DebugLogHandler_CUSTOM_Internal_Log7LogTypeP12Il2CppStringP12Il2CppObject
_Wj:_emscripten_glShaderBinary__wrapper
VIa:__ZL17ProgramUniform3ivPK7ApiGLESjiihPKv
UBa:__ZN9GfxDevice25GetBackBufferColorSurfaceEv
lRa:__ZN25SingleBlockMemoryFileData9SetLengthEy
K5b:__Z29AwakeAndActivateClonedObjectsPP6ObjectRK10vector_mapIiiNSt3__24lessIiEE13stl_allocatorINS3_4pairIiiEEL18MemLabelIdentifier1ELi16EEE
Amj:__ZN15dense_hashtableINSt3__24pairIK10KeyWrapperINS1_IPK10MethodInfoP11Il2CppClassEEEjEES9_17ReflectionMapHashIS8_EN14dense_hash_mapIS9_jSD_NS9_14EqualsComparerINS0_8equal_toIS8_EEEENS0_9allocatorISB_EEE9SelectKeyESI_SK_E14squash_deletedEv
heg:__Z55RuntimeInvoker_Void_t1841601450_RaycastResult_t21186376PFvvEPK10MethodInfoPvPS4_
m_b:__Z13RegisterClassI6ShaderEvv
qee:_Int16_System_IConvertible_ToUInt32_m883204517
vdi:_ResourceCacheItem_t333236149_marshal_pinvoke_cleanup
cIe:_List_1_CheckMatch_m1196994270_gshared
$$:__ZN13RuntimeStaticI11WindManagerLb0EE13StaticDestroyEPv
MKd:_Convert_ToUInt64_m3559662221
brc:__Z18Transfer_BlittableI9JSONWriteLb1EaEvRK29SerializationCommandArgumentsR31RuntimeSerializationCommandInfo
vmj:__ZN13Il2CppHashMapINSt3__24pairIPK10MethodInfoP11Il2CppClassEEj17ReflectionMapHashIS7_ENS0_8equal_toIS7_EENS0_9allocatorINS1_IK10KeyWrapperIS7_EjEEEEEC2EjRKS9_RKSB_
vzd:_ArrayList_set_Item_m1858827078
Vua:__ZN9Texture3D23VirtualRedirectTransferER19StreamedBinaryWriteILb0EE
Ubf:_HMAC__ctor_m2605930831
KR:__Z13RegisterClassI10SampleClipEvv
v2a:__ZNK23ForwardShaderRenderLoop18RenderObjectSorterILb1EEclERK21ForwardRenderPassDataS4_
RT:__Z76Register_UnityEngine_Audio_AudioClipPlayable_INTERNAL_CALL_GetLoopedInternalv
n8i:__ZN15dense_hashtableI10KeyWrapperIPK19Il2CppGenericMethodES4_N6il2cpp8metadata23Il2CppGenericMethodHashEN14dense_hash_setIS4_S7_NS4_14EqualsComparerINS6_26Il2CppGenericMethodCompareEEENSt3__29allocatorIS4_EEE8IdentityESB_SE_E12maybe_shrinkEv
LMa:__ZN10BufferGLES10BeginWriteEjj
m8i:__ZNK15dense_hashtableI10KeyWrapperIPK19Il2CppGenericMethodES4_N6il2cpp8metadata23Il2CppGenericMethodHashEN14dense_hash_setIS4_S7_NS4_14EqualsComparerINS6_26Il2CppGenericMethodCompareEEENSt3__29allocatorIS4_EEE8IdentityESB_SE_E12test_deletedEj
NA:__ZN7mecanim12statemachine18StateMachineMemory8TransferI9BlobWriteEEvRT_
unj:__GLOBAL__sub_I_ArrayMetadata_cpp
lTf:_UInt64_System_IConvertible_ToByte_m953298241
KMa:__ZN7ApiGLES11FlushBufferEjN2gl12BufferTargetEll
VKd:_Convert_ToUInt64_m1896191125
YGb:__ZN14SafeBinaryRead21TransferSTLStyleArrayI13dynamic_arrayI8BitFieldLj4EEEEvRT_17TransferMetaFlags
gKa:__ZN12_GLOBAL__N_127PrepareReadback_ResolveMSAAER18GfxFramebufferGLESR7ApiGLESP17RenderSurfaceGLESS5_
Nsg:_EnumBuilder_GetAttributeFlagsImpl_m4263246832
wqg:_CustomAttributeData_GetHashCode_m3989739430
pXh:_Text_AssignDefaultFont_m1295571657
f2b:__ZNK24RendererAnimationBinding9BindValueER6ObjectRKN11UnityEngine9Animation14GenericBindingERNS3_10BoundCurveE
Te:_glBindBuffer
PQb:__ZN8GUIStyle8TransferI18StreamedBinaryReadILb0EEEEvRT_
o9:__ZNSt3__213__stable_sortIRN10vector_mapIijNS_4lessIiEENS_9allocatorINS_4pairIijEEEEE13value_compareENS_11__wrap_iterIPS6_EEEEvT0_SE_T_NS_15iterator_traitsISE_E15difference_typeEPNSH_10value_typeEi
U3h:_Application_get_platform_m3989224144
X$d:_Array_InternalArray__ICollection_Add_TisCustomAttributeNamedArgument_t94157543_m1003067274_gshared
Jgc:__ZN13PlayableGraph12CreateOutputI20ScriptPlayableOutputEEPT_PKc
DXb:__ZNSt3__218__insertion_sort_3IRNS_6__lessIN4core12basic_stringIcNS2_20StringStorageDefaultIcEEEES6_EEPS6_EEvT0_SA_T_
FFe:_Enumerator_System_Collections_IEnumerator_Reset_m925111644_gshared
xta:__ZN18LoadSceneOperation13CleanupMemoryEv
GMj:_isupper
C8f:__Z93RuntimeInvoker_Vector3_t2243707580_Vector3_t2243707580_Vector3_t2243707580_Single_t2076509932PFvvEPK10MethodInfoPvPS4_
yeg:__Z57RuntimeInvoker_Boolean_t3825574718_ColorBlock_t2652774230PFvvEPK10MethodInfoPvPS4_
QIf:_Encoding_set_DecoderFallback_m2255528738
$ma:__ZNSt3__26__treeINS_12__value_typeIN9ShaderLab16FastPropertyNameEN18UnityPropertySheet11UnityTexEnvEEENS_19__map_value_compareIS3_S6_NS_4lessIS3_EELb1EEENS_9allocatorIS6_EEE7destroyEPNS_11__tree_nodeIS6_PvEE
Plf:_InternalAsyncResult_get_IsCompleted_m1463732458
y9i:__ZN6il2cpp2vm13MetadataCache24GetExportedTypeFromIndexEi
QQ:__ZN18AudioMixerPlayable18InsertFMODResourceEPN4FMOD6SystemE
kPj:_getuid
Imd:_HorizontalLayoutGroup_CalculateLayoutInputVertical_m3516192138
gE:__ZN7mecanim5human8BoneNameEj
B_b:__Z13RegisterClassI10MonoScriptEvv
jye:_AttrListImpl__ctor_m3211398293
HB:__ZN13dynamic_arrayIN8Animator11AnimatorJobELj4EE9push_backERKS1_
Fxc:__ZN20TextRenderingPrivate8FontImpl8TransferI18StreamedBinaryReadILb0EEEEvRT_
kKf:_StringBuilder_get_Chars_m256627635
dbj:__ZN6il2cpp6icalls8mscorlib6System8MonoType22get_IsGenericParameterEP20Il2CppReflectionType
au:__ZN7mecanim5human14HumanPoseClearERNS0_9HumanPoseE
tie:_MonoIO_GetException_m957022672
Ina:__ZN18StreamedBinaryReadILb0EE19TransferSTLStyleMapINSt3__23mapIN9ShaderLab16FastPropertyNameE10ColorRGBAfNS2_4lessIS5_EENS2_9allocatorINS2_4pairIKS5_S6_EEEEEEEEvRT_17TransferMetaFlags
Nsf:_X509Certificate2_GetValueAsString_m1286925493
sPh:_Mask__ctor_m1716732261
Xyd:_Char_ToLower_m2719897546
D3d:_Array_InternalArray__set_Item_TisHitInfo_t1761367055_m2693590376_gshared
qH:__Z105Register_UnityEngine_Animations_AnimatorControllerPlayable_INTERNAL_CALL_GetNextAnimatorStateInfoInternalv
rqe:_MonoType_IsPointerImpl_m648213545
fbe:_InvalidOperationException__ctor_m2801133788
fbb:__ZN13RenderManager28AreCamerasUsingMotionVectorsEv
t8:__Z25InitializeLODGroupManagerPv
Zfd:_CanvasScaler_SetScaleFactor_m3305903109
m0d:_Array_InternalArray__ICollection_Add_TisUriScheme_t1876590943_m3218110478_gshared
fYa:__ZNK12ImageFilters28ApplyAfterTransparentFiltersEv
O1h:_AnimatorControllerPlayable_IsInTransitionInternal_m3924673941
q1a:__Z20CalculateLightMatrixRK15SharedLightDataP10Matrix4x4f
rTc:__ZN11UnityEngine7Connect15AppRunningEvent12ToJsonStringER9JSONWrite
g0:__ZN19ShaderPropertySheet5ClearEb
Kif:_TlsServerCertificate_ProcessAsTls1_m3083203628
l4e:_ReadOnlyCollection_1_System_Collections_Generic_IListU3CTU3E_set_Item_m1099846173_gshared
j0a:__ZNK6Camera11GetPositionEv
Es:__ZN8Animator19CreatePlayableGraphEv
G_j:_emscripten_glClearDepth__wrapper
WJd:_Convert_ToSByte_m1880147062
qeb:__ZNK16MemoryFileSystem8FilenameERK13FileEntryData
Xf:_glUniform1fv
$f:_JS_FileSystem_Sync
UYc:_MD5CryptoServiceProvider_HashCore_m2367253552
IEa:__ZNSt3__26__treeINS_12__value_typeI21GLESRenderTargetSetupN2gl6HandleILNS3_10ObjectTypeE9EEEEENS_19__map_value_compareIS2_S7_NS_4lessIS2_EELb1EEENS_9allocatorIS7_EEE7destroyEPNS_11__tree_nodeIS7_PvEE
fGi:_X509StoreManager_get_TrustedRootCertificates_m122138510
zPi:_UnityAction_1_BeginInvoke_m530778538_gshared
QJc:_Direct_Move
Zf:__emscripten_sample_gamepad_data
N$b:__Z22DelayedDestroyCallbackP6ObjectPv
_Vc:__ZN20UnityWebRequestProtoI19TransportJavaScript16AtomicRefCounter14RedirectHelper14ResponseHelper15DownloadHandler13UploadHandler12HeaderHelper14AsyncOperationE19Job_InvokeCoroutineEPS7_
mFg:_GUISkin_GetStyle_m3594137272
cmd:_GraphicRegistry__cctor_m4197769737
G4:__Z34scripting_class_get_declaring_type17ScriptingClassPtr
JTc:__ZN11UnityEngine7Connect20BasePersistentValues13RestoreValuesER8JSONRead
dKi:_Time_get_time_m2216684562
ndf:_KeyGeneratedEventHandler_Invoke_m1298576133
xqd:_InputField_Rebuild_m3481959062
nyb:__ZN11TimeManagerD0Ev
SX:__ZN11UnityEngine15CloudWebService18RestFileDownloader10InitializeERKN4core12basic_stringIcNS2_20StringStorageDefaultIcEEEE
jpb:__ZN9Texture2D16DeleteGfxTextureEv
iea:__ZN20LocalFileSystemPosix4OpenER13FileEntryData14FilePermission16FileAutoBehavior
Obf:_KeyBuilder_get_Rng_m2539978716
z5h:_AudioClipPlayable_INTERNAL_CALL_ValidateType_m1977251214
w7i:__ZN15dense_hashtableINSt3__24pairIK10KeyWrapperIN6il2cpp5utils13dynamic_arrayIPK10Il2CppTypeLj4EEEEPFvvEEESA_NS3_8metadata19Il2CppSignatureHashEN14dense_hash_mapISA_SD_SG_NSA_14EqualsComparerINSF_22Il2CppSignatureCompareEEENS0_9allocatorISE_EEE9SelectKeyESK_SM_ED2Ev
ULc:__ZN2UI6Canvas12AddToManagerEv
ECc:_UNITY_tt_face_load_sbit
p5b:__Z37GetTransformFromComponentOrGameObjectP6Object
aUg:_ShimEnumerator_get_Current_m2516732679_gshared
uHc:_cf2_hint_isTop
e9a:__ZN23ManagedAttributeManager21GetRequiredComponentsE17ScriptingClassPtr
pAa:__ZN9GfxDevice18GetNumGraphicsJobsEj
Zbb:__Z23InitializeStdConvertersv
YXe:_Collection_1_Contains_m3292349561_gshared
Dnd:_Image_SetNativeSize_m3580044470
s1a:__ZN19ShaderPropertySheet17UpdateTextureInfoEiRK23FastTexturePropertyNamePK10TextureRef
PJi:_TextGenerator_get_lines_m916366224
LFc:_ps_unicodes_init
_Ta:__ZZ23InitPlayerLoopCallbacksvEN38PreUpdateCheckTexFieldInputRegistrator7ForwardEv
suj:__ZNK10KeyWrapperINSt3__24pairIPKcS3_EEE14EqualsComparerI26NamespaceAndNamePairEqualsEclERKS5_SA_
iQd:_StackTrace__ctor_m772333217
F4c:_Single_System_IConvertible_ToSingle_m2540530435
GAe:_X509CertificateEnumerator__ctor_m1500464146
iQf:_Type_get_IsPointer_m3832342327
Drj:__ZN6il2cpp2vm9Exception27GetExecutionEngineExceptionEPKc
KZg:_Dictionary_2_System_Collections_ICollection_CopyTo_m2784181332_gshared
lh:_JS_WebRequest_GetResponseHeaders
Ldb:__ZNSt3__26__treeINS_12__value_typeI26SerializedObjectIdentifieriEENS_19__map_value_compareIS2_S3_NS_4lessIS2_EELb1EEENS_9allocatorIS3_EEE7destroyEPNS_11__tree_nodeIS3_PvEE
cCc:_UNITY_FT_Create_Class_tt_cmap_classes
Sgj:__ZN15dense_hashtableINSt3__24pairIK10KeyWrapperINS1_IPK14Il2CppAssemblyP11Il2CppClassEEEjEES9_17ReflectionMapHashIS8_EN14dense_hash_mapIS9_jSD_NS9_14EqualsComparerINS0_8equal_toIS8_EEEENS0_9allocatorISB_EEE9SelectKeyESI_SK_EC2ERKSN_j
W9b:__ZN9Scripting18RaiseNullExceptionEPKcz
t4e:_ReadOnlyCollection_1_System_Collections_IList_Insert_m2659121605_gshared
kba:__ZN13RuntimeStaticI13RendererSceneLb0EE16StaticInitializeEPv
sXf:__Z46RuntimeInvoker_RuntimeObject_Int32_t2071877448PFvvEPK10MethodInfoPvPS4_
bRh:_RawImage_SetNativeSize_m672994452
wh:_glCreateProgram
alj:__ZN6il2cpp2vm10Reflection7IsFieldEP12Il2CppObject
y1d:_Array_InternalArray__ICollection_CopyTo_TisContentType_t1028629049_m330597634_gshared
cBd:_SimpleEnumerator_Reset_m3524591211
lMi:_Vector2_op_Addition_m1389598521
cTf:_UInt32_ToString_m554020223_AdjustorThunk
Wib:__ZN24GenerateTypeTreeTransfer32TransferSTLStyleArrayWithElementI17SortingLayerEntryEEvRT_17TransferMetaFlags
eWj:_glUniformMatrix3fv__wrapper
Nkb:__ZN5Light9SetupHaloEv
ONb:__Z18Transfer_BlittableI18StreamedBinaryReadILb1EELb1E12PropertyNameEvRK29SerializationCommandArgumentsR31RuntimeSerializationCommandInfo
Y3c:_SecurityFrame__ctor_m3738328608_AdjustorThunk
Xlj:__ZN15dense_hashtableINSt3__24pairIK10KeyWrapperIPK22Il2CppGenericParameterEPK24MonoGenericParameterInfoEES6_N6il2cpp5utils11PointerHashIS4_EEN14dense_hash_mapIS6_SA_SF_NS6_14EqualsComparerINS0_8equal_toIS5_EEEENS0_9allocatorISB_EEE9SelectKeyESK_SM_EC2ERKSP_j
U$:__ZN23TransformChangeDispatch12CleanupClassEPv
A8b:__ZN8UserList11SendMessageERK17MessageIdentifier
yQc:__Z33Canvas_Get_Custom_PropScaleFactorP12Il2CppObject
eC:__ZNK26AnimatorControllerPlayable21GetStateMachineMemoryEi
y7:__ZNSt3__26__treeINS_12__value_typeI18UnityInterfaceGUIDP15IUnityInterfaceEENS_19__map_value_compareIS2_S5_NS_4lessIS2_EELb1EEE13stl_allocatorIS5_L18MemLabelIdentifier6ELi16EEE7destroyEPNS_11__tree_nodeIS5_PvEE
K2c:_EvidenceEnumerator_get_Current_m632582639
L4a:__Z15CullLocalLightsR8JobFenceS0_RK22SceneCullingParametersiPK8Vector4fRK13dynamic_arrayIhLj1EER9IndexListSC_PfP5RectTIfEP13TargetEyeMaskPPK5LightRK14ShadowCullData
n8c:_DecoderFallback_get_ReplacementFallback_m2155645318
uka:__ZNK6Camera16GetTargetTextureEv
ZHd:_Convert_ToDateTime_m3528521877
qGb:__Z35Transfer_Blittable_SingleValueFieldI14SafeBinaryReadyEvRT_R17GeneralMonoObjectRK23StaticTransferFieldInfo
hnb:__ZN8Playable20ClearInputConnectionEi
$Za:__ZN13BatchRenderer12EndLoopFlushEv
uRd:_Enum_System_IConvertible_ToChar_m1838232954
zTd:_CultureInfo_CreateTextInfo_m2269397562
vtd:_Array_SetValue_m2469980129
HZh:_AnimationLayerMixerPlayable__ctor_m114206992_AdjustorThunk
a7b:__ZNK6Sprite11GetInnerUVsE20SpriteRenderDataMode
KC:__ZN11UnityEngine9Animation28DestroyAvatarBindingConstantEPNS0_21AvatarBindingConstantERN7mecanim6memory9AllocatorE
UKb:__Z29Transfer_Blittable_ArrayFieldI24GenerateTypeTreeTransfer11ColorRGBA32EvRT_R9ArrayInfoRK23StaticTransferFieldInfo
G8h:_CanvasRenderer_SplitUIVertexStreams_m3738089052
A$b:__ZN16MessageForwarder23RegisterMessageCallbackEiPFvPviR11MessageDataEPKN5Unity4TypeE
bfj:__ZN6il2cpp2os4File9SetLengthEPNS0_10FileHandleExPi
fi:_gmtime
mi:_emscripten_glUniform3i
YEa:__ZNK7ApiGLES10GetContextEv
y4c:_Single_System_IConvertible_ToInt16_m962677079_AdjustorThunk
cFb:__Z18Transfer_BlittableI14SafeBinaryReadLb1E5RectTIfEEvRK29SerializationCommandArgumentsR31RuntimeSerializationCommandInfo
Wta:__ZN15TextureSettings14SetAnisoLimitsEii
NKb:__Z19TransferField_ArrayI24GenerateTypeTreeTransfer27Converter_SimpleNativeClassI10RectOffsetEEvRK23StaticTransferFieldInfoR31RuntimeSerializationCommandInfoRT0_
Lqa:__ZN6prcoreL17RemapGenericFloatI18TexFormatARGBFloat15TexFormatRGHalfEEvPKNS_9InnerInfoE
zMi:_Vector3__ctor_m2720820983
MKg:_Mesh_CheckCanAccessSubmeshIndices_m2098382465
V1c:_String_memcpy2_m2338403668
Gli:_InternalEnumerator_1_get_Current_m4154615771_AdjustorThunk
FZ:__GLOBAL__sub_I_runtime_graphics_lod_lump_cpp
Y2d:_Array_InternalArray__set_Item_TisDateTime_t693205669_m197118909_gshared
Evg:_ModuleBuilder_GetToken_m4190668737
a0j:_emscripten_glIsProgram__wrapper
s2b:__ZL22PrepareMeshRenderNodesILb1EEvR35RenderNodeQueuePrepareThreadContext
qfj:__ZN6il2cpp2vm14TypeNameParser25ConsumeAssemblyIdentifierEv
Sea:__ZN20LocalFileSystemPosix5TouchER13FileEntryData
nsc:__ZN9JSONWrite8TransferI13dynamic_arrayItLj2EEEEvRT_PKc17TransferMetaFlags
FMf:_NativeEventCalls_SetEvent_internal_m2449488771
Ci:_emscripten_glDrawElements
c$c:_RSAPKCS1SignatureDeformatter_SetHashAlgorithm_m894366837
DAe:_X509Certificate_get_DSA_m3959895595
FJg:_Mathf_Round_m227387340
Svd:_Boolean_System_IConvertible_ToDouble_m624978277
jPd:_Delegate_get_Method_m2968370506
nfd:_Button__ctor_m975719067
KLi:_UnityException__ctor_m3650417185
Uzg:_MonoProperty_GetValue_m2150318626
cPf:_TimeSpan_CompareTo_m2891128664
jA:__ZN9BlobWriteD2Ev
jFi:_PKCS12_AddCertificate_m3637520737
nFb:__ZL26Transfer_SimpleNativeClassI14SafeBinaryRead8GradientLb0EEvRK29SerializationCommandArgumentsR31RuntimeSerializationCommandInfo
o$j:_emscripten_glClientActiveTexture__wrapper
K8i:__ZNK15dense_hashtableI10KeyWrapperIPK17Il2CppGenericInstES4_N6il2cpp8metadata21Il2CppGenericInstHashEN14dense_hash_setIS4_S7_NS4_14EqualsComparerINS6_24Il2CppGenericInstCompareEEENSt3__29allocatorIS4_EEE8IdentityESB_SE_E4findERKS4_
c5f:__Z71RuntimeInvoker_Double_t4078015681_Double_t4078015681_Double_t4078015681PFvvEPK10MethodInfoPvPS4_
pve:_PrimalityTests_RabinMillerTest_m1376858197
jYc:_HMACSHA1__ctor_m2027292306
wHf:_DES_Create_m2705450713
YFi:_X509CertificateCollection_Remove_m2722259192
T_d:_Array_InternalArray__IndexOf_TisSingle_t2076509932_m2151846718_gshared
Dia:__ZN13RenderTexture23VirtualRedirectTransferER18StreamedBinaryReadILb0EE
tih:__ZL56StringBuilder_t1221177846_CustomAttributesCacheGeneratorP21CustomAttributesCache
$9d:_NumberFormatter_FormatHexadecimal_m1317851390
cDc:_UNITY_tt_face_lookup_table
Qtf:_X509Certificate2Collection_AddRange_m1503879780
lLa:__Z17ComputeMipmapSizeiii14GraphicsFormat
pje:_StreamReader__ctor_m871771009
gHc:_cf2_stack_pushFixed
KHa:__ZN4crnd12crn_unpacker12unpack_dxt5aEPPhjjjjjj
GAi:_AnchorInfo_get_Length_m1721106162
mLi:_Transform_get_childCount_m881385315
IBf:_RemotingConfiguration_RegisterActivatedClientType_m2207611714
X4h:_AudioClipPlayable_GetClip_m1256087835_AdjustorThunk
nBg:_GameObject_GetComponentInChildren_m4263325740
tVg:_Transform_1_Invoke_m1224512163_gshared
oKj:__ZN6il2cpp2os5Mutex4LockEb
Zld:_GraphicRaycaster_Raycast_m3351280444
nPb:__Z29Transfer_Blittable_ArrayFieldI18StreamedBinaryReadILb1EE8Vector2fEvRT_R9ArrayInfoRK23StaticTransferFieldInfo
Xag:__Z81RuntimeInvoker_Void_t1841601450_PlayableHandleU26_t4210769902_Vector3_t2243707580PFvvEPK10MethodInfoPvPS4_
RPc:__Z50CanvasRenderer_CUSTOM_CreateUIVertexStreamInternalP12Il2CppObjectS0_S0_S0_S0_S0_S0_S0_S0_S0_
daa:__ZN14PlayableOutput15PrepareTraverseERK9FrameData
jsj:__ZN6il2cpp2vm13LivenessState25FieldCanContainReferencesEP9FieldInfo
BRb:__ZL19RequireCorLibMethodPKcS0_S0_
VKg:_MonoBehaviour_IsInvoking_m1469271462
Fvb:__ZN15SerializeTraitsI13dynamic_arrayI10BlendShapeLj4EEE19ResizeSTLStyleArrayERS2_i18MemLabelIdentifier
Ugb:__ZNK5Unity9Component22GetTypeVirtualInternalEv
hah:__ZL111RegionInfo_t3784626978_CustomAttributesCacheGenerator_RegionInfo_t3784626978____CurrencyNativeName_PropertyInfoP21CustomAttributesCache
NYc:_MD5_Create_m1572997499
mCe:_AppDomain_LoadAssembly_m1537679648
yra:__ZN6prcoreL26RemapGenericIntegerToFloatI17TexFormatARGB888817TexFormatRGBFloatEEvPKNS_9InnerInfoE
Q1f:__Z146RuntimeInvoker_Void_t1841601450_RuntimeObject_RuntimeObject_Int64_t909078037_RuntimeObject_RuntimeObject_RuntimeObject_RuntimeObject_RuntimeObjectPFvvEPK10MethodInfoPvPS4_
Z5a:__ZN15LODGroupManager27GarbageCollectCameraLODDataEv
_ka:__ZN11NamedObjectC2E18MemLabelIdentifier18ObjectCreationMode
jbb:__ZN13ScreenManagerC2Ev
mog:_OrdinalComparer_GetHashCode_m3400975772
_v:__ZN7mecanim20ValueArrayBlendBeginILb1EEEvRNS_14ValueArrayMaskE
ukc:__ZN12GUIClipState20CalculateMouseValuesER10InputEvent
_Jb:__Z18Transfer_BlittableI24GenerateTypeTreeTransferLb0E12PropertyNameEvRK29SerializationCommandArgumentsR31RuntimeSerializationCommandInfo
UEa:__ZN7ApiGLES4InitERK14GfxContextGLESR16GfxDeviceLevelGL
Eua:__ZNK11LightProbes14LightProbeData33GetLightProbeInterpolationWeightsERK8Vector3fRiR8Vector4fRf
tAf:_SoapServices_GetAssemblyName_m2037446159
agb:__ZN21UnityDefaultAllocatorI17LowLevelAllocatorED0Ev
ymi:_InternalEnumerator_1_System_Collections_IEnumerator_get_Current_m1313308902_AdjustorThunk
HSf:_UInt32_System_IConvertible_ToInt64_m3091851828_AdjustorThunk
wIa:__Z14DecodeBC7BlockP9HDRColorAPKh
d2b:__ZNK24RendererAnimationBinding12GetPPtrValueERKN11UnityEngine9Animation10BoundCurveE
Fgf:_ClientSessionCache__cctor_m1134810266
CBi:_CharacterClass_GetIntervalCost_m2706255216
FDf:_ObjectReader_ReadGenericArray_m788836286
SBf:_RemotingConfiguration_RegisterChannelTemplate_m3410954518
_Pi:_UnityAction_2_Invoke_m1528820797_gshared
CHj:_GC_new_proc_inner
qc:invoke_fiiffi
dia:__ZN19RenderBufferManager13GetTempBufferE17RenderTextureDesc
hIc:_UNITY_FT_Init_Class_cff_service_glyph_dict
zEb:__Z35Transfer_Blittable_FixedBufferFieldI14SafeBinaryReadiEvRK29SerializationCommandArgumentsR31RuntimeSerializationCommandInfo
KZc:_RijndaelManagedTransform_TransformFinalBlock_m3663752599
W6c:_String_Format_m4262916296
Mva:__ZL24stbir__filter_catmullromff
Cte:_SimpleCollator_CompareInternal_m280569710
gQj:__ZNSt3__212basic_stringIcNS_11char_traitsIcEENS_9allocatorIcEEE6__initEPKcjj
nyc:__ZN20TextRenderingPrivate15GetFormatStringER11UTF16StringR13dynamic_arrayINS_16TextFormatChangeELj4EE
ltf:_X509ExtensionEnumerator_get_Current_m3926549773
E5f:__Z77RuntimeInvoker_TimeSpan_t3430258949_TimeSpan_t3430258949_TimeSpan_t3430258949PFvvEPK10MethodInfoPvPS4_
P0h:_AnimatorControllerPlayable_GetLayerCount_m1917775927_AdjustorThunk
kae:_NumberFormatter_IsZeroOnly_m3495795110
Esi:_InternalEnumerator_1_System_Collections_IEnumerator_get_Current_m3732729179_AdjustorThunk
Mee:_Int32_ValidDigit_m2682121722
a9a:__Z23ValidateScriptComponentP10MonoScriptPN4core12basic_stringIcNS1_20StringStorageDefaultIcEEEE
Xt:__ZN7mecanim9animation12GetHumanPoseIfEEvRKNS0_18ClipMuscleConstantEPKT_RNS_5human9HumanPoseE
eub:__ZNSt3__215__inplace_mergeIRNS_4lessI4PPtrI11SpriteAtlasEEENS_11__wrap_iterIPS4_EEEEvT0_SA_SA_T_NS_15iterator_traitsISA_E15difference_typeESE_PNSD_10value_typeEi
XEf:_SerializationInfo_AddValue_m2342806462
ZGj:_GC_init_headers
HJj:__ZNSt3__26__treeINS_12__value_typeINS_12basic_stringIcNS_11char_traitsIcEENS_9allocatorIcEEEEPFvvEEENS_19__map_value_compareIS7_SA_NS_4lessIS7_EELb1EEENS5_ISA_EEE13__lower_boundIS7_EENS_15__tree_iteratorISA_PNS_11__tree_nodeISA_PvEEiEERKT_SM_SM_
RAc:_UNITY_FT_Init_Class_ft_outline_glyph_class
Vnd:_Image_get_preferredHeight_m1045199335
nsf:_X509BasicConstraintsExtension__ctor_m4017912156
kVj:_glTexStorage3D__wrapper
RFc:_ft_get_adobe_glyph_index
BJj:__ZNSt3__26__treeINS_12__value_typeINS_12basic_stringIcNS_11char_traitsIcEENS_9allocatorIcEEEEPFvvEEENS_19__map_value_compareIS7_SA_NS_4lessIS7_EELb1EEENS5_ISA_EEE25__emplace_unique_key_argsIS7_JRKNS_21piecewise_construct_tENS_5tupleIJOS7_EEENSL_IJEEEEEENS_4pairINS_15__tree_iteratorISA_PNS_11__tree_nodeISA_PvEEiEEbEERKT_DpOT0_
oic:__Z47Register_UnityEngine_Texture_Internal_GetHeightv
yCb:__Z25scripting_field_get_flags17ScriptingFieldPtr
nFi:_X501_ToString_m3314567798
pSh:_Scrollbar_OnBeginDrag_m574021735
qyg:_MonoEvent_GetObjectData_m4084431065
muc:__ZN8JSONRead8TransferIyEEvRT_PKc17TransferMetaFlagsb
YEb:__Z18Transfer_BlittableI14SafeBinaryReadLb0EtEvRK29SerializationCommandArgumentsR31RuntimeSerializationCommandInfo
Mji:_U3CGetEnumeratorU3Ec__Iterator0_MoveNext_m2489948797_gshared
s_:__ZNK20DynamicHeapAllocatorI17LowLevelAllocatorE8ContainsEPKv
Oy:__ZN23AnimationPlayableOutput7DestroyEv
H1f:__Z128RuntimeInvoker_Void_t1841601450_Byte_t3683104436_RuntimeObject_SByte_t454417549_ObjectU26_t597476745_HeaderU5BU5DU26_t2818328198PFvvEPK10MethodInfoPvPS4_
tNg:_PlayableHandle_INTERNAL_CALL_SetInputCountInternal_m3510545880
Irj:__ZN6il2cpp2vm14PlatformInvoke36MarshalCppStringToCSharpStringResultEPKc
I3a:__ZN8Material23GetStencilWriteMaterialEv
JKa:__Z12GetBlockSize14GraphicsFormat
Coe:_Math_Log_m3325929366
qha:__ZNK9ShaderLab11ShaderState16ApplyShaderStateEjPK19ShaderPropertySheetRK17ShaderPassContextP6ShaderPNS_4PassEPNS_11SubProgramsE
Xzi:_Assertion__ctor_m1169129098
Uib:__ZN10TagManager8TransferI24GenerateTypeTreeTransferEEvRT_
sRh:_ReflectionMethodsCache_get_Singleton_m2330935729
Ahi:_Context_NotifyGlobalDynamicSinks_m2916447645
Zwf:_InterpreterFactory_get_GroupCount_m1785101782
kzd:_CharEnumerator_Clone_m3844021309
Cwe:_BlockProcessor_Initialize_m3476609078
u6b:__Z35AllocExtractMeshComponentFromScriptRK4Mesh30InternalScriptingShaderChannel34InternalScriptingVertexChannelTypei
$v:__ZN7mecanim12SetValueMaskILb1EEEvPNS_14ValueArrayMaskEb
Bib:__ZN10TagManager23VirtualRedirectTransferER24GenerateTypeTreeTransfer
G6e:_ReadOnlyCollection_1_System_Collections_IList_Remove_m688362945_gshared
Gva:__ZL23stbir__filter_trapezoidff
Uvf:_Key_GetHashCode_m345804220
oPf:_TimeSpan_FromHours_m2521548378
RQd:_Double_System_IConvertible_ToUInt16_m286326038
o7a:__ZN23ScriptableRenderContextD2Ev
MHa:__ZN4crnd12crn_unpacker11unpack_dxt1EPPhjjjjjj
$ze:_PKCS12__ctor_m3492967071
Bij:__ZN15dense_hashtableINSt3__24pairIK10KeyWrapperINS1_IPK10MethodInfoP11Il2CppClassEEEjEES9_17ReflectionMapHashIS8_EN14dense_hash_mapIS9_jSD_NS9_14EqualsComparerINS0_8equal_toIS8_EEEENS0_9allocatorISB_EEE9SelectKeyESI_SK_E15insert_noresizeERKSB_
oLc:__Z32TextGenerator_CUSTOM_Dispose_cppP12Il2CppObject
$ug:_MethodBuilder_GetCustomAttributes_m923430117
Zpj:__ZN6il2cpp6icalls8mscorlib6System19ExtractWidenedValueE14Il2CppTypeEnumPv
$ri:_InternalEnumerator_1_get_Current_m2198364332_gshared
iHj:_GC_invoke_finalizers
zti:_InternalEnumerator_1_get_Current_m1715820327_gshared
lBb:__ZNSt3__26vectorIN30RuntimeInitializeOnLoadManager9ClassInfoE13stl_allocatorIS2_L18MemLabelIdentifier12ELi16EEE6assignINS_11__wrap_iterIPS2_EEEENS_9enable_ifIXaasr21__is_forward_iteratorIT_EE5valuesr16is_constructibleIS2_NS_15iterator_traitsISC_E9referenceEEE5valueEvE4typeESC_SC_
hFb:__Z18Transfer_BlittableI14SafeBinaryReadLb0E8BitFieldEvRK29SerializationCommandArgumentsR31RuntimeSerializationCommandInfo
Lvg:_OpCode_GetHashCode_m2974727122_AdjustorThunk
wsg:_EnumBuilder_get_BaseType_m63295819
Oxd:_Byte_ToString_m1309661918_AdjustorThunk
Xwi:_Comparer_1_System_Collections_IComparer_Compare_m1153499515_gshared
oie:_Directory_CreateDirectoriesInternal_m2817848291
_mi:_InternalEnumerator_1_System_Collections_IEnumerator_get_Current_m3546309124_gshared
fZd:_Array_BinarySearch_TisRuntimeObject_m3048647515_gshared
FLf:_UTF7Encoding_GetDecoder_m396865028
pla:__ZNK9ShaderLab22ShaderStencilStateDesc17ToGfxStencilStateEPK19ShaderPropertySheetS3_RK14GfxRasterStateR15GfxStencilState
u$i:_Hacker_CheckPassword_m4100071066
Lxe:_SmallXmlParser_ReadContent_m4038164984
TGi:_X509Extension_WriteLine_m364247613
qDc:_tt_cmap0_char_next
$eb:__ZN15GUIEventManager10QueueEventERK10InputEvent
xIa:__Z15DecodeBC6HBlockP9HDRColorAPKh
Efe:_Int32_Equals_m753832628_AdjustorThunk
pHj:_GC_malloc_uncollectable
xCd:_CollectionBase_System_Collections_IList_get_IsReadOnly_m2883787483
peb:__ZNK16MemoryFileSystem6ParentERK13FileEntryDataRN4core12basic_stringIcNS3_20StringStorageDefaultIcEEEE
v8:__ZN15LODGroupManagerD2Ev
Oog:_Assembly_IsDefined_m2841897391
Oej:__GLOBAL__sub_I_File_cpp
IQa:__ZN12IFileAdapter9SetLengthER13FileEntryDatay
bpd:_InputField_set_lineType_m3589045448
Ghc:__Z39SortingLayer_CUSTOM_GetLayerValueFromIDi
Sc:_Mix_PlayMusic
sIc:_cff_cmap_encoding_init
QTi:_EqualityComparer_1_System_Collections_IEqualityComparer_GetHashCode_m2460068977_gshared
xq:__ZN7Hash1288TransferI19StreamedBinaryWriteILb0EEEEvRT_
H5h:_AudioMixerPlayable_CreateHandle_m628052855
Jra:__ZN19RuntimeSceneManager24PrepareNewBootstrapSceneEv
$sd:_Array_GetLongLength_m3005360186
O7a:__ZN10SpookyHash7Hash128EPKvjPyS2_
k5a:__ZL60CombineDirectionalShadowCasterCullingIndexListsAndDestroyJobP20ShadowCullingJobData
Mde:_Guid_ToString_m3858592945_AdjustorThunk
ovg:_MethodToken__cctor_m2172944774
bpi:_InternalEnumerator_1_get_Current_m3206960238_gshared
gif:_TlsClientCertificate_ProcessAsSsl3_m3634449507
O2c:_Hash_GetData_m3416116641
XXc:_HMAC_get_Block_m1367204253
GUb:__ZN9ShaderLab18SerializedPropertyC2ERKS0_
TFc:_cff_driver_init
H1h:_AnimatorControllerPlayable_INTERNAL_CALL_GetNextAnimatorClipInfoInternal_m528333893
yjd:_Dropdown_AlphaFadeList_m511547679
YUd:_Array_InternalArray__ICollection_Contains_TisChar_t3454481338_m1444673620_gshared
odi:_ResourceReader_LoadResourceValues_m1346096618
N0b:__ZN16ReflectionProbes20DidChangeActiveSceneEP10UnitySceneS1_
hae:_NumberFormatter_RoundDecimal_m176606570
e$f:__Z90RuntimeInvoker_RuntimeObject_RuntimeObject_SByte_t454417549_RuntimeObject_SByte_t454417549PFvvEPK10MethodInfoPvPS4_
vxf:_Interval_Contains_m3209397137_AdjustorThunk
Tsb:__ZN16SpriteRenderData8TransferI14SafeBinaryReadEEvRT_
HId:_Convert_ToDouble_m1714698801
q0h:_AnimatorControllerPlayable_INTERNAL_CALL_SetTriggerString_m1525516737
jsi:_InternalEnumerator_1_get_Current_m35328337_gshared
scf:_MD4Managed_Encode_m2097839378
n3b:__ZN6CameraC2E18MemLabelIdentifier18ObjectCreationMode
OPi:_UnityAction_1_Invoke_m3061904506_gshared
Yge:_Int64_ToString_m1544341651
z3a:__ZL31SetRenderStateForStencilMarkingR9GfxDeviceR17ShaderPassContextjj
sTa:__ZN20ArchiveStorageReader20FillChunkCachedBlockEPNS_11CachedBlockE
_Ji:_Texture_INTERNAL_get_texelSize_m3180609662
cP:__ZN10AudioMixer16ResumeProcessingEv
Q$e:_Collection_1_ConvertItem_m2559468638_gshared
nzi:_Parser_GetMapping_m2879066771
PGb:__ZNSt3__26vectorI17AnimationCurveTplIfE13stl_allocatorIS2_L18MemLabelIdentifier1ELi16EEE7reserveEj
xcd:_PointerEventData_get_dragging_m220490640
Aoe:_Math_Ceiling_m614624719
Laf:_BigInteger_op_Inequality_m4286929594
ZMh:__ZL80CanvasScaler_t2574720772_CustomAttributesCacheGenerator_m_ReferencePixelsPerUnitP21CustomAttributesCache
F3c:_SecurityException__ctor_m230238597
rOc:__ZN2UI13CanvasManager21EmitGeometryForCameraEP6Camera
Nd:_glClearColor
cae:_CustomInfo_Parse_m3558073058
HH:__Z83Register_UnityEngine_Animations_AnimatorControllerPlayable_INTERNAL_CALL_SetFloatIDv
wDe:_KeyValuePair_2_get_Value_m1916631176_gshared
FVb:__ZN9ShaderLab16SerializedTagMap8TransferI19StreamedBinaryWriteILb0EEEEvRT_
kYg:_Dictionary_2_InitArrays_m3810830177_gshared
oqj:__ZN6il2cpp6icalls8mscorlib6System9Threading6Thread25SetCachedCurrentUICultureEP12Il2CppThreadP12Il2CppObject
O$j:_glIsVertexArray__wrapper
iBf:_RemotingServices_DisposeIdentity_m266836454
Z_c:_RSAPKCS1KeyExchangeFormatter_SetRSAKey_m3575964424
Hyc:_UNITY_FT_Bitmap_Convert
lHd:_DateTimeUtils_GetStandardPattern_m4198947977
l5a:__Z22CullDirectionalShadowsR9IndexListPK9SceneNodePK4AABBR22DirectionalCullContext
c8d:_Array_InternalArray__get_Item_TisUInt16_t986882611_m2599215710_gshared
vRg:_Enumerator_System_Collections_IEnumerator_Reset_m2828524109_gshared
Ypg:_Default_IsArrayAssignable_m3862319150
oEi:_PKCS12_MAC_m3228833816
Y8i:__ZN15dense_hashtableINSt3__24pairIK10KeyWrapperIPK11Il2CppClassEPKcEES6_N6il2cpp5utils11PointerHashIS3_EEN14dense_hash_mapIS6_S9_SE_NS6_14EqualsComparerINS0_8equal_toIS5_EEEENS0_9allocatorISA_EEE9SelectKeyESJ_SL_E4findERS7_
M9d:_NumberFormatter_FastAppendDigits_m2324805728
bY:__ZN11UnityEngine15CloudWebService14RestDownloader7OnAbortEv
WDf:_FormatterServices_GetUninitializedObject_m1786947853
hO:__ZNK11AudioSource22GetTypeVirtualInternalEv
Csa:__ZN13MonoBehaviour26WillUnloadScriptableObjectEv
qKc:_UNITY_FT_Get_Glyph_Name
EXa:__Z13VFormatBufferPciPKcPi
OKb:__Z19TransferField_ArrayI24GenerateTypeTreeTransfer27Converter_SimpleNativeClassI8GradientEEvRK23StaticTransferFieldInfoR31RuntimeSerializationCommandInfoRT0_
bTh:_ScrollRect_get_vertical_m3957330783
FV:__ZN11UnityEngine15CloudWebService16SessionContainer16MarkAsDispatchedERKN4core12basic_stringIcNS2_20StringStorageDefaultIcEEEE
gyj:__ZN6il2cpp2vm12GenericClass6IsEnumEP18Il2CppGenericClass
Vic:__Z26Transform_CUSTOM_IsChildOfP12Il2CppObjectS0_
$Kj:__ZNSt3__26vectorINS_12basic_stringIDsNS_11char_traitsIDsEENS_9allocatorIDsEEEENS4_IS6_EEE18__construct_at_endEj
z3h:_AnimatorStateInfo_IsTag_m1529621725
xFg:_GUIStyle__ctor_m2210993436
ave:_BigInteger_op_Subtraction_m2941563507
g2b:__ZN13ProduceHelperI11PreloadDataLb0EE7ProduceE18MemLabelIdentifier18ObjectCreationMode
qTg:_Enumerator_Reset_m3129803197_gshared
HXj:_glDeleteSamplers__wrapper
TAa:__ZNK13GfxDeviceGLES11GetViewportEv
Mla:__ZNK9ShaderLab11ShaderState34ShouldRemoveAnyUnsupportedProgramsEv
nKc:_UNITY_tt_face_load_cvt
rXa:__ZN19ShaderPropertySheet29PreallocateArrayUninitializedEN9ShaderLab16FastPropertyNameENS_12PropertyTypeEj
EMa:__ZN16GeometryJobTasks20ScheduleGeometryJobsER9GfxDevicePFvP15GeometryJobDataEPK22GeometryJobInstructionjb
O7b:__ZN14AssetReferenceC2E4PPtrI6ObjectE
lgi:_CrossAppDomainData__ctor_m899931420
T9i:__ZL32InitializeCustomAttributesCachesPv
qRa:__ZN20ArchiveStorageReaderD0Ev
aSb:__ZN6Shader23VirtualRedirectTransferER19StreamedBinaryWriteILb0EE
bAd:_ArrayListWrapper__ctor_m3783588291
ryf:_MethodCall_get_MethodBase_m688041003
UVc:__ZN19TransportJavaScript7PrepareEv
oVd:_Array_InternalArray__ICollection_Contains_TisRuntimeObject_m4286375615_gshared
Lxi:_Match_NextMatch_m1088868049
sXh:_Text_OnPopulateMesh_m835520031
rzb:__ZN10VRSettings9Cardboard8TransferI14SafeBinaryReadEEvRT_
_xb:__ZNSt3__214__split_bufferI9InputAxisRNS_9allocatorIS1_EEED2Ev
$bi:_InvokableCall_add_Delegate_m1598143083
Wea:__ZNK20LocalFileSystemPosix20GetApplicationFolderEv
HV:__ZN11UnityEngine15CloudWebService14DataDispatcher31SetupSessionContainerToDispatchEv
Ijc:__Z68Register_UnityEngine_Object_INTERNAL_CALL_Internal_InstantiateSinglev
wRb:__Z29Transfer_Blittable_ArrayFieldI18StreamedBinaryReadILb0EE8Vector3fEvRT_R9ArrayInfoRK23StaticTransferFieldInfo
zWd:_Array_InternalArray__ICollection_Remove_TisResourceInfo_t3933049236_m1768394498_gshared
odf:_RSAManaged_get_KeySize_m3478823737
NQh:_Shadow_ApplyShadowZeroAlloc_m2132231878
Ala:__ZN9ShaderLab11shaderprops9GetVectorEPK19ShaderPropertySheetS3_NS_16FastPropertyNameE
NK:__ZN4FMOD12ChannelGroup10getDSPHeadEPPNS_3DSPE
tEe:_Enumerator_System_Collections_IEnumerator_Reset_m610822832_gshared
eJc:_UNITY_tt_size_run_prep
iK:__ZN12AudioManager17MainThreadCleanupEv
mLf:_UTF32Encoding_GetByteCount_m77034086
a2a:__ZNK6Camera18ScreenToWorldPointERK8Vector3f
bqj:__ZN6il2cpp6icalls8mscorlib6System9Threading6Thread11GetDomainIDEv
$za:__ZNK13TranslateGLES13GetFormatDescE14GraphicsFormat
_Pg:_Rect_Overlaps_m4145874649_AdjustorThunk
hSa:__ZN17ArchiveFileSystemD0Ev
mNf:_Thread_get_CurrentContext_m3123598616
$1i:__ZL22div192by96to32withRestPyS_S_jjj
j2a:__ZN14qsort_internal5QSortIP20ShadowCasterSortDatai26ShadowCasterSortDataSorterEEvT_S4_T0_T1_
Brd:_LayoutElement_set_layoutPriority_m3326469165
mY:__ZN11UnityEngine15CloudWebService19SessionEventManager5StartERKN4core12basic_stringIcNS2_20StringStorageDefaultIcEEEEii
KGb:__Z22TransferField_NonArrayI14SafeBinaryRead27Converter_SimpleNativeClassI8GradientEEvRK23StaticTransferFieldInfoR31RuntimeSerializationCommandInfoRT0_
Gf:_emscripten_glBufferData
jOc:__ZZN2UI23InitializeCanvasManagerEvEN53UIEventsCanvasManagerEmitOffScreenGeometryRegistrator7ForwardEv
Kf:_glUniform3iv
Bnd:_Image_OnAfterDeserialize_m457193290
tOj:___fseeko
KNf:_Thread_GetHashCode_m2038641494
S$d:_Array_InternalArray__ICollection_Add_TisInt16_t4041245914_m321723604_gshared
wNf:_Thread_SetCachedCurrentUICulture_m1504514384
_Jg:_Matrix4x4_ToString_m1982554457
ZOj:_fwrite
f9c:_BaseInput_get_compositionCursorPos_m3148596268
Q8c:_AxisEventData_set_moveVector_m3227339885
UJg:_Matrix4x4_GetHashCode_m3649708037_AdjustorThunk
_Vg:_Enumerator_MoveNext_m1212551889_gshared
IBb:__ZN13MonoBehaviourD0Ev
xBe:_X509CertificateEnumerator_Reset_m3421070487
LNc:__ZN2UI6Canvas18UpdateEventIndexesEv
hzd:_CharEnumerator_System_Collections_IEnumerator_get_Current_m1338581333
l8c:_DecoderFallback__cctor_m215821245
aad:_EventSystem_set_current_m1323649628
_gc:__Z50RectTransform_CUSTOM_INTERNAL_set_anchoredPositionP12Il2CppObjectRK13Vector2fIcall
wUb:__ZNSt3__26vectorIN9ShaderLab19SerializedSubShaderENS_9allocatorIS2_EEE6resizeEj
LOd:_Decimal_Multiply_m1884379383
Nbb:__ZN4FileC2Ev
bii:_Context_GetNamedDataSlot_m372993642
Vrg:_DerivedType_GetAttributeFlagsImpl_m876862795
Hij:__ZN15dense_hashtableINSt3__24pairIK10KeyWrapperINS1_IPK10MethodInfoP11Il2CppClassEEEjEES9_17ReflectionMapHashIS8_EN14dense_hash_mapIS9_jSD_NS9_14EqualsComparerINS0_8equal_toIS8_EEEENS0_9allocatorISB_EEE9SelectKeyESI_SK_E12maybe_shrinkEv
Uwa:__ZN14BatchAllocator16AllocateInternalEPPvijjj
n_b:__Z13RegisterClassI6SpriteEvv
WHg:_GUIUtility_IsExitGUIException_m4230716438
kFj:_min_bytes_allocd
OOb:__ZN17AnimationCurveTplIfE15InvalidateCacheEv
mfc:__Z29Mesh_Get_Custom_PropCanAccessP12Il2CppObject
Ftb:__ZN6Sprite8TransferI19StreamedBinaryWriteILb0EEEEvRT_
Lge:_Int64_Parse_m4214159959
vRi:_IndexedSet_1_Contains_m4188067325_gshared
Sjg:__Z56RuntimeInvoker_Void_t1841601450_RaycastHit2D_t4063908774PFvvEPK10MethodInfoPvPS4_
tIh:__ZL58BaseInputModule_t1295781545_CustomAttributesCacheGeneratorP21CustomAttributesCache
ZD:__ZN7mecanim9animation18ControllerConstant15InitializeClassEv
tla:__ZNK9ShaderLab6TexEnv11PrepareDataEiiP15GfxTextureParam
FTd:_CompareInfo_internal_compare_managed_m1173317301
Do:FUNCTION_TABLE_iiiiiiiffiiiiiiiiiffffiiii
Mod:_InputField_get_customCaretColor_m2991404035
lka:__ZNK19StereoRenderTexture7IsEmptyEv
vde:_Guid_Equals_m2346664749_AdjustorThunk
Mje:_FileStream_get_CanSeek_m1833070492
cy:__ZN7mecanim12statemachine20EvaluateStateMachineERKNS0_20StateMachineConstantERKNS0_17StateMachineInputERNS0_18StateMachineOutputERNS0_18StateMachineMemoryERNS0_21StateMachineWorkspaceE
AMi:_Vector3__ctor_m2720820983_AdjustorThunk
cIc:_cff_parser_run
gHj:_GC_notify_or_invoke_finalizers
T1h:_AnimatorControllerPlayable_INTERNAL_CALL_GetParameterCountInternal_m3540558817
lTe:_Queue_1__ctor_m2730788670_gshared
Lwe:_CryptoConvert_ToCapiPrivateKeyBlob_m850465939
pzj:__ZN6il2cpp2os6Thread5SleepEjb
tOb:__ZN18StreamedBinaryReadILb1EE21TransferSTLStyleArrayIN4core12basic_stringIcNS2_20StringStorageDefaultIcEEEEEEvRT_17TransferMetaFlags
waa:__ZN15DirectorManagerC2Ev
zOd:_Decimal_Add_m1535064574
gVj:_emscripten_glUniform3f__wrapper
Nn:FUNCTION_TABLE_viiiifii
fEi:_SubjectAltNameExtension_Decode_m3676245240
XBj:__ZN15dense_hashtableINSt3__24pairIK10KeyWrapperIPK19Il2CppGenericMethodEP10MethodInfoEES6_N6il2cpp8metadata23Il2CppGenericMethodHashEN14dense_hash_mapIS6_S9_SD_NS6_14EqualsComparerINSC_26Il2CppGenericMethodCompareEEENS0_9allocatorISA_EEE9SelectKeyESH_SJ_E4findERS7_
vDg:_RectOffset_set_right_m1671272302
Pvi:_DefaultComparer_Compare_m265474847_gshared
Bee:_Int16_Parse_m4244889614
Iib:__ZN10TagManager23AddDefaultLayerIfNeededEv
okb:__ZN10FlareLayer12AddToManagerEv
P$e:_Collection_1_IsValidItem_m1082009684_gshared
tCj:__ZN6il2cpp6icalls8mscorlib6System10Reflection10MethodBase31GetMethodFromHandleInternalTypeE12Il2CppIntPtrS5_
h_c:_RIPEMD160Managed_HHH_m1385141959
