Fc:_glClearStencil
h0d:_Array_InternalArray__ICollection_Add_TisMark_t2724874473_m1613484179_gshared
fKh:__ZL80Graphic_t2426225576_CustomAttributesCacheGenerator_Graphic_OnFillVBO_m1723985607P21CustomAttributesCache
KFf:_RuntimeTypeHandle_GetObjectData_m3567098501
qwg:_TypeBuilder_ToString_m1952363535
rAj:__ZN6il2cpp2vm5Array13GetByteLengthEP11Il2CppArray
ERh:_Raycast3DCallback_BeginInvoke_m3028685017
pZf:__Z79RuntimeInvoker_RuntimeObject_Int64_t909078037_Int64_t909078037_Int64_t909078037PFvvEPK10MethodInfoPvPS4_
q3g:_EqualityComparer_1__cctor_m968537130_gshared
TJi:_TextGenerator_get_lineCount_m4287181941
sVc:__ZN15DownloadHandler7OnAbortEv
l9e:_Comparison_1_Invoke_m353639462_gshared
rTf:_UInt64_System_IConvertible_ToDecimal_m4205696037
bld:_GraphicRegistry_RegisterGraphicForCanvas_m2284226562
fIa:__Z21SourceMipLevelForBlitiiii
Xlb:__ZN31CanvasBatchIntermediateRenderer15AddAsRenderNodeER15RenderNodeQueueRK20DeprecatedSourceData
Qtg:_GenericTypeParameterBuilder_GetEvent_m4210567427
xMg:_Playable__ctor_m2954384102
yFd:_Enumerator_get_Key_m2908810861
NRc:__ZN11UnityEngine7Connect14AppUpdateEventD0Ev
V$h:_AnimatorControllerPlayable_SetBool_m1780824884_AdjustorThunk
lmg:__Z35RuntimeInvoker_UIVertex_t1204258818PFvvEPK10MethodInfoPvPS4_
b_:__ZdlPv
xF:__ZN23AnimationOffsetPlayable11SetRotationE11Quaternionf
cs:__ZN11UnityEngine9Animation28GenericAnimationBindingCacheD2Ev
x_h:_AnimationOffsetPlayable_op_Explicit_m363086289
Xeh:__ZL68RemotingSurrogateSelector_t2821375126_CustomAttributesCacheGeneratorP21CustomAttributesCache
NGe:_List_1_System_Collections_IList_IndexOf_m39706221_gshared
RQi:_UnityEvent_1_RemoveListener_m219620396_gshared
nZg:_Dictionary_2_Remove_m1849931834_gshared
bId:_Decimal_op_Implicit_m2971610317
zid:_Graphic_UnregisterDirtyVerticesCallback_m1526739224
m8a:__Z18RestoreRenderStateR20CameraRenderOldStateR17ShaderPassContext
dBd:_SynchronizedArrayListWrapper_get_Item_m3309425850
GNb:__Z18Transfer_BlittableI18StreamedBinaryReadILb1EELb1E5RectTIfEEvRK29SerializationCommandArgumentsR31RuntimeSerializationCommandInfo
WJb:__Z18Transfer_BlittableI24GenerateTypeTreeTransferLb0E11ColorRGBA32EvRK29SerializationCommandArgumentsR31RuntimeSerializationCommandInfo
p4:__Z25scripting_class_from_name17ScriptingImagePtrPKcS1_
Wmj:__ZN14dense_hash_mapI10KeyWrapperINSt3__24pairIPK12PropertyInfoP11Il2CppClassEEEj17ReflectionMapHashIS8_ENS9_14EqualsComparerINS1_8equal_toIS8_EEEENS1_9allocatorINS2_IKS9_jEEEEE15set_deleted_keyERSH_
QCb:__Z29scripting_class_enum_basetype17ScriptingClassPtr
cgi:__ZN21InterfaceFuncInvoker3IP12Il2CppObjectP8String_tS1_PS3_E6InvokeEjP11Il2CppClassS1_S3_S1_S4_
Sld:_GraphicRaycaster_get_ignoreReversedGraphics_m2757724367
O8f:__Z111RuntimeInvoker_Void_t1841601450_Vector4_t2243707581_Vector4_t2243707581_Vector4_t2243707581_Vector4_t2243707581PFvvEPK10MethodInfoPvPS4_
mjb:__ZNK12BaseRenderer18GetRenderNodeCountEv
Bug:_GenericTypeParameterBuilder_GetHashCode_m867619899
yPf:_TimeSpan_ToString_m2947282901
J2g:_EqualityComparer_1__cctor_m3397254040_gshared
yea:__ZNK20LocalFileSystemPosix6ParentERK13FileEntryDataRN4core12basic_stringIcNS3_20StringStorageDefaultIcEEEE
Bkj:__ZN15dense_hashtableINSt3__24pairIK10KeyWrapperINS1_IPK9EventInfoP11Il2CppClassEEEjEES9_17ReflectionMapHashIS8_EN14dense_hash_mapIS9_jSD_NS9_14EqualsComparerINS0_8equal_toIS8_EEEENS0_9allocatorISB_EEE9SelectKeyESI_SK_E4swapERSN_
mPg:_RaycastHit2D_get_distance_m4065977169
NJi:_TextGenerator_get_verts_m3124035267
aqe:_MonoType_CheckMethodSecurity_m4116906190
uMi:_Vector2_get_one_m3174311904
x5d:_Array_Sort_TisVector2_t2243707579_m1307634946_gshared
Mxa:__ZN17PersistentManager22CheckInstanceIDsLoadedEPii
$Fa:__ZN7ApiGLES17CopyBufferSubDataEjjlll
vnb:__ZNK20ScriptPlayableOutput7GetTypeEv
tuh:__ZL99Sprite_t309593783_CustomAttributesCacheGenerator_Sprite_get_associatedAlphaSplitTexture_m3617241169P21CustomAttributesCache
h4i:__ZNSt3__26vectorIPK10Il2CppTypeNS_9allocatorIS3_EEE7reserveEj
E0i:_U3CCreateWhereIteratorU3Ec__Iterator1D_1_Reset_m1773515612_gshared
J$a:__ZN25CameraStackRenderingState20GetOrCreateBuiltinRTE24BuiltinRenderTextureTypeii17DepthBufferFormat19RenderTextureFormatj22RenderTextureReadWrite14VRTextureUsagei
upd:_InputField_get_caretPosition_m1005871812
QXg:_Dictionary_2__ctor_m3111963761_gshared
vTi:_AesManaged_CreateEncryptor_m1729287824
wub:__ZNK14Texture2DArray26CanReuploadDataToGfxDeviceEv
n4a:__ZN17PrePassRenderLoop14RenderBasePassEP13RenderTextureRK14LightingLayersR13dynamic_arrayI16RenderObjectDataLj4EERbR10MinMaxAABB
qib:__ZN17GlobalGameManager23VirtualRedirectTransferER17RemapPPtrTransfer
jDc:_sfnt_stream_close
iyd:_Char_System_IConvertible_ToInt16_m2741348777_AdjustorThunk
Ukc:__ZN5IMGUI18RepaintModalWindowER8GUIState
QYi:__ZL25UnresolvedVirtualCall_129P12Il2CppObject17Color_t2020392075PK10MethodInfo
ykd:_FontData_get_verticalOverflow_m83665814
$1e:_ReadOnlyCollection_1_System_Collections_Generic_IListU3CTU3E_set_Item_m1547026160_gshared
c8g:__ZL61MarshalAsAttribute_t2900773360_CustomAttributesCacheGeneratorP21CustomAttributesCache
btb:__Z23SetSpriteMeshIndexCountP14SharedMeshDataj
Rha:__ZN7Texture13SetFilterModeEi
cbc:__Z46Register_UnityEngine_Application_get_isPlayingv
WBj:__ZN6il2cpp8metadata13GenericMethod9GetMethodEPK19Il2CppGenericMethod
Iq:__ZNSt3__26vectorIN4core12basic_stringIcNS1_20StringStorageDefaultIcEEEENS_9allocatorIS5_EEE7reserveEj
vKd:_Convert_ToUInt16_m2130758075
cjj:__ZN15dense_hashtableINSt3__24pairIK10KeyWrapperINS1_IPK11Il2CppImageP11Il2CppClassEEEjEES9_17ReflectionMapHashIS8_EN14dense_hash_mapIS9_jSD_NS9_14EqualsComparerINS0_8equal_toIS8_EEEENS0_9allocatorISB_EEE9SelectKeyESI_SK_E3endEv
pag:__Z132RuntimeInvoker_Void_t1841601450_RuntimeObject_AnimatorStateInfo_t2577870592_Int32_t2071877448_AnimatorControllerPlayable_t1744083903PFvvEPK10MethodInfoPvPS4_
rsf:_X509BasicConstraintsExtension_Encode_m3505127076
SAa:__ZN13GfxDeviceGLES11SetViewportERK5RectTIiE
xnd:_Image_get_pixelsPerUnit_m4104195799
$Xh:_Toggle_InternalToggle_m2323729210
mOd:_Decimal_System_IConvertible_ToInt64_m2504363272
vic:__Z24Time_Get_Custom_PropTimev
qtd:_Array_GetValue_m3182152438
Wd:_emscripten_glDepthRange
KHf:_DESTransform_CipherFunct_m3559419566
eUf:_UIntPtr_get_Size_m537421489
wZc:_Rijndael_Create_m113171669
BDg:_GUILayoutGroup_CalcWidth_m4107152934
nFf:_RuntimeFieldHandle_get_Value_m3963757144
iTb:__Z14resize_trimmedINSt3__26vectorIN9ShaderLab20SerializedSubProgram12UAVParameterENS0_9allocatorIS4_EEEEEvRT_j
fyf:_SerializationInfo_AddValue_m1781549036
Qjg:__Z59RuntimeInvoker_Void_t1841601450_PlayableBinding_t2498078091PFvvEPK10MethodInfoPvPS4_
b_h:_AnimationLayerMixerPlayable_SetLayerMaskFromAvatarMask_m2582039992_AdjustorThunk
fgf:_TlsServerKeyExchange_verifySignature_m3641534563
b_e:_Collection_1_Clear_m445145071_gshared
nWh:_Slider_FindSelectableOnLeft_m3136767885
FHa:__ZN4crndL20crnd_default_reallocEPvjPjbS0_
ild:__ZN21InterfaceFuncInvoker1IP19Material_t193706927S1_E6InvokeEjP11Il2CppClassP12Il2CppObjectS1_
cZd:_Array_BinarySearch_TisInt32_t2071877448_m51233948_gshared
KPj:__ZNSt3__212basic_stringIcNS_11char_traitsIcEENS_9allocatorIcEEEC2ERKS5_
nBf:_ProviderData_CopyFrom_m431414335
Nbg:__Z74RuntimeInvoker_Boolean_t3825574718_Vector2_t2243707579_Vector2_t2243707579PFvvEPK10MethodInfoPvPS4_
Utb:__ZN18SpriteAtlasManager19AddRequestingSpriteE4PPtrI6SpriteE
jLf:_UTF32Encoding_GetPreamble_m767706727
gic:__Z33Texture_CUSTOM_Internal_GetHeightP12Il2CppObject
XWe:_Collection_1_System_Collections_IList_Add_m1953936885_gshared
Ord:_LayoutGroup_get_preferredHeight_m3901163825
G1f:__Z111RuntimeInvoker_Void_t1841601450_RuntimeObject_SByte_t454417549_ObjectU26_t597476745_HeaderU5BU5DU26_t2818328198PFvvEPK10MethodInfoPvPS4_
l7a:__ZN23ScriptableRenderContextC2Ev
Vjb:__ZN4PPtrI13RenderTextureE8TransferI18StreamedBinaryReadILb0EEEEvRT_
Jac:__Z22InverseTransformVector23TransformAccessReadOnlyRKN4math7_float3E
NHd:_DateTime_AbsoluteDays_m3061694073
gKc:_UNITY_FT_Stream_GetChar
w$i:_Hacker_ShowReward_m1285282345
dOb:__Z18Transfer_BlittableI18StreamedBinaryReadILb1EELb1EdEvRK29SerializationCommandArgumentsR31RuntimeSerializationCommandInfo
lTg:_Enumerator_System_Collections_IEnumerator_get_Current_m229223308_gshared
yph:__ZL202U3CCreateWhereIteratorU3Ec__Iterator1D_1_t2523986802_CustomAttributesCacheGenerator_U3CCreateWhereIteratorU3Ec__Iterator1D_1_System_Collections_Generic_IEnumerableU3CTSourceU3E_GetEnumerator_m2392330777P21CustomAttributesCache
ZCb:__Z26BuildSerializationCacheFor17ScriptingClassPtrRb
nKa:__ZN7ApiGLES15BlitFramebufferEN2gl6HandleILNS0_10ObjectTypeE9EEENS0_15FramebufferReadES3_S3_iiiiiiiiNS0_15FramebufferTypeE
zdj:_il2cpp_class_get_name
P7f:__Z112RuntimeInvoker_RuntimeObject_RuntimeObject_RuntimeObject_RuntimeObject_RuntimeObject_RuntimeObject_RuntimeObjectPFvvEPK10MethodInfoPvPS4_
odh:__ZL55GCHandleType_t1970708122_CustomAttributesCacheGeneratorP21CustomAttributesCache
rbi:_Event_Init_m3901382626
OAd:_FixedSizeArrayListWrapper_AddRange_m2071800418
ND:__ZN13ProduceHelperI8AnimatorLb0EE7ProduceE18MemLabelIdentifier18ObjectCreationMode
Pfa:__Z9InitInputv
$2f:__Z85RuntimeInvoker_Boolean_t3825574718_Int64_t909078037_Int64_t909078037_SByte_t454417549PFvvEPK10MethodInfoPvPS4_
OIi:_StateMachineBehaviour_OnStateUpdate_m2021794605
AFe:_Enumerator_VerifyState_m2358705882_AdjustorThunk
dDc:_UNITY_tt_face_build_cmaps
DSh:_Selectable_Navigate_m915280351
Aeb:__ZN16MemoryFileSystem6DeleteER13FileEntryDatab
NMi:_Vector3_get_normalized_m936072361
ova:__ZL21BlitScaleStbImageImplRK14ImageReferenceRS_NS_10ColorSpaceE
Mmf:_TlsStream_set_Position_m378064217
sD:__ZN18StreamedBinaryReadILb0EE21TransferSTLStyleArrayI13dynamic_arrayIjLj4EEEEvRT_17TransferMetaFlags
pGb:__Z29Transfer_Blittable_ArrayFieldI14SafeBinaryReadyEvRT_R9ArrayInfoRK23StaticTransferFieldInfo
AYi:__ZL25UnresolvedVirtualCall_113P12Il2CppObjectiiiPK10MethodInfo
AO:__ZN20SoundChannelInstance15setChannelGroupEPN4FMOD12ChannelGroupE
Ohj:__ZNK15dense_hashtableINSt3__24pairIK10KeyWrapperINS1_IPK9FieldInfoP11Il2CppClassEEEjEES9_17ReflectionMapHashIS8_EN14dense_hash_mapIS9_jSD_NS9_14EqualsComparerINS0_8equal_toIS8_EEEENS0_9allocatorISB_EEE9SelectKeyESI_SK_E12test_deletedERK24dense_hashtable_iteratorISB_S9_SD_SM_SI_SK_E
E2c:_Evidence_Equals_m2325859915
Lpg:_Default__ctor_m172834064
tc:invoke_vifffii
wIh:__ZL77StandaloneInputModule_t70867863_CustomAttributesCacheGenerator_m_VerticalAxisP21CustomAttributesCache
uQb:__Z35Transfer_Blittable_FixedBufferFieldI18StreamedBinaryReadILb0EEaEvRK29SerializationCommandArgumentsR31RuntimeSerializationCommandInfo
G9h:_Component_GetComponents_m637589504
lAi:_Regex_IsMatch_m2159202025
SQa:__ZNK25MultiBlocksMemoryFileData5CloneEv
zHj:_GC_add_ext_descriptor
xIj:__ZN6il2cpp2os14WindowsRuntime22GetRestrictedErrorInfoEv
Pnd:_Image_CalculateLayoutInputHorizontal_m3275149860
nyf:_RemotingServices_GetMethodBaseFromName_m3271095947
ISa:__ZN17ArchiveFileSystem11CreateAsDirER13FileEntryData
LRj:dynCall_iiiiiiiiiiii
L7c:_ASCIIEncoding_GetBytes_m3617160053
jti:_InternalEnumerator_1_MoveNext_m2289229080_AdjustorThunk
jff:_CipherSuiteCollection_System_Collections_IList_RemoveAt_m143866082
IE:__ZN26AnimatorControllerPlayable26ParameterControlledByCurveEi
Nza:__ZN22VertexDeclarationCacheD0Ev
yXb:__ZL26KeywordSetToStringDontSortRKNSt3__26vectorIN4core12basic_stringIcNS1_20StringStorageDefaultIcEEEENS_9allocatorIS5_EEEERS5_
rqa:__ZN6prcoreL17RemapGenericFloatI16TexFormatRGFloat17TexFormatRGBAHalfEEvPKNS_9InnerInfoE
eJ:__ZN12AudioManager22CreateFMODSoundFromWWWEP10IWWWStream15FMOD_SOUND_TYPE17FMOD_SOUND_FORMATjjbbP10SampleClip
U1b:__ZNK32RendererMaterialAnimationBinding15GenerateBindingERKN4core12basic_stringIcNS0_20StringStorageDefaultIcEEEEbRN11UnityEngine9Animation14GenericBindingE
Cjj:__ZN24dense_hashtable_iteratorINSt3__24pairIK10KeyWrapperINS1_IPK11Il2CppImageP11Il2CppClassEEEjEES9_17ReflectionMapHashIS8_EN14dense_hash_mapIS9_jSD_NS9_14EqualsComparerINS0_8equal_toIS8_EEEENS0_9allocatorISB_EEE9SelectKeyESI_SK_E30advance_past_empty_and_deletedEv
A7f:__Z40RuntimeInvoker_HandshakeType_t2540099417PFvvEPK10MethodInfoPvPS4_
Lci:_UnityEventBase_UnityEngine_ISerializationCallbackReceiver_OnBeforeSerialize_m1773826808
A0g:_DefaultComparer_GetHashCode_m361278435_gshared
dcj:__ZNSt3__26vectorIN6il2cpp6icalls8mscorlib6System12PropertyPairENS_9allocatorIS5_EEE21__push_back_slow_pathIS5_EEvOT_
F3:__ZN8Remapper23GetOrGenerateInstanceIDERK26SerializedObjectIdentifier
Nme:_StreamWriter_Flush_m3426120024
OSa:__ZN17FileSystemHandler10AtomicMoveER13FileEntryDataS1_
_a:invoke_iiiiiifffiiifii
qke:_MemoryStream__ctor_m1489366847
Z2c:_SecurityElement_IsValidTag_m64902195
oTg:_Enumerator_System_Collections_IEnumerator_get_Current_m229223308_AdjustorThunk
CAg:_PropertyInfo_SetValue_m2961483868
QCg:_GUILayoutEntry_set_style_m70917293
sMe:_List_1_System_Collections_IList_Contains_m4193366963_gshared
fRi:_UnityEvent_3_FindMethod_Impl_m1889846153_gshared
ozf:_DictionaryEnumerator_get_Value_m1915638953
hqg:_ConstructorInfo_Invoke_m2144827141
hvh:__ZL82Object_t1021602117_CustomAttributesCacheGenerator_Object_get_hideFlags_m4158950869P21CustomAttributesCache
otb:__ZN6Sprite8TransferI24GenerateTypeTreeTransferEEvRT_
kjc:__Z48Register_UnityEngine_Transform_SetAsFirstSiblingv
bBg:_Font_get_fontSize_m1732593415
rtb:__ZN7SubMesh8TransferI24GenerateTypeTreeTransferEEvRT_
Fzg:_MonoProperty_get_CanWrite_m2124922514
ubj:__ZN6il2cpp6icalls8mscorlib6SystemL16CheckMemberMatchI9FieldInfoNS_5utils10functional6FilterINSt3__212basic_stringIcNS8_11char_traitsIcEENS8_9allocatorIcEEEENS5_13VmStringUtils23CaseInsensitiveComparerEEEEEbPKT_PK11Il2CppClassSN_iRKT0_
pef:_CipherSuite_get_HashAlgorithmType_m3902365773
NOj:_poll
cke:_Stream_BeginRead_m1985960185
DFg:_GUIStyle_GetFontInternalDuringLoadingThread_m229734483
a0b:__ZN13ProduceHelperI14Texture2DArrayLb0EE7ProduceE18MemLabelIdentifier18ObjectCreationMode
zcf:_MD4Managed_GG_m1462438360
ofc:__Z46Mesh_CUSTOM_PrintErrorCantAccessMeshForIndicesP12Il2CppObject
sgc:__Z53PlayableHandle_CUSTOM_INTERNAL_CALL_GetPlayableTypeOfR9HPlayable
Bac:__ZN9Transform23SetSiblingIndexInternalEib
Lte:_SimpleCollator_LastIndexOfOrdinal_m45234497
She:_BinaryReader_CheckBuffer_m1059275266
eBa:__ZN13GfxDeviceGLES17DestroySubProgramEPN9ShaderLab10SubProgramE
Ut:__ZN7mecanim5human12HumanPoseSubERNS0_9HumanPoseERKS1_S4_
lcf:_MD4_Create_m2582504069
eWi:_HashSet_1_System_Collections_IEnumerable_GetEnumerator_m2498631708_gshared
Wvj:__ZN6il2cpp8metadata15GenericMetadata15GetGenericClassEiPK17Il2CppGenericInst
Vvd:_Boolean_System_IConvertible_ToInt16_m977801621
dFb:__Z18Transfer_BlittableI14SafeBinaryReadLb0E10Matrix4x4fEvRK29SerializationCommandArgumentsR31RuntimeSerializationCommandInfo
DUa:__Z24GetFixedBehaviourManagerv
Bhg:__Z69RuntimeInvoker_Void_t1841601450_Int32_t2071877448_Vector4_t2243707581PFvvEPK10MethodInfoPvPS4_
VYa:__ZN12FlareManager9UpdateJobEP25FlareManagerUpdateJobData
Zaj:__ZN6il2cpp2vm10ThreadPool4WaitEP17Il2CppAsyncResultPPv
YMj:_vfprintf
gyf:_SerializationException__ctor_m1019897788
poa:__ZL13SortTexByNameRKNSt3__24pairIN9ShaderLab16FastPropertyNameEN18UnityPropertySheet11UnityTexEnvEEES7_
GZa:__ZN20DynamicPropertySheetD0Ev
$bb:__ZN14SafeBinaryRead17RegisterConverterEPKcS1_PFbPvRS_E
$Z:__ZN35RegisterRuntimeInitializeAndCleanup8RegisterEPFvPvES2_iS0_
Mud:_AsyncCallback__ctor_m3071689932
I7e:_ReadOnlyCollection_1_System_Collections_IList_Clear_m2600246370_gshared
Zig:__Z62RuntimeInvoker_Int32_t2071877448_ParameterModifier_t1820634920PFvvEPK10MethodInfoPvPS4_
bxe:_DSAManaged_NormalizeArray_m2287089393
tjc:__Z21Object_CUSTOM_DestroyP12Il2CppObjectf
cui:_InternalEnumerator_1_System_Collections_IEnumerator_get_Current_m2389982234_AdjustorThunk
HUa:__ZN8Material26ResetAllCachedMaterialDataEP6Shader
UUh:_Selectable_get_interactable_m1725029500
a7g:__ZL66RuntimeArray_CustomAttributesCacheGenerator_Array_Sort_m3002148658P21CustomAttributesCache
rKc:_UNITY_TT_Get_MM_Var
X1i:__ZN6il2cpp6icalls8mscorlib6System7Decimal13decimal2Int64EP19il2cpp_decimal_reprPx
aa:invoke_diddi
Dbd:_ExecuteEvents__cctor_m288775360
aMc:__ZNK2UI6Canvas13GetRenderModeEv
RId:_Double_TryParseStringConstant_m2585405703
Q4h:_AudioClipPlayable_GetHandle_m234442096_AdjustorThunk
xEb:__Z18Transfer_BlittableI14SafeBinaryReadLb0EiEvRK29SerializationCommandArgumentsR31RuntimeSerializationCommandInfo
N9i:__ZN6il2cpp2vm13MetadataCache30GetPropertyDefinitionFromIndexEi
HZc:_RijndaelTransform_Clear_m1652144089
Gie:_MonoIO_GetException_m2577367044
UTc:__ZN22BaseUnityConnectClient17InitializeSessionERKN4core12basic_stringIcNS0_20StringStorageDefaultIcEEEES6_N19CloudServiceHandler13InitModeFlagsE
PVg:_Enumerator_MoveNext_m1404007384_gshared
wre:_NumberFormatter_get_IsZero_m1325357749
RXj:_emscripten_glDeleteBuffers__wrapper
tcg:__Z121RuntimeInvoker_Void_t1841601450_Single_t2076509932_Single_t2076509932_Single_t2076509932_Single_t2076509932_RuntimeObjectPFvvEPK10MethodInfoPvPS4_
aSd:_Enum_ToObject_m322320225
IRg:_Enumerator_get_Current_m2754383612_gshared
Q8b:__ZN13MonoBehaviour34StopCoroutineFromEnumeratorManagedE18ScriptingObjectPtr
j1c:_X509Certificate__ctor_m3860837120
NBc:_gray_raster_reset
s_h:_AnimationOffsetPlayable_CreateHandle_m1204489623
hBg:_GameObject_Internal_CreateGameObject_m3428198595
ggg:__Z109RuntimeInvoker_RuntimeObject_Ray_t2469606224_Single_t2076509932_Int32_t2071877448_RuntimeObject_RuntimeObjectPFvvEPK10MethodInfoPvPS4_
D7h:_Camera_RaycastTry2D_m755036866
D7e:_ReadOnlyCollection_1_System_Collections_Generic_IListU3CTU3E_set_Item_m3663361643_gshared
_D:__ZN7mecanim9animation14AvatarConstant15InitializeClassEv
Mad:_EventTrigger_OnScroll_m626934407
zBb:__ZN30RuntimeInitializeOnLoadManager8TransferI18StreamedBinaryReadILb0EEEEvRT_
d$g:_Dictionary_2__ctor_m1206668798_gshared
Lsg:_TypeBuilder_not_supported_m3178173643
wCc:_UNITY_tt_face_load_pclt
y9b:__ZL34GetComponentsImplementationRecurseILb1ELi0ELi2EEbR10GameObjectbRK17CompareParametersRK39GetComponentsImplementation_ReturnValue
_Jj:__ZN6il2cpp6icalls8mscorlib6System9Threading5Mutex20CreateMutex_internalEbP12Il2CppStringPb
vAd:_ArrayListWrapper_Remove_m1105489978
WYa:__ZNK6Camera18WorldToScreenPointERK8Vector3fPb
NGi:_X509Extension_get_Oid_m3620527052
swd:_Boolean_CompareTo_m3691698947_AdjustorThunk
Pkg:__Z84RuntimeInvoker_Void_t1841601450_RaycastResultU5BU5DU26_t2399554255_Int32_t2071877448PFvvEPK10MethodInfoPvPS4_
nEd:_HashKeys_CopyTo_m3566668422
bAa:__Z18IsCompressedFormat14GraphicsFormat
Hpi:_InternalEnumerator_1_Dispose_m549215360_AdjustorThunk
qyd:_Convert_ToSByte_m2665932200
V2:__ZNSt3__227__insertion_sort_incompleteIRPFbRKN18AwakeFromLoadQueue4ItemES4_EPS2_EEbT0_S9_T_
Grg:_ILGenerator_label_fixup_m1325994348
vXg:_ValueCollection_System_Collections_ICollection_get_IsSynchronized_m45572582_gshared
R7i:__ZN14dense_hash_mapI10KeyWrapperIN6il2cpp5utils13dynamic_arrayIPK10Il2CppTypeLj4EEEEPFvvENS1_8metadata19Il2CppSignatureHashENS8_14EqualsComparerINSB_22Il2CppSignatureCompareEEENSt3__29allocatorINSG_4pairIKS8_SA_EEEEE15set_deleted_keyERSJ_
IQh:_Navigation_Equals_m4214630671_AdjustorThunk
P4e:_ReadOnlyCollection_1_System_Collections_Generic_IListU3CTU3E_set_Item_m257196015_gshared
Twg:_FieldInfo_GetPseudoCustomAttributes_m2500972355
qqb:__ZN26EnlightenSystemInformation8TransferI14SafeBinaryReadEEvRT_
F7d:_Array_InternalArray__get_Item_TisLink_t2723257478_m2281261655_gshared
f5h:_AudioClipPlayable_INTERNAL_CALL_GetIsPlayingInternal_m4246314919
Twb:__ZN12MeshRendererD0Ev
LBi:_ExpressionAssertion_IsComplex_m783019628
oDd:_Hashtable__ctor_m2702360557
Eh:_utime
Oae:_DateTimeFormatInfo_get_RawAbbreviatedDayNames_m3998113647
G1g:_DefaultComparer_GetHashCode_m2596628120_gshared
Zaf:_PrimalityTest_Invoke_m4058801829
a9d:_Mesh_GetAllocArrayFromChannel_TisRuntimeObject_m1450958222_gshared
tn:FUNCTION_TABLE_viiiiif
XBf:_RemotingConfiguration_SetCustomErrorsMode_m1844153208
yn:FUNCTION_TABLE_viiiiii
yUd:_CultureInfo_GetFormat_m3560116485
JC:__ZN7mecanim9animation22DestroyAvatarWorkspaceEPNS0_15AvatarWorkspaceERNS_6memory9AllocatorE
XSj:dynCall_viddi
DHi:_ScriptableObject_CreateInstance_m3271154163
Yld:__ZN21InterfaceFuncInvoker0IiE6InvokeEjP11Il2CppClassP12Il2CppObject
NAi:_AnchorInfo_get_IsPosition_m3791659233
O_d:_Array_InternalArray__IndexOf_TisResourceCacheItem_t333236149_m761772858_gshared
Pkc:__ZNSt3__210__list_impIN10GUIManager12SortedScriptE11memory_poolIS2_EE5clearEv
Dkh:__ZL76Convert_t2607082565_CustomAttributesCacheGenerator_Convert_ToInt64_m44696721P21CustomAttributesCache
tnb:__ZN14PlayableOutput17SetSourcePlayableEP8Playable
mCf:_TrackingServices__cctor_m3639412334
KOi:_InvokableCall_1_add_Delegate_m3068046591_gshared
snc:__Z32GUIStyle_Set_Custom_PropRichTextP12Il2CppObjecth
bC:__ZN7mecanim9animation29MotionOutputGetDeltaTransformEPKNS0_12MotionOutputE
WZb:__Z13RegisterClassI16GraphicsSettingsEvv
HXg:_ValueCollection_System_Collections_IEnumerable_GetEnumerator_m1773104428_gshared
uE:__ZN8Animator14OnAddComponentEPN5Unity9ComponentE
xSe:_List_1_CheckMatch_m1184924052_gshared
Jic:__Z43Transform_CUSTOM_INTERNAL_get_localRotationP12Il2CppObjectP11Quaternionf
kKi:_Touch_get_fingerId_m4109475843_AdjustorThunk
ZVj:_glGetShaderInfoLog__wrapper
gi:_emscripten_glGetTexParameteriv
eMe:_List_1_ToArray_m3752387798_gshared
fTh:_ScrollRect_get_elasticity_m3987376518
udf:_RSAManaged_ImportParameters_m3060955884
RAe:_DeriveBytes__ctor_m3089550878
Tfi:_ChannelData_CopyFrom_m4049054607
a_b:__Z13RegisterClassI4MeshEvv
mHh:__ZL94AxisEventData_t1524870173_CustomAttributesCacheGenerator_AxisEventData_get_moveDir_m3968662359P21CustomAttributesCache
Tmb:__ZN8PlayableD0Ev
cU:__Z84Register_UnityEngine_Audio_AudioMixerPlayable_INTERNAL_CALL_SetAutoNormalizeInternalv
vK:__ZN12AudioManager8TransferI19StreamedBinaryWriteILb0EEEEvRT_
Jke:_WriteDelegate_Invoke_m2103848735
dNe:_List_1_get_Capacity_m4262042666_gshared
vVi:_GenericEqualityComparer_1_GetHashCode_m1950634276_gshared
VOb:__ZN18StreamedBinaryReadILb1EE21TransferSTLStyleArrayI13dynamic_arrayI11ColorRGBA32Lj4EEEEvRT_17TransferMetaFlags
rVg:_Transform_1_EndInvoke_m687617772_gshared
KSi:_Locale_GetText_m512920887
T1b:__ZNK32RendererMaterialAnimationBinding12GetPPtrValueERKN11UnityEngine9Animation10BoundCurveE
LPb:__Z18Transfer_BlittableI18StreamedBinaryReadILb0EELb0E8Vector2fEvRK29SerializationCommandArgumentsR31RuntimeSerializationCommandInfo
FBf:_RemotingConfiguration_get_ProcessId_m3870172209
JOc:__ZN2UI11CanvasGroup12CleanupClassEv
Kce:_SortKey_ToString_m2406913228
Qea:__ZN22LocalFileSystemHandler9MakeLocalER13FileEntryDatab
EDj:__ZN6il2cpp2vm8Profiler10AllocationEP12Il2CppObjectP11Il2CppClass
YHd:_Convert_ToDateTime_m1020507389
q4b:__ZNK9HPlayable7IsValidEv
Rzc:__ZNSt3__23mapIN20TextRenderingPrivate7FontRefENS1_6OSFontENS_4lessIS2_EENS_9allocatorINS_4pairIKS2_S3_EEEEEixERS8_
Bca:__Z13FormatOrderedPKcz
Eie:_Path_IsPathRooted_m1347207448
yDf:_ObjectManager_RegisterObjectInternal_m879109503
SUd:_Array_get_swapper_TisVector4_t2243707581_m97441823_gshared
Oxa:__ZNSt3__26__sortIRNS_4lessIiEEPiEEvT0_S5_T_
bxc:__ZN14SafeBinaryRead21TransferSTLStyleArrayI10vector_mapINSt3__24pairIttEEfN20TextRenderingPrivate8FontImpl14KerningCompareENS2_9allocatorINS3_IS4_fEEEEEEEvRT_17TransferMetaFlags
w_b:__Z13RegisterClassI15QualitySettingsEvv
lCj:__ZN6il2cpp2vm6String21InitializeEmptyStringEP11Il2CppClass
c4a:__ZN25DeferredRenderLoopScratchD0Ev
gw:__ZN27AnimationLayerMixerPlayable14SetInputWeightEif
Qt:__ZN7mecanim9animation17EvaluateHumanPoseERKNS0_18ClipMuscleConstantERKNS0_15ClipMuscleInputEPKfRKNS0_12MotionOutputERNS_5human9HumanPoseE
Dih:__ZL90UTF7Encoding_t741406939_CustomAttributesCacheGenerator_UTF7Encoding_GetHashCode_m359766848P21CustomAttributesCache
SSb:__ZN15dense_hashtableINSt3__24pairIKiN4core17string_with_labelILi1EEEEEi18SInt32HashFunctionN14dense_hash_mapIiS5_S7_NS0_8equal_toIiEE13stl_allocatorIS6_L18MemLabelIdentifier1ELi16EEE9SelectKeyESA_SD_E9copy_fromERKSG_j
qka:__ZN6Camera11ResetAspectEv
aRf:_Type_get_IsGenericType_m3396841573
bYa:__ZNSt3__227__insertion_sort_incompleteIRPFbP10GUIElementS2_EPS2_EEbT0_S7_T_
tsf:_X509BasicConstraintsExtension_get_HasPathLengthConstraint_m3788532759
Ulb:__ZNK17InstancedPropInfo22FillInstancePropertiesER19ShaderPropertySheetjPK17BatchInstanceDatajRK15RenderNodeQueue
Rla:__ZN22CreateGpuProgramOutputD2Ev
Jdh:__ZL58_AssemblyBuilder_t418776366_CustomAttributesCacheGeneratorP21CustomAttributesCache
FLb:__Z18Transfer_BlittableI19StreamedBinaryWriteILb0EELb1EsEvRK29SerializationCommandArgumentsR31RuntimeSerializationCommandInfo
R_c:_RSACryptoServiceProvider_EncryptValue_m802714447
Ksj:__ZN6il2cpp6icalls8mscorlib6System2IO6MonoIO9SetLengthE12Il2CppIntPtrxPi
akh:__ZL76Convert_t2607082565_CustomAttributesCacheGenerator_Convert_ToByte_m932798552P21CustomAttributesCache
gS:__ZN13ProduceHelperI13AudioListenerLb0EE7ProduceE18MemLabelIdentifier18ObjectCreationMode
OHe:_List_1_System_Collections_ICollection_get_SyncRoot_m1594235606_gshared
t9d:_DateTimeFormatInfo_GetInstance_m3133223810
raf:_ModulusRing_BarrettReduction_m2802101099
tRa:__ZN12HandlerChain4OpenER13FileEntryData14FilePermission16FileAutoBehavior
NTi:_EqualityComparer_1_get_Default_m2134906921_gshared
Mxg:_MonoMethodInfo_GetParametersInfo_m3456861922
zij:__ZN15dense_hashtableINSt3__24pairIK10KeyWrapperINS1_IPK10MethodInfoP11Il2CppClassEEEjEES9_17ReflectionMapHashIS8_EN14dense_hash_mapIS9_jSD_NS9_14EqualsComparerINS0_8equal_toIS8_EEEENS0_9allocatorISB_EEE9SelectKeyESI_SK_E6insertERKSB_
qsa:__ZN18AssetBundleManager55CollectPreloadObjectsFromAssetBundleLoadAssetOperationsER13dynamic_arrayIiLj4EE
J5:__ZN14FileCacherReadD2Ev
fxa:__ZN13RendererScene23UpdatePreviousFrameDataEii
e$c:_RSAPKCS1SignatureDeformatter_VerifySignature_m1825067195
Qcc:__Z50Register_UnityEngine_CullingGroup_FinalizerFailurev
TDe:_KeyValuePair_2_ToString_m2613351884_gshared
_ra:__ZN27UnloadUnusedAssetsOperationD0Ev
fkb:__ZN6Camera15ThreadedCleanupEv
cx:__ZN26AnimatorControllerPlayable6MemoryD2Ev
lJh:__ZL69ColorBlock_t2652774230_CustomAttributesCacheGenerator_m_DisabledColorP21CustomAttributesCache
sef:_CipherSuite_get_Code_m3902213587
KRh:_Scrollbar__ctor_m2244981801
Gsj:__ZN6il2cpp6icalls8mscorlib6System2IO6MonoIO9GetLengthE12Il2CppIntPtrPi
BEf:_ObjectRecord_get_HasPendingFixups_m670959802
I$c:_SHA256Managed_HashCore_m4111458495
oUd:_CultureInfo_get_CompareInfo_m3085280862
zEf:_ObjectManager_RecordDelayedFixup_m1895730844
Stj:__ZNK15dense_hashtableINSt3__24pairIK10KeyWrapperIP14Il2CppIUnknownEjEES5_N6il2cpp5utils11PointerHashIS3_EEN14dense_hash_mapIS5_jSB_NS5_14EqualsComparerINS0_8equal_toIS4_EEEENS0_9allocatorIS7_EEE9SelectKeyESG_SI_E12test_deletedERK24dense_hashtable_iteratorIS7_S5_SB_SK_SG_SI_E
tOe:_List_1_System_Collections_IList_get_IsFixedSize_m3522184224_gshared
xI:__ZN9AudioClip23VirtualRedirectTransferER18StreamedBinaryReadILb0EE
Lgf:_ClientSessionInfo_CheckDisposed_m1394638186
zGf:_SByte_Parse_m2544167007
P4c:_Single_CompareTo_m2081476257
aQd:_StackFrame_GetILOffset_m115192054
OFf:_RuntimeTypeHandle_GetHashCode_m3697629454_AdjustorThunk
que:_BigInteger__ctor_m2945783161
vif:_TlsClientHello_Update_m1723542631
efh:__ZL96ProxyAttribute_t4031752430_CustomAttributesCacheGenerator_ProxyAttribute_IsContextOK_m2391079277P21CustomAttributesCache
Pde:_IndexOutOfRangeException__ctor_m3497760912
Ojg:__Z60RuntimeInvoker_Void_t1841601450_AnimatorClipInfo_t3905751349PFvvEPK10MethodInfoPvPS4_
l6e:_ReadOnlyCollection_1_CopyTo_m1652036789_gshared
Fj:_glCopyTexSubImage2D
xBf:_RealProxy_InternalGetTransparentProxy_m3415358600
a2b:__ZNK24RendererAnimationBinding13GetFloatValueERKN11UnityEngine9Animation10BoundCurveE
tX:__ZNK15DownloadHandler14HasPendingDataEv
TVe:_Collection_1_Insert_m3594407958_gshared
Lda:__ZN18ScreenManagerWebGL13SetShowCursorEb
CDj:__ZN6il2cpp6icalls8mscorlib6System7Convert24InternalFromBase64StringEP12Il2CppStringb
L0c:_SymmetricAlgorithm_CreateDecryptor_m4240570785
xXh:_Text_get_preferredWidth_m3352156860
ipg:_AssemblyCompanyAttribute__ctor_m1217508649
MOc:__ZN2UI13CanvasManager14GetRenderOrderEPKNS_6CanvasE
bFb:__Z18Transfer_BlittableI14SafeBinaryReadLb0E5RectTIfEEvRK29SerializationCommandArgumentsR31RuntimeSerializationCommandInfo
T5e:_ReadOnlyCollection_1_System_Collections_Generic_IListU3CTU3E_RemoveAt_m878653284_gshared
z9d:_DateTimeFormatInfo_GetFormat_m3676195179
uGa:__ZN14GfxContextGLES14GetFramebufferEv
Fbg:__Z92RuntimeInvoker_Void_t1841601450_PlayableHandleU26_t4210769902_RuntimeObject_SByte_t454417549PFvvEPK10MethodInfoPvPS4_
cpa:__ZN6prcoreL21CreateRemapAnyBlitterE13TextureFormatS0_
TLj:__ZN6il2cpp2os5Event4WaitEjb
H7b:__ZN17AnimationCurveTplIfE16StripInvalidKeysEv
K$d:_Array_InternalArray__ICollection_Add_TisKeyValuePair_2_t3716250094_m2381539361_gshared
BBe:_X509Extension_WriteLine_m2850991173
FNc:__ZNK2UI6Canvas17GetSortingLayerIDEv
Q5g:__ZL40UIntPtr_t_CustomAttributesCacheGeneratorP21CustomAttributesCache
sej:_il2cpp_method_has_attribute
Q3b:__Z13RegisterClassI17GlobalGameManagerEvv
J6a:__ZN8Renderer24SetupNewRendererForSceneEv
lNh:__ZL70GridLayoutGroup_t1515633077_CustomAttributesCacheGenerator_m_StartAxisP21CustomAttributesCache
LI:__ZL16FMOD_ErrorString11FMOD_RESULT_599
pWd:_Array_InternalArray__ICollection_Remove_TisInt64_t909078037_m2653583130_gshared
LKe:_List_1_AddCollection_m2628217188_gshared
tMf:_Thread_get_ExecutionContext_m922067206
gtc:__Z35Transfer_Blittable_FixedBufferFieldI8JSONReadtEvRK29SerializationCommandArgumentsR31RuntimeSerializationCommandInfo
vgf:_RecordProtocol_get_Context_m2688493529
cna:__ZN4PPtrI7TextureE8TransferI14SafeBinaryReadEEvRT_
N4b:__ZN14PlayableOutput6HandleEv
Lsb:__ZNK6Sprite22GetTypeVirtualInternalEv
nTh:_ScrollRect_get_viewport_m3177057249
sn:FUNCTION_TABLE_iiiiiiiiiiiiii
U5f:__Z100RuntimeInvoker_Void_t1841601450_SByte_t454417549_SByte_t454417549_Int32_t2071877448_SByte_t454417549PFvvEPK10MethodInfoPvPS4_
Bai:_CustomYieldInstruction_get_Current_m1743233962
tTc:__ZN19UnityConnectService18OnPlayerQuitStaticEPS_
mDc:_UNITY_tt_get_cmap_info
f8c:_DecoderExceptionFallback_GetHashCode_m2972426052
jab:__ZN16ReflectionProbes8ScheduleEN18ReflectionProbeJob7JobTypeEP15ReflectionProbei
g$e:_Collection_1_IsFixedSize_m3675221982_gshared
Mkh:__ZL77Convert_t2607082565_CustomAttributesCacheGenerator_Convert_ToSByte_m883113940P21CustomAttributesCache
DGe:_Enumerator_MoveNext_m3293920409_AdjustorThunk
ffa:__Z18IsDirectoryCreatedRKN4core12basic_stringIcNS_20StringStorageDefaultIcEEEE
ikg:__Z68RuntimeInvoker_Void_t1841601450_Int32_t2071877448_Double_t4078015681PFvvEPK10MethodInfoPvPS4_
LMc:__ZN2UI13CanvasManagerD2Ev
Cwi:_Comparer_1__cctor_m3112251759_gshared
ZLh:__ZL73ScrollRect_t1199013257_CustomAttributesCacheGenerator_m_VerticalScrollbarP21CustomAttributesCache
Drf:_X509KeyUsageExtension_ToString_m1992050580
wzc:_UNITY_FT_GlyphLoader_Done
_Ai:_BalancingGroup__ctor_m2474435406
ajg:__Z49RuntimeInvoker_Int32_t2071877448_Byte_t3683104436PFvvEPK10MethodInfoPvPS4_
Cfi:_ConstructionCall__ctor_m1143766850
HHg:_GUIStyleState_Init_m2434147050
Dwi:_Comparer_1_System_Collections_IComparer_Compare_m3203078743_gshared
KDf:_ObjectReader_ReadArrayOfString_m3752210963
lNg:_PlayableHandle_IsValid_m1005197654_AdjustorThunk
aCh:__ZL67GUISkin_t1436893342_CustomAttributesCacheGenerator_m_verticalSliderP21CustomAttributesCache
p$i:_Terminal_WriteLine_m3165006896
aEc:_tt_cmap14_char_var_index
DQb:__Z35Transfer_Blittable_FixedBufferFieldI18StreamedBinaryReadILb0EEdEvRK29SerializationCommandArgumentsR31RuntimeSerializationCommandInfo
zFc:_psh_globals_new
xke:_FileStream_Seek_m950719389
wdd:_StandaloneInputModule_set_allowActivationOnMobileDevice_m2631121618
hId:_Decimal_stripStyles_m294582157
Y2h:_AnimatorControllerPlayable_Play_m614561002
lAa:__ZN9GfxDevice20SetMaxBufferedFramesEi
YMe:_List_1_RemoveAll_m4125997475_gshared
ehg:__Z72RuntimeInvoker_Boolean_t3825574718_TypeU26_t1535498077_Int32_t2071877448PFvvEPK10MethodInfoPvPS4_
K_f:__Z98RuntimeInvoker_Void_t1841601450_Int32_t2071877448_Int32_t2071877448_RuntimeObject_SByte_t454417549PFvvEPK10MethodInfoPvPS4_
dN:__ZN24AudioScriptBufferManagerD2Ev
$Rj:dynCall_vdd
iOc:__ZN2UIL17UnloadAllCanvasesEv
udb:__Z23ConvertIntegerToTypePtrIsEbPvR14SafeBinaryRead
Sdh:__ZL54_MethodBase_t1935530873_CustomAttributesCacheGeneratorP21CustomAttributesCache
JTi:_EqualityComparer_1__ctor_m99476293_gshared
Daf:_BigInteger_Incr2_m505983313
m6h:_PCMReaderCallback_BeginInvoke_m3119095492
wzd:_ArrayList_get_Count_m523955479
p1f:__Z96RuntimeInvoker_Void_t1841601450_SByte_t454417549_RuntimeObject_SByte_t454417549_SByte_t454417549PFvvEPK10MethodInfoPvPS4_
SAd:_FixedSizeArrayListWrapper_Remove_m1359458911
kpa:__ZN6prcoreL29inner_stretch_rgb565_bilinearEPKNS_9InnerInfoE
uCi:_Uri__ctor_m3927533881
Mgj:__ZNK15dense_hashtableINSt3__24pairIK10KeyWrapperINS1_IPK14Il2CppAssemblyP11Il2CppClassEEEjEES9_17ReflectionMapHashIS8_EN14dense_hash_mapIS9_jSD_NS9_14EqualsComparerINS0_8equal_toIS8_EEEENS0_9allocatorISB_EEE9SelectKeyESI_SK_E12test_deletedEj
_2g:_EqualityComparer_1_System_Collections_IEqualityComparer_Equals_m3724603646_gshared
xQc:__Z33Canvas_Get_Custom_PropWorldCameraP12Il2CppObject
LWh:_Text_get_mainTexture_m813502234
HLj:__ZN6il2cpp8metadata19Il2CppSignatureHash4HashERKNS_5utils13dynamic_arrayIPK10Il2CppTypeLj4EEE
j3a:__ZNK14RenderSettings19GetFlatAmbientColorEv
sva:__ZN6prcoreL10inner_flipILj4EEEvPhS1_j
_yb:__ZN18StreamedBinaryReadILb0EE21TransferSTLStyleArrayI10vector_mapIPKN5Unity4TypeE7Hash128NSt3__24lessIS6_EENS8_9allocatorINS8_4pairIS6_S7_EEEEEEEvRT_17TransferMetaFlags
ey:__ZNK27StateMachineBehaviourPlayer15IsSenderEnabledEv
g0h:_AnimatorControllerPlayable_SetInteger_m881630854
tRg:_Enumerator_VerifyState_m2118679243_gshared
hod:_InputField_get_shouldHideMobileInput_m3694613599
fjc:__Z40Register_UnityEngine_Transform_SetParentv
t6h:_AudioConfigurationChangeHandler_Invoke_m635374412
llf:_SslClientStream_get_HaveRemoteValidation2Callback_m3555576758
y5f:__Z56RuntimeInvoker_TimeSpan_t3430258949_TimeSpan_t3430258949PFvvEPK10MethodInfoPvPS4_
Eub:__ZN14Texture2DArray17UploadToGfxDeviceEv
n5e:_ReadOnlyCollection_1_System_Collections_Generic_IListU3CTU3E_Insert_m4216310986_gshared
x1e:_ReadOnlyCollection_1_System_Collections_Generic_IListU3CTU3E_set_Item_m1532495847_gshared
aM:__Z14FMODMemoryFreePvjPKc
pli:_InternalEnumerator_1_System_Collections_IEnumerator_Reset_m3731327620_AdjustorThunk
dIh:__ZL104PointerEventData_t1599784723_CustomAttributesCacheGenerator_PointerEventData_get_worldNormal_m1704987468P21CustomAttributesCache
NNi:_YieldInstruction_t3462875981_marshal_pinvoke_cleanup
Knd:_Image_AddQuad_m1600600902
SGc:_cf2_glyphpath_moveTo
dIi:_SharedBetweenAnimatorsAttribute__ctor_m1221241062
Jed:_AnimationTriggers_set_disabledTrigger_m609579531
xah:__ZL47File_t1930543328_CustomAttributesCacheGeneratorP21CustomAttributesCache
WMd:_DateTimeOffset__ctor_m1796624924
EDg:_GUILayoutUtility_get_spaceStyle_m1918520192
Y9c:_BaseRaycaster_OnDisable_m1716508791
Nu:__ZN7mecanim23TransformValueArrayLoopEiiiRKN4math4trsXES3_RNS_10ValueArrayEf
ybf:_ASN1Convert_ToInt32_m2121135414
Ari:_InternalEnumerator_1_MoveNext_m1741571735_gshared
jlc:__ZN5IMGUI14GUIWindowStateD2Ev
a6g:__ZL82Enum_t2459695545_CustomAttributesCacheGenerator_Enum_GetUnderlyingType_m3513899012P21CustomAttributesCache
HHj:_GC_is_heap_ptr
tqj:__GLOBAL__sub_I_Assembly_cpp
Wif:_TlsServerSettings_set_CertificateRequest_m3419519893
pB:__ZN7mecanim5human10RetargetToEPKNS0_5HumanEPKNS0_9HumanPoseES6_RKN4math4trsXEPS4_PNS_8skeleton13SkeletonPoseTIS8_EESF_
Gu:__ZN7mecanim9animation8SeekClipERKNS0_12StreamedClipERNS0_18StreamedClipMemoryEf
eRf:_Type_get_IsGenericParameter_m161434704
Uug:_MethodBuilder_get_Attributes_m3678061338
jm:_emscripten_glIsTexture
KJg:_Mathf_Clamp_m3542052159
yAd:_ArrayListWrapper_CopyTo_m793444109
_kh:__ZL79Convert_t2607082565_CustomAttributesCacheGenerator_Convert_ToUInt16_m3265369225P21CustomAttributesCache
Qk:_emscripten_glHint
dmg:__Z33RuntimeInvoker_Color32_t874517518PFvvEPK10MethodInfoPvPS4_
eKc:_ft_var_readpackeddeltas
nMd:_DateTime_AddMilliseconds_m1813199744_AdjustorThunk
fGf:_SByte_System_IConvertible_ToSByte_m108774324_AdjustorThunk
Yug:_MethodBuilder_GetParameterCount_m467267889
Pgc:__Z65PlayableOutputHandle_CUSTOM_INTERNAL_CALL_GetPlayableOutputTypeOfR15HPlayableOutput
CNb:__Z35Transfer_Blittable_FixedBufferFieldI18StreamedBinaryReadILb1EEtEvRK29SerializationCommandArgumentsR31RuntimeSerializationCommandInfo
RYh:_AnimationEvent_set_intParameter_m1174062029
Tuf:_X509ChainStatus_t4278378721_marshal_pinvoke
kdf:_RSAManaged__ctor_m1680944437
mm:_SDL_UpperBlit
LGg:_GUIStyle_op_Implicit_m781448948
R3a:__Z35GetTextureDecodeValuesWithIntensity16TextureUsageMode17TextureColorSpace10ColorSpacef
Cxd:_Byte_GetHashCode_m2885528842_AdjustorThunk
Pmj:__ZN15dense_hashtableINSt3__24pairIK10KeyWrapperINS1_IPK9EventInfoP11Il2CppClassEEEjEES9_17ReflectionMapHashIS8_EN14dense_hash_mapIS9_jSD_NS9_14EqualsComparerINS0_8equal_toIS8_EEEENS0_9allocatorISB_EEE9SelectKeyESI_SK_E15set_deleted_keyERKSB_
vYg:_Dictionary_2_OnDeserialization_m2092139626_gshared
sxj:__ZNK6il2cpp2os6Socket12GetLastErrorEv
rCb:__ZN14SafeBinaryRead20OverrideRootTypeNameEPKc
j2i:__ZNK10KeyWrapperIPK22Il2CppGenericParameterE14EqualsComparerINSt3__28equal_toIS2_EEEclERKS3_SA_
N5:__ZN14FileCacherRead16UnlockCacheBlockEj
FAe:_X509Certificate_GetUnsignedBigInteger_m3491353542
pxc:__ZNSt3__26vectorIN4core12basic_stringIcNS1_20StringStorageDefaultIcEEEE13stl_allocatorIS5_L18MemLabelIdentifier34ELi16EEE6assignINS_11__wrap_iterIPS5_EEEENS_9enable_ifIXaasr21__is_forward_iteratorIT_EE5valuesr16is_constructibleIS5_NS_15iterator_traitsISF_E9referenceEEE5valueEvE4typeESF_SF_
sBh:__ZL90Event_t3028476042_CustomAttributesCacheGenerator_Event_Internal_GetMousePosition_m38523489P21CustomAttributesCache
UHb:__Z18Transfer_BlittableI17RemapPPtrTransferLb1E8Vector3fEvRK29SerializationCommandArgumentsR31RuntimeSerializationCommandInfo
tbh:__ZL57StackBehaviour_t1390406961_CustomAttributesCacheGeneratorP21CustomAttributesCache
XRj:dynCall_iifii
Rc:_emscripten_glUniform1f
CRa:__ZNK12HandlerChain4SizeERK13FileEntryData
Xzc:__Z20ParseImageParametersR11UTF16StringRiRN20TextRenderingPrivate16TextFormatChangeE
Wc:_emscripten_glUniform1i
Xpi:_InternalEnumerator_1_System_Collections_IEnumerator_Reset_m651165750_AdjustorThunk
jCb:__ZN13MonoBehaviour9CallAwakeEv
v7:__Z33UnregisterDeviceEventCallbackImplPFv23UnityGfxDeviceEventTypeE
LDg:__Z14bankers_roundff
u2h:_AnimatorControllerPlayable_CrossFade_m3391147919
sUb:__ZN9ShaderLab16SerializedTagMapaSERKS0_
KXd:_SetPropertyUtility_SetStruct_TisFillMethod_t1640962579_m1867757822_gshared
PV:__ZN11UnityEngine15CloudWebService16SessionContainer20RestoreSessionHeaderERKN4core12basic_stringIcNS2_20StringStorageDefaultIcEEEES8_RNS0_13SessionHeaderE
KMd:_DateTime_ToString_m1117481977
FWc:__ZN22UnityWebRequestManager13BackendRetainEv
rac:__ZN8Material28ApplyMaterialPropertyDrawersEv
tug:_GenericTypeParameterBuilder_GetGenericArguments_m277381309
Emg:__Z63RuntimeInvoker_KeyValuePair_2_t888819835_IntPtr_t_RuntimeObjectPFvvEPK10MethodInfoPvPS4_
xC:__ZN11UnityEngine9Animation27CreateAvatarBindingConstantER9TransformPKN7mecanim9animation14AvatarConstantERNS3_6memory9AllocatorE
YAb:__ZN14SafeBinaryRead21TransferSTLStyleArrayINSt3__26vectorIN30RuntimeInitializeOnLoadManager9ClassInfoE13stl_allocatorIS4_L18MemLabelIdentifier12ELi16EEEEEEvRT_17TransferMetaFlags
PUf:_UnitySerializationHolder_GetObjectData_m2280028722
pTf:_UInt64_System_IConvertible_ToDateTime_m2412118561
eac:__ZN9BlobWriteC2ER13dynamic_arrayIhLj16EE24TransferInstructionFlags19BuildTargetPlatform
c4:__ZN14MessageHandler3GetEv
bFg:_GUISkin_set_verticalScrollbarThumb_m2647835739
id:_emscripten_glAttachShader
e4e:_ReadOnlyCollection_1__ctor_m1539890895_gshared
kAa:__ZN9GfxDevice13SetActiveTierE12GraphicsTier
nFe:_Enumerator_System_Collections_IEnumerator_get_Current_m3079057684_AdjustorThunk
mQe:_List_1_System_Collections_ICollection_get_SyncRoot_m1804424478_gshared
Ixb:__ZNSt3__26vectorIN4core12basic_stringIcNS1_20StringStorageDefaultIcEEEENS_9allocatorIS5_EEE6assignIPS5_EENS_9enable_ifIXaasr21__is_forward_iteratorIT_EE5valuesr16is_constructibleIS5_NS_15iterator_traitsISC_E9referenceEEE5valueEvE4typeESC_SC_
vxe:_KeyPairPersistence_get_UserPath_m3433052783
XXe:_Collection_1_ClearItems_m1410275009_gshared
jng:__Z36RuntimeInvoker_Enumerator_t975728254PFvvEPK10MethodInfoPvPS4_
o5g:__ZL58Decimal_t724701077_CustomAttributesCacheGenerator_MinusOneP21CustomAttributesCache
NYd:_Array_InternalArray__IEnumerable_GetEnumerator_TisKeyframe_t1449471340_m3949799719_gshared
MEb:__Z18Transfer_BlittableI14SafeBinaryReadLb0E11QuaternionfEvRK29SerializationCommandArgumentsR31RuntimeSerializationCommandInfo
lQb:__Z18Transfer_BlittableI18StreamedBinaryReadILb0EELb1E12PropertyNameEvRK29SerializationCommandArgumentsR31RuntimeSerializationCommandInfo
buh:__ZL99MonoBehaviour_t1158329972_CustomAttributesCacheGenerator_MonoBehaviour_set_useGUILayout_m2666356651P21CustomAttributesCache
dpd:_InputField_get_inputType_m2187991661
K_:_tlsf_walk_heap
dAe:_PKCS12_Decode_m731190390
apj:__ZNK15dense_hashtableINSt3__24pairIK10KeyWrapperIP11Il2CppClassES4_EES5_N6il2cpp8metadata16SZArrayClassHashEN14dense_hash_mapIS5_S4_SA_NS5_14EqualsComparerINS9_19SZArrayClassCompareEEENS0_9allocatorIS7_EEE9SelectKeyESE_SG_E10test_emptyERK24dense_hashtable_iteratorIS7_S5_SA_SI_SE_SG_E
dri:_InternalEnumerator_1_get_Current_m1550231132_gshared
ZAi:_Reference_get_IgnoreCase_m2810892634
aVf:_Version_CheckedSet_m76493673
nb:invoke_vif
AEh:__ZL99SendMouseEvents_t3505065032_CustomAttributesCacheGenerator_SendMouseEvents_SetMouseMoved_m532965689P21CustomAttributesCache
ob:invoke_vid
$Pj:__ZNSt3__212basic_stringIcNS_11char_traitsIcEENS_9allocatorIcEEE6insertEjPKc
bih:__ZL67UnverifiableCodeAttribute_t765455733_CustomAttributesCacheGeneratorP21CustomAttributesCache
pb:invoke_vii
hrh:__ZL86Component_t3819376471_CustomAttributesCacheGenerator_Component_SendMessage_m3615678587P21CustomAttributesCache
aMh:__ZL82ScrollRect_t1199013257_CustomAttributesCacheGenerator_m_HorizontalScrollbarSpacingP21CustomAttributesCache
wmd:_LayoutGroup_get_padding_m1653511445
Hfb:__ZN12TLSAllocatorI14StackAllocatorE16ThreadInitializeEP13BaseAllocator
Wzd:_ArrayList_Sort_m2778059513
OEh:__ZL107StackTraceUtility_t1881293839_CustomAttributesCacheGenerator_StackTraceUtility_SetProjectFolder_m2154926761P21CustomAttributesCache
Bmd:_LayoutGroup_SetChildAlongAxis_m2732017156
EPc:__Z41CanvasRenderer_CUSTOM_DisableRectClippingP12Il2CppObject
bcf:_MD2_Create_m539024737
aFd:_SortedList_get_SyncRoot_m3299704254
FHe:_List_1_System_Collections_ICollection_CopyTo_m2020941110_gshared
CFd:_Slot_t2267560602_marshal_pinvoke
W6f:__Z112RuntimeInvoker_Void_t1841601450_RuntimeObject_Int32_t2071877448_Int32_t2071877448_RuntimeObject_SByte_t454417549PFvvEPK10MethodInfoPvPS4_
hAf:_SoapAttribute_get_XmlNamespace_m1436066016
gRa:__ZN25SingleBlockMemoryFileDataD0Ev
Fhb:__ZNSt3__26vectorI14ConstantStringNS_9allocatorIS1_EEE6assignINS_11__wrap_iterIPS1_EEEENS_9enable_ifIXaasr21__is_forward_iteratorIT_EE5valuesr16is_constructibleIS1_NS_15iterator_traitsISA_E9referenceEEE5valueEvE4typeESA_SA_
KV:__ZN11UnityEngine15CloudWebService16SessionContainer21ConvertFromFolderTimeERKN4core12basic_stringIcNS2_20StringStorageDefaultIcEEEEPjPt
gGb:__ZNSt3__26vectorI8GUIStyle13stl_allocatorIS1_L18MemLabelIdentifier1ELi16EEE7reserveEj
pqj:__ZN6il2cpp6icalls8mscorlib6System9Threading6Thread27GetSerializedCurrentCultureEP12Il2CppThread
Fsi:_InternalEnumerator_1_Dispose_m3765482968_AdjustorThunk
X_d:_Array_InternalArray__IndexOf_TisUInt32_t2149682021_m3231515987_gshared
dni:_InternalEnumerator_1_MoveNext_m1667794624_AdjustorThunk
V$b:__Z31CalculateHierarchyTransformType23TransformAccessReadOnly
p_b:__Z13RegisterClassI11TimeManagerEvv
SL:__ZN4FMOD8ChannelI11setPositionEjj
g0f:__Z136RuntimeInvoker_IntPtr_t_RuntimeObject_Int32_t2071877448_Int32_t2071877448_Int32_t2071877448_Int32_t2071877448_MonoIOErrorU26_t1029615899PFvvEPK10MethodInfoPvPS4_
R9h:_Component_SendMessage_m913946877
RMh:__ZL75ToggleGroup_t1030026315_CustomAttributesCacheGenerator_U3CU3Ef__amU24cache1P21CustomAttributesCache
yii:_SynchronizedClientContextSink__ctor_m978504596
Cba:__ZN17BaseObjectManager13StaticDestroyEPv
iJi:_TextGenerationSettings_CompareVector2_m592645251
PEh:__ZL108StackTraceUtility_t1881293839_CustomAttributesCacheGenerator_StackTraceUtility_ExtractStackTrace_m1593581205P21CustomAttributesCache
xNd:_DBNull_System_IConvertible_ToChar_m3344298044
qBe:_X509Certificate_GetObjectData_m3888130484
sAb:__ZNSt3__26vectorIN15ResourceManager10DependencyE13stl_allocatorIS2_L18MemLabelIdentifier51ELi16EEEC2INS_11__wrap_iterIPS2_EEEET_SB_RKS5_PNS_9enable_ifIXaasr21__is_forward_iteratorISB_EE5valuesr16is_constructibleIS2_NS_15iterator_traitsISB_E9referenceEEE5valueEvE4typeE
Dai:_CustomYieldInstruction_Reset_m3409422382
wxi:_LinkStack_Push_m2660199875
MK:__ZN4FMOD6Reverb13setPropertiesEPK22FMOD_REVERB_PROPERTIES
hoj:__ZN15dense_hashtableINSt3__24pairIK10KeyWrapperIP11Il2CppClassES4_EES5_N6il2cpp8metadata16SZArrayClassHashEN14dense_hash_mapIS5_S4_SA_NS5_14EqualsComparerINS9_19SZArrayClassCompareEEENS0_9allocatorIS7_EEE9SelectKeyESE_SG_E5clearEv
o_a:__ZN9DepthPass13PrepareSubsetEjRK10RenderNodeifRK17ShaderReplaceData
yIg:_Input_get_compositionString_m636835668
CEi:_X509CertificateCollection_Add_m4008705157
zzf:_MonoMethodMessage_set_Uri_m3218581120
w6b:__Z35SetMeshComponentFromArrayFromScriptR4Mesh30InternalScriptingShaderChannel34InternalScriptingVertexChannelTypei17ScriptingArrayPtri
Z5e:_ReadOnlyCollection_1_System_Collections_IList_Add_m3806843030_gshared
Pna:__ZN4PPtrI6ShaderE8TransferI19StreamedBinaryWriteILb0EEEEvRT_
oYe:_Collection_1_IsFixedSize_m1816795498_gshared
Bq:__ZN4core20StringStorageDefaultIcE6assignEPKcj
Wwj:__ZN15dense_hashtableINSt3__24pairIK10KeyWrapperIP12Il2CppObjectEN6il2cpp2gc9CachedCCWEEES5_NS7_5utils11PointerHashIS3_EEN14dense_hash_mapIS5_S9_SD_NS5_14EqualsComparerINS0_8equal_toIS4_EEEENS0_9allocatorISA_EEE9SelectKeyESI_SK_E3endEv
$Ab:__Z14resize_trimmedINSt3__26vectorIi13stl_allocatorIiL18MemLabelIdentifier12ELi16EEEEEvRT_j
gdd:_MouseButtonEventData_ReleasedThisFrame_m482758300
Hnj:__ZN15dense_hashtableINSt3__24pairIK10KeyWrapperINS1_IP11Il2CppClassjEEES4_EES6_N6il2cpp8metadata14ArrayClassHashEN14dense_hash_mapIS6_S4_SB_NS6_14EqualsComparerINSA_17ArrayClassCompareEEENS0_9allocatorIS8_EEE9SelectKeyESF_SH_E9copy_fromERKSK_j
XAd:_ReadOnlyArrayListWrapper_set_Item_m2199017141
Z7a:__ZN6Camera6SetFarEf
xEi:_DeriveBytes_DeriveIV_m3343375195
SAc:_UNITY_FT_Init_Class_ft_bitmap_glyph_class
x_c:_RNGCryptoServiceProvider_GetBytes_m167497991
Upa:__ZN6prcoreL12RemapGenericI17TexFormatABGR888817TexFormatARGB8888EEvPKNS_9InnerInfoE
aib:__ZN11GameManager17MainThreadCleanupEv
jRc:__Z50Register_UnityEngine_UISystemProfilerApi_EndSamplev
I9f:__Z60RuntimeInvoker_Boolean_t3825574718_PlayableOutput_t988259697PFvvEPK10MethodInfoPvPS4_
tsg:_TypeBuilder_get_Assembly_m492491492
tZi:__ZL25UnresolvedVirtualCall_160P12Il2CppObject23RaycastResult_t21186376PK10MethodInfo
i_e:_Collection_1_InsertItem_m1225429801_gshared
Bef:_CipherSuite_set_Context_m4127897124
TIc:_UNITY_tt_slot_init
nUa:__ZZ23InitPlayerLoopCallbacksvEN41PostLateUpdateUpdateResolutionRegistrator7ForwardEv
vYc:_HMACSHA512__cctor_m1167457383
CRb:__Z25scripting_array_class_get17ScriptingClassPtrj
trc:__ZL22Transfer_ManagedObjectI9JSONWriteLb1EEvRK29SerializationCommandArgumentsR31RuntimeSerializationCommandInfo
fI:__ZNK10SampleClip22GetTypeVirtualInternalEv
HBa:__ZN9GfxDevice20DestroyRenderSurfaceER12ObjectHandleI17RenderSurface_TagP17RenderSurfaceBaseE
rca:__ZN18SpriteAtlasManagerC2Ev
XOa:__ZN9GfxDevice22UpdateComputeResourcesEjPK9TextureIDPK16TextureDimensionPKijPKjjPK15ComputeBufferIDS7_PK20ComputeBufferCounterjSC_S2_S5_S9_SF_
y3b:__ZN12_GLOBAL__N_15qAsinEff
i6d:_Dictionary_2_Do_ICollectionCopyTo_TisKeyValuePair_2_t3749587448_m2536766696_gshared
Ifb:__ZN12TLSAllocatorI14StackAllocatorE13ThreadCleanupEv
xQ:__Z18GetAudioManagerPtrv
ZZd:_Array_IndexOf_TisRuntimeObject_m1815604637_gshared
eIe:_List_1_GetEnumerator_m2837081829_gshared
lDj:__ZThn4_N6il2cpp2vm13ComObjectBase16MarshalInterfaceEP13Il2CppIStreamRK10Il2CppGuidPvjS7_j
rvb:__ZN4Mesh27SwizzleVertexColorsIfNeededEb
ogb:__Z27FindActiveTransformWithPathPKc
i8h:_CanvasGroup_get_alpha_m1304564441
ejb:__ZN12BaseRendererD0Ev
ldb:__Z29StdTemplateConversionFunctionIbyEbPvR14SafeBinaryRead
d6f:__Z44RuntimeInvoker_X509KeyUsageFlags_t2461349531PFvvEPK10MethodInfoPvPS4_
v4h:_AsyncOperation_Finalize_m67522446
KBe:_SecurityParser_OnEndElement_m2909940377
k0a:__ZNK6Camera7GetNearEv
MJa:__ZN7ApiGLES11UnmapBufferEjN2gl12BufferTargetE
wDj:__ZN6il2cpp5utilsL24Utf32CharToSurrogatePairEjRA2_Ds
gpb:__Z25GetNextAllowedTextureSizeib13TextureFormat
Nea:__ZN20LocalFileSystemWebGL4CopyER13FileEntryDataS1_
RNe:_List_1_CheckIndex_m4231572822_gshared
jY:__ZN19CloudServiceHandler6RetainEv
wLj:__ZN6il2cpp2os9Semaphore4WaitEb
e3c:_StrongName_Equals_m67226644
tjb:__ZN12BaseRenderer20FlattenToRenderQueueER15RenderNodeQueueRK20DeprecatedSourceData
vtg:_FieldBuilder_get_Attributes_m2174064290
ioe:_UnmanagedMemoryStream_get_Length_m587008850
zsa:__Z34scripting_liveness_calculation_endPv
_yj:__ZN6il2cpp2os6ThreadC2Ev
V3c:_SecurityFrame_InitFromRuntimeFrame_m45195821
Sah:__ZL53TextReader_t1561828458_CustomAttributesCacheGeneratorP21CustomAttributesCache
Htf:_X509Chain_IsSignedWith_m292245392
bu:__ZN21AnimationClipPlayable22ProcessAnimationNoClipEPK35AnimationPlayableEvaluationConstantPK32AnimationPlayableEvaluationInputP33AnimationPlayableEvaluationOutput
Ryj:__ZNK6il2cpp2os10SocketImpl12GetLastErrorEv
kWd:_Array_InternalArray__ICollection_Remove_TisDateTime_t693205669_m1275668216_gshared
xZg:_Dictionary_2__ctor_m871840915_gshared
i4e:_ReadOnlyCollection_1_System_Collections_Generic_ICollectionU3CTU3E_Remove_m3751131234_gshared
Qsc:__Z18Transfer_BlittableI8JSONReadLb0E8Vector3fEvRK29SerializationCommandArgumentsR31RuntimeSerializationCommandInfo
Xfi:_ChannelServices__cctor_m3534779830
ipj:__ZN6il2cpp2vm6Thread6DetachEP12Il2CppThread
JEc:_Render_Single_Pass
$Id:_Convert_ToInt16_m416789348
E8c:_EncoderExceptionFallback_Equals_m762170768
AXi:__ZL24UnresolvedVirtualCall_59P12Il2CppObjectS0_aPK10MethodInfo
LUi:_EqualityComparer_1__cctor_m2666196678_gshared
FHi:_MovedFromAttribute__ctor_m1535041828
jSg:_Enumerator_get_CurrentValue_m3147984131_AdjustorThunk
oCg:_GUIStyle_Init_m3872198731
DC:__ZN7mecanim8skeleton30SkeletonBuildReverseIndexArrayEPiPKiPKNS0_8SkeletonES6_
hkc:__Z19GetGUIBlendMaterialv
Obg:__Z69RuntimeInvoker_Boolean_t3825574718_TextGenerationSettings_t2543476768PFvvEPK10MethodInfoPvPS4_
Mzj:__ZN6il2cpp2os10ThreadImpl5SleepEjb
Nui:_InternalEnumerator_1_System_Collections_IEnumerator_Reset_m3669601605_AdjustorThunk
WGi:_X509ExtensionCollection_System_Collections_IEnumerable_GetEnumerator_m2600902401
V_e:_Collection_1_InsertItem_m1073626529_gshared
IXj:_glBindSampler__wrapper
uPi:_UnityAction_1_Invoke_m3523417209_gshared
Of:_emscripten_set_mouseup_callback
MOa:__ZN9GfxDevice27SetRandomWriteTargetTextureEi9TextureID
Gfg:__Z58RuntimeInvoker_Boolean_t3825574718_SpriteState_t1353336012PFvvEPK10MethodInfoPvPS4_
mIi:_SpaceAttribute__ctor_m1444406696
aCa:__ZN9GfxDevice47SwitchColorRenderSurfaceOutOfFastMemoryPlatformEP17RenderSurfaceBaseb
Wda:__ZNK18ScreenManagerWebGL8GetWidthEv
lSj:dynCall_iiifii
I9i:__ZN6il2cpp2vm13MetadataCache33GetFieldDefaultValueDataFromIndexEi
imd:_GridLayoutGroup_set_startAxis_m1635162426
cI:__ZN10SampleClipD2Ev
Dii:_SynchronizationAttribute_EnterContext_m2984912761
l6g:__ZL73Enum_t2459695545_CustomAttributesCacheGenerator_Enum_ToObject_m2601523252P21CustomAttributesCache
AUd:_CultureInfo_construct_internal_locale_from_name_m971766383
Lzj:__ZN6il2cpp2os10ThreadImpl13SetWaitObjectEPNS0_5posix15PosixWaitObjectE
Exd:_Byte_Equals_m368616327_AdjustorThunk
y0d:_Array_InternalArray__ICollection_Add_TisUIVertex_t1204258818_m3869382594_gshared
VX:__ZN11UnityEngine15CloudWebService20WebRequestRestClientC2Ev
nIc:_cff_cmap_unicode_init
xXa:__ZNSt3__224__buffered_inplace_mergeIRN10vector_mapIiN17InstancedPropInfo12PropertyTypeENS_4lessIiEE13stl_allocatorINS_4pairIiS3_EEL18MemLabelIdentifier1ELi16EEE13value_compareENS_11__wrap_iterIPS8_EEEEvT0_SH_SH_T_NS_15iterator_traitsISH_E15difference_typeESL_PNSK_10value_typeE
RRd:_Enum_ToObject_m2460371738
nve:_PrimalityTests_Test_m1088386156
Q5:__ZN14FileCacherRead13GetFileLengthEv
gmc:__Z36Event_CUSTOM_Internal_SetNativeEvent13Il2Cpp_IntPtr
BOj:_readlink
rkj:__ZN15dense_hashtableINSt3__24pairIK10KeyWrapperINS1_IPK9EventInfoP11Il2CppClassEEEjEES9_17ReflectionMapHashIS8_EN14dense_hash_mapIS9_jSD_NS9_14EqualsComparerINS0_8equal_toIS8_EEEENS0_9allocatorISB_EEE9SelectKeyESI_SK_E12resize_deltaEjj
I4d:_Array_Resize_TisVector3_t2243707580_m893658391_gshared
uni:_InternalEnumerator_1_System_Collections_IEnumerator_get_Current_m4259662004_AdjustorThunk
j8d:_Array_InternalArray__get_Item_TisKeyframe_t1449471340_m1003508933_gshared
uJj:__ZN6il2cpp8metadata14Il2CppTypeHash4HashEPK10Il2CppType
y3f:__Z50RuntimeInvoker_Double_t4078015681_Int64_t909078037PFvvEPK10MethodInfoPvPS4_
Zze:_StrongName_get_PublicKeyToken_m1968460885
yxb:__ZNK6Sprite9GetBoundsE8Vector2fbb
dWa:__ZNK19RenderEventsContext21CleanupCommandBuffersEv
TEa:__ZN11ContextGLES6CreateEi
Ohe:_BinaryReader_Dispose_m4249456877
dbg:__Z53RuntimeInvoker_AnimatorControllerPlayable_t1744083903PFvvEPK10MethodInfoPvPS4_
MGi:_X509CrlEntry_get_Extensions_m1330698752
eId:_Double_ToString_m1085043609
bRb:__Z19TransferField_ArrayI18StreamedBinaryReadILb0EE27Converter_SimpleNativeClassI17AnimationCurveTplIfEEEvRK23StaticTransferFieldInfoR31RuntimeSerializationCommandInfoRT0_
Fef:_CipherSuite_createEncryptionCipher_m1926075645
tfb:__ZN14StackAllocator16FrameMaintenanceEb
Dld:_Graphic_Raycast_m3582517890
Uhb:__Z18ReadStringFromFilePN4core17string_with_labelILi1EEERKNS_12basic_stringIcNS_20StringStorageDefaultIcEEEE
z0:__ZNK10GameObject20QueryComponentByTypeEPKN5Unity4TypeE
sGe:_Enumerator_MoveNext_m1367380970_AdjustorThunk
Jvg:_OpCode_GetHashCode_m2974727122
ZEd:_Enumerator_Reset_m466659019
Gef:_CipherSuite_createDecryptionCipher_m1118350455
Byi:_PatternCompiler_EmitReference_m1381860071
hH:__Z78AnimatorControllerPlayable_CUSTOM_INTERNAL_CALL_IsParameterControlledByCurveIDR9HPlayablei
HQd:_Double_System_IConvertible_ToInt16_m4200640326
nwa:__ZN11TextureData5ResetEv
_dc:__Z53Register_UnityEngine_GameObject_get_activeInHierarchyv
xug:_GenericTypeParameterBuilder_get_IsGenericType_m1883522222
KHb:__Z35Transfer_Blittable_FixedBufferFieldI17RemapPPtrTransferiEvRK29SerializationCommandArgumentsR31RuntimeSerializationCommandInfo
X1:__ZL30InitializeCoreScriptingClassesv
e$e:_Collection_1_CheckWritable_m3938993573_gshared
Jg:_glBlitFramebuffer
SSa:__ZN17ArchiveFileSystem5TouchER13FileEntryData
ejf:_SecurityParameters_set_Cipher_m3888132335
vve:_BigInteger_GeneratePseudoPrime_m2606361440
Yae:_DateTimeFormatInfo_get_ShortTimePattern_m20923983
FHb:__Z35Transfer_Blittable_SingleValueFieldI14SafeBinaryReadhEvRT_R17GeneralMonoObjectRK23StaticTransferFieldInfo
hLh:__ZL140U3CMouseDragOutsideRectU3Ec__Iterator1_t2599668326_CustomAttributesCacheGenerator_U3CMouseDragOutsideRectU3Ec__Iterator1_Dispose_m2134284531P21CustomAttributesCache
xBh:__ZL90Event_t3028476042_CustomAttributesCacheGenerator_Event_Internal_SetNativeEvent_m1899228752P21CustomAttributesCache
YUc:__ZN22BaseUnityConnectClientC2ERN11UnityEngine7Connect20BasePersistentValuesE
Mye:_EncryptedPrivateKeyInfo_get_Algorithm_m2779196942
dAf:_RemotingServices_GetRealProxy_m620317996
E_a:__ZN13dynamic_arrayI11CulledLightLj4EE6insertEPS0_PKS0_S4_
Tki:_ArrayReadOnlyList_1_RemoveAt_m2270349795_gshared
Unb:__ZNK12CubemapArray22GetTypeVirtualInternalEv
f1i:_Predicate_1_Invoke_m2060780095_gshared
E9i:__ZN6il2cpp2vm13MetadataCache23GetInterfaceOffsetIndexEi
Sn:FUNCTION_TABLE_vif
Tn:FUNCTION_TABLE_vid
Un:FUNCTION_TABLE_vii
Nsa:__Z40scripting_liveness_calculation_from_root18ScriptingObjectPtrPv
Xka:__ZN7Texture23VirtualRedirectTransferER24GenerateTypeTreeTransfer
Byc:_UNITY_FT_Set_Transform
S1b:__ZNK32RendererMaterialAnimationBinding12SetPPtrValueERKN11UnityEngine9Animation10BoundCurveEi
hki:_ArrayReadOnlyList_1_Contains_m1266627404_gshared
cag:__Z63RuntimeInvoker_Double_t4078015681_PlayableHandleU26_t4210769902PFvvEPK10MethodInfoPvPS4_
u6f:__Z101RuntimeInvoker_OpFlags_t378191910_SByte_t454417549_SByte_t454417549_SByte_t454417549_SByte_t454417549PFvvEPK10MethodInfoPvPS4_
nXj:_glDeleteFramebuffers__wrapper
and:_Image_get_overrideSprite_m706080347
Wig:__Z54RuntimeInvoker_Int32_t2071877448_LabelData_t3712112744PFvvEPK10MethodInfoPvPS4_
eaf:_BigInteger_ModInverse_m1881894572
Mcj:__ZN6il2cpp2vm7Runtime17GetDelegateInvokeEP11Il2CppClass
UNh:__ZL79LayoutRebuilder_t2155218138_CustomAttributesCacheGenerator_U3CU3Ef__amU24cache4P21CustomAttributesCache
wMh:__ZL59Slider_t297367283_CustomAttributesCacheGenerator_m_FillRectP21CustomAttributesCache
NKe:_List_1_AddEnumerable_m3541747636_gshared
gmj:__ZN30dense_hashtable_const_iteratorINSt3__24pairIK10KeyWrapperIPK22Il2CppGenericParameterEPK24MonoGenericParameterInfoEES6_N6il2cpp5utils11PointerHashIS4_EEN14dense_hash_mapIS6_SA_SF_NS6_14EqualsComparerINS0_8equal_toIS5_EEEENS0_9allocatorISB_EEE9SelectKeyESK_SM_E30advance_past_empty_and_deletedEv
sqb:__ZN28EnlightenRendererInformation8TransferI14SafeBinaryReadEEvRT_
L5f:__Z88RuntimeInvoker_RuntimeObject_RuntimeObject_Int32_t2071877448_RuntimeObject_RuntimeObjectPFvvEPK10MethodInfoPvPS4_
Xch:__ZL69DefaultDependencyAttribute_t3858269114_CustomAttributesCacheGeneratorP21CustomAttributesCache
OPa:__ZNK15Lz4Decompressor16DecompressMemoryEPKvPjPvS2_
UOg:_Ray_ToString_m2019179238
M6e:_ReadOnlyCollection_1_System_Collections_IList_get_Item_m887129009_gshared
fDi:_Uri_GetOpaqueWiseSchemeDelimiter_m3686606461
Neb:__ZNSt3__26__treeINS_12__value_typeIN4core12basic_stringIcNS2_20StringStorageDefaultIcEEEEPN16MemoryFileSystem4NodeEEENS_19__map_value_compareIS6_SA_NS_4lessIS6_EELb1EEE13stl_allocatorISA_L18MemLabelIdentifier54ELi16EEE4findIS6_EENS_15__tree_iteratorISA_PNS_11__tree_nodeISA_PvEEiEERKT_
YNd:_Decimal_System_IConvertible_ToType_m3828527724_AdjustorThunk
qpd:_InputField_get_caretPositionInternal_m3011712053
qCc:_UNITY_tt_face_load_os2
Vbf:_HMAC_get_Key_m2528863640
S$e:_Collection_1_IsSynchronized_m1366278230_gshared
uih:__ZL93StringBuilder_t1221177846_CustomAttributesCacheGenerator_StringBuilder_AppendLine_m1686706871P21CustomAttributesCache
aG:__Z90Register_UnityEngine_Animations_AnimationOffsetPlayable_INTERNAL_CALL_CreateHandleInternalv
gHb:__Z29Transfer_Blittable_ArrayFieldI14SafeBinaryRead8Vector4fEvRT_R9ArrayInfoRK23StaticTransferFieldInfo
GUd:_Array_get_swapper_TisInt32_t2071877448_m2837069166_gshared
vij:__ZN6il2cpp2gc19AppendOnlyGCHashMapINSt3__24pairIPK10MethodInfoP11Il2CppClassEEP22Il2CppReflectionMethod17ReflectionMapHashIS9_ENS2_8equal_toIS9_EEE3AddERKS9_SB_
yeh:__ZL62IDynamicMessageSink_t3056162262_CustomAttributesCacheGeneratorP21CustomAttributesCache
Ugg:__Z77RuntimeInvoker_Boolean_t3825574718_AspectModeU26_t218518220_Int32_t2071877448PFvvEPK10MethodInfoPvPS4_
oQg:_RectTransform_INTERNAL_get_rect_m1177342209
jXe:_Collection_1_Clear_m268154422_gshared
Acd:_PointerEventData_IsScrolling_m1971908975
Glg:__Z56RuntimeInvoker_ContentType_t1028629049_Int32_t2071877448PFvvEPK10MethodInfoPvPS4_
U$i:_Keyboard_WarnIfTerminalNotConneced_m4209930749
v$i:_Hacker_DisplayWinScreen_m3165369911
eUa:__ZZ23InitPlayerLoopCallbacksvEN51PostLateUpdateUpdateCustomRenderTexturesRegistrator7ForwardEv
kAh:__ZL53UILineInfo_t3621277874_CustomAttributesCacheGeneratorP21CustomAttributesCache
iOd:_Decimal_System_IConvertible_ToInt16_m3159038792
zu:__ZN7mecanim9animation12EvaluateClipEPKNS0_4ClipEPKNS0_9ClipInputEPNS0_10ClipMemoryEPNS0_10ClipOutputE
Dqb:__ZN4PPtrI11LightProbesE8TransferI18StreamedBinaryReadILb0EEEEvRT_
xei:_ComVisibleAttribute__ctor_m1789587486
Xyg:_MonoMethodInfo_GetReturnType_m2864247130
o4f:__Z39RuntimeInvoker_DateTimeKind_t2186819611PFvvEPK10MethodInfoPvPS4_
u6a:__ZN13RenderManager29SetCurrentCameraAndStackStateEP6CameraP25CameraStackRenderingState
Woj:__ZN15dense_hashtableINSt3__24pairIK10KeyWrapperINS1_IP11Il2CppClassjEEES4_EES6_N6il2cpp8metadata14ArrayClassHashEN14dense_hash_mapIS6_S4_SB_NS6_14EqualsComparerINSA_17ArrayClassCompareEEENS0_9allocatorIS8_EEE9SelectKeyESF_SH_E12resize_deltaEjj
Xh:_JS_WebRequest_Release
$ie:_DirectoryNotFoundException__ctor_m2242202556
iW:__ZN11UnityEngine15CloudWebService14DataErrorEventD0Ev
E9f:__Z64RuntimeInvoker_RuntimeObject_PlayableOutputHandleU26_t2649796401PFvvEPK10MethodInfoPvPS4_
q7c:_String_CreateString_m2448464375
mvf:_X509SubjectKeyIdentifierExtension__ctor_m2959112706
kSg:_Enumerator_Reset_m1147555085_AdjustorThunk
Mwg:_FieldInfo_get_IsNotSerialized_m2322769148
HLi:_Vector3_get_zero_m1527993324
kmh:__ZL68Math_t2022911894_CustomAttributesCacheGenerator_Math_Max_m2671311541P21CustomAttributesCache
ewj:__ZN6il2cpp8metadata15GenericMetadata7InflateEPK19Il2CppGenericMethodPK20Il2CppGenericContext
mVa:__ZN19ShaderPropertySheet16SetArrayPropertyEN9ShaderLab16FastPropertyNameENS_12PropertyTypeEPKvj
Qyg:_MonoGenericCMethod_get_ReflectedType_m2689239043
Tbf:_CryptoConvert_ToHex_m3804747475
T$e:_Collection_1_IsFixedSize_m499196375_gshared
shd:_ColorTween_set_startColor_m3546206870_AdjustorThunk
T6g:__ZL67RuntimeArray_CustomAttributesCacheGenerator_Array_IndexOf_m77084779P21CustomAttributesCache
X4g:__ZL63String_t_CustomAttributesCacheGenerator_String_Split_m394273024P21CustomAttributesCache
AMc:__ZN2UI11CanvasGroup23VirtualRedirectTransferER19StreamedBinaryWriteILb0EE
hqi:_InternalEnumerator_1_get_Current_m4083613828_gshared
rlc:__ZN8GUIState8EndOnGUIEv
TKf:_UnicodeEncoding_GetString_m542738941
vsj:__ZN6il2cpp6icalls8mscorlib6System2IO6MonoIO16get_ConsoleErrorEv
_Ic:_UNITY_TT_Get_VMetrics
Aie:_Path_InsecureGetFullPath_m2635272425
UFd:_Enumerator_Clone_m1124749523
ULd:_DateTime_System_IConvertible_ToUInt32_m1363211018
vFf:_RuntimeMethodHandle__ctor_m1162528746
gTe:_Enumerator_Dispose_m3300818037_AdjustorThunk
yQe:_List_1_AsReadOnly_m4108578222_gshared
o8g:__ZL65DebuggerHiddenAttribute_t638884887_CustomAttributesCacheGeneratorP21CustomAttributesCache
PHf:_DSA__ctor_m613430209
FXd:_SetPropertyUtility_SetStruct_TisSingle_t2076509932_m3849235084_gshared
sHa:__ZN7Texture21GetMasterTextureLimitEv
b9a:__Z12CanAddScriptR10GameObject17ScriptingClassPtrPS1_S2_
qnj:__ZN6il2cpp2vm10Reflection12HasAttributeEP12Il2CppObjectP11Il2CppClass
Lth:__ZL81Mesh_t1356156583_CustomAttributesCacheGenerator_Mesh_get_subMeshCount_m1945011773P21CustomAttributesCache
avc:__ZN8JSONRead21TransferSTLStyleArrayI13dynamic_arrayI4AABBLj4EEEEvRT_18MemLabelIdentifier17TransferMetaFlags
VOi:_InvokableCall_1__ctor_m121193486_gshared
I0:__ZN9ShaderLabL25StaticInitializeShaderLabEPv
Z_g:_Dictionary_2_ContainsKeyValuePair_m3818021458_gshared
U:Math_max
a0e:_Collection_1_System_Collections_IList_Insert_m1511106741_gshared
fYi:__ZL24UnresolvedVirtualCall_92P12Il2CppObjectPK10MethodInfo
ydj:_il2cpp_class_get_methods
Die:_Path_CanonicalizePath_m383914732
rRg:_Enumerator_System_Collections_IEnumerator_get_Current_m1631145297_gshared
$zd:_ArrayList_Synchronized_m2395071980
gzj:__ZN6il2cpp2os6Thread16GetCurrentThreadEv
J6g:__ZL81RuntimeArray_CustomAttributesCacheGenerator_Array_SetValue_m169741241____indices1P21CustomAttributesCache
T3b:__ZN10GameObject13ComponentPair15SetComponentPtrEPN5Unity9ComponentE
coe:_UnexceptionalStreamWriter_Write_m3206913035
b_b:__Z13RegisterClassI10MeshFilterEvv
TE:__ZNK26AnimatorControllerPlayable24GetAnimatorClipInfoCountEib
_ib:__ZN10TagManager8TransferI19StreamedBinaryWriteILb0EEEEvRT_
RDb:__ZN11PreloadData23VirtualRedirectTransferER18StreamedBinaryReadILb0EE
Rtb:__ZN13sorted_vectorI4PPtrI11SpriteAtlasENSt3__24lessIS2_EE13stl_allocatorIS2_L18MemLabelIdentifier1ELi16EEE21sort_clear_duplicatesEv
Hz:__Z17dynamic_pptr_castIP10MonoScript6ObjectET_RK4PPtrIT0_E
p1h:_AnimatorControllerPlayable_GetAnimatorTransitionInfo_m2080024628_AdjustorThunk
NHf:_DESTransform_ProcessBlock_m2826669227
uee:_Int16_CompareTo_m3493496879
VDi:_GeneralNames_get_IPAddresses_m1712556836
Juh:__ZL56RenderTexture_t2666733923_CustomAttributesCacheGeneratorP21CustomAttributesCache
zEh:__ZL56ColorWriteMask_t926634530_CustomAttributesCacheGeneratorP21CustomAttributesCache
S2h:_AnimatorControllerPlayable_Play_m3296663958_AdjustorThunk
Jsb:__ZN6Sprite17MainThreadCleanupEv
ioh:__ZL56OidCollection_t3790243618_CustomAttributesCacheGeneratorP21CustomAttributesCache
ohh:__ZL61SignatureDescription_t89145500_CustomAttributesCacheGeneratorP21CustomAttributesCache
Jpi:_InternalEnumerator_1_MoveNext_m3389738333_AdjustorThunk
gN:__ZN10AudioMixer14UpdateMuteSoloEv
UVa:__Z17GetMonoManagerPtrv
_qj:__ZN6il2cpp2vm9Exception27RaiseNullReferenceExceptionEv
STe:_Stack_1_System_Collections_ICollection_get_SyncRoot_m3151629354_gshared
jQh:_MaskableGraphic_UnityEngine_UI_IClippable_get_gameObject_m954171032
Jla:__ZN9ShaderLab10SubProgram7CompileEv
sGa:__ZN7ApiGLES16SetPatchVerticesEi
Ale:_MonoIOStat_t1621921065_marshal_pinvoke
mTa:__ZN10MemoryFileC2E18MemLabelIdentifierP14MemoryFileData14FilePermission
dBf:_TrackingServices_NotifyUnmarshaledObject_m1794048369
F2i:__ZN6il2cpp2vm5Class20FromGenericParameterEPK22Il2CppGenericParameter
wfh:__ZL59RemotingServices_t2399536837_CustomAttributesCacheGeneratorP21CustomAttributesCache
IY:__ZN19CloudServiceHandler11FlushEventsEv
cba:__ZN15GlobalCallbacksC2Ev
h3d:_Array_InternalArray__set_Item_TisLabelFixup_t4090909514_m565370771_gshared
LH:__Z82Register_UnityEngine_Animations_AnimatorControllerPlayable_INTERNAL_CALL_SetBoolIDv
$zc:_UNITY_FT_New_Memory_Face
Yoh:__ZL74X509Crl_t1699034837_CustomAttributesCacheGenerator_U3CU3Ef__switchU24map13P21CustomAttributesCache
NEf:_SerializationEntry__ctor_m1619256036_AdjustorThunk
DG:__Z81AnimatorControllerPlayable_CUSTOM_INTERNAL_CALL_GetAnimatorTransitionInfoInternalR9HPlayablei
Uxc:__ZN20TextRenderingPrivate21TextMeshGeneratorImpl5FlushEv
Iza:__ZN26VertexDeclarationCacheGLES24DestroyVertexDeclarationEP17VertexDeclaration
Y2c:__Z15CastclassSealedP12Il2CppObjectP11Il2CppClass
BZb:__ZN15ApplicationInfo14GetSandboxTypeEv
JZf:__Z41RuntimeInvoker_TypeAttributes_t2229518203PFvvEPK10MethodInfoPvPS4_
MHb:__Z18Transfer_BlittableI17RemapPPtrTransferLb1EhEvRK29SerializationCommandArgumentsR31RuntimeSerializationCommandInfo
uBj:__ZNSt3__26vectorIjNS_9allocatorIjEEE26__swap_out_circular_bufferERNS_14__split_bufferIjRS2_EE
w7a:__ZN16ReflectionProbes40UpdateRealtimeReflectionProbesTimeslicedEv
eSi:_ListPool_1_Get_m529219189_gshared
jvj:__ZNSt3__26__treeINS_12__value_typeIP24Il2CppReflectionAssemblyPvEENS_19__map_value_compareIS3_S5_NS_4lessIS3_EELb1EEENS_9allocatorIS5_EEE16__insert_node_atEPNS_16__tree_node_baseIS4_EERSF_SF_
Wug:_MethodBuilder_GetBaseDefinition_m774166361
WCf:_FormatterConverter__ctor_m3958982477
PAb:__ZNK30RuntimeInitializeOnLoadManager22GetTypeVirtualInternalEv
k7i:__ZN15dense_hashtableINSt3__24pairIK10KeyWrapperIN6il2cpp5utils13dynamic_arrayIPK10Il2CppTypeLj4EEEEPFvvEEESA_NS3_8metadata19Il2CppSignatureHashEN14dense_hash_mapISA_SD_SG_NSA_14EqualsComparerINSF_22Il2CppSignatureCompareEEENS0_9allocatorISE_EEE9SelectKeyESK_SM_E12resize_deltaEjj
x1b:__ZN16ReflectionProbes15InitializeClassEv
KIj:__ZN6il2cpp5utils5MatchENSt3__212basic_stringIcNS1_11char_traitsIcEENS1_9allocatorIcEEEEjRKS7_j
xAc:_UNITY_FT_Destroy_Class_psnames_module_class
z8i:__ZNK15dense_hashtableINSt3__24pairIK10KeyWrapperIPK11Il2CppClassEPKcEES6_N6il2cpp5utils11PointerHashIS3_EEN14dense_hash_mapIS6_S9_SE_NS6_14EqualsComparerINS0_8equal_toIS5_EEEENS0_9allocatorISA_EEE9SelectKeyESJ_SL_E12test_deletedEj
dyi:_MRUList_Evict_m2430323183
M4e:_ReadOnlyCollection_1_System_Collections_Generic_ICollectionU3CTU3E_Remove_m1060547576_gshared
Adg:__Z68RuntimeInvoker_Boolean_t3825574718_Rect_t3681755626_SByte_t454417549PFvvEPK10MethodInfoPvPS4_
P7d:_Array_InternalArray__get_Item_TisRuntimeObject_m371871810_gshared
Rne:_NullTextWriter_Write_m2306984725
Nz:__ZN8Animator13BatchedFKPassERK13dynamic_arrayIP14PlayableOutputLj4EE
Ojf:_RecordProtocol_ProcessChangeCipherSpec_m3233959862
w9h:_Component_GetComponent_m4225719715
Dgc:__Z75Register_UnityEngine_Playables_PlayableHandle_INTERNAL_CALL_SetTimeInternalv
Okd:_Graphic_set_raycastTarget_m1229173591
E5d:_Array_Sort_TisVector4_t2243707581_m474199742_gshared
_Ke:_List_1_CheckIndex_m2247532995_gshared
yDh:__ZL93GUIUtility_t3275770671_CustomAttributesCacheGenerator_GUIUtility_set_guiIsExiting_m2362636745P21CustomAttributesCache
Mne:_TextWriter_Write_m576684782
VMi:_Vector3_Max_m2105825185
Uj:_glIsVertexArray
uUj:b16
sBb:__ZNSt3__26vectorIN4core12basic_stringIcNS1_20StringStorageDefaultIcEEEE13stl_allocatorIS5_L18MemLabelIdentifier12ELi16EEEC2INS_11__wrap_iterIPS5_EEEET_SE_RKS8_PNS_9enable_ifIXaasr21__is_forward_iteratorISE_EE5valuesr16is_constructibleIS5_NS_15iterator_traitsISE_E9referenceEEE5valueEvE4typeE
vQa:__ZN25SingleBlockMemoryFileDataC2E18MemLabelIdentifierPvjb
Jgb:__ZN5Unity9Component8TransferI18StreamedBinaryReadILb0EEEEvRT_
ea:invoke_fff
bXh:_Text_get_fontSize_m3105730761
sUj:b14
djf:_TlsServerHello_Update_m1740270635
LLc:__ZN2UI6Canvas17MainThreadCleanupEv
Cpa:__ZN6prcoreL12RemapGenericI17TexFormatARGB155517TexFormatRGBA8888EEvPKNS_9InnerInfoE
JTh:_ScrollRect_Rebuild_m3423824761
CQe:_List_1_Find_m3862454845_gshared
nnh:__ZL85Locale_t4255929015_CustomAttributesCacheGenerator_Locale_GetText_m1445803604____args1P21CustomAttributesCache
Uxi:_MatchCollection_get_Item_m2609281578
mNa:__ZN7ApiGLES13CreateProgramEv
Tkb:__ZN11HaloManager7AddHaloEv
NLf:_UTF8Encoding__ctor_m100325490
EHa:__ZN4crnd12crn_unpackerD2Ev
GWh:_StencilMaterial_ClearAll_m1372779118
ek:_emscripten_glTexImage2D
Fzf:_ObjRefSurrogate_SetObjectData_m1873902916
LIc:_tt_driver_class_pic_init
N1:__ZN18ScriptingArguments9AddStringEPKc
LGj:_setup_header
n2e:_ReadOnlyCollection_1_System_Collections_IList_get_IsReadOnly_m1367736517_gshared
Yqh:__ZL116Component_t3819376471_CustomAttributesCacheGenerator_Component_GetComponentsInParent_m1920178904____includeInactive1P21CustomAttributesCache
aRj:runPostSets
nHh:__ZL93AxisEventData_t1524870173_CustomAttributesCacheGenerator_AxisEventData_set_moveDir_m254243794P21CustomAttributesCache
yva:__ZL23stbir__resize_arbitraryPvPKviiiS_iiiffffPfiij14stbir_datatype12stbir_filterS4_10stbir_edgeS5_16stbir_colorspace
uMe:_List_1_System_Collections_IList_Insert_m848656350_gshared
RJb:__Z18Transfer_BlittableI24GenerateTypeTreeTransferLb1E8Vector4fEvRK29SerializationCommandArgumentsR31RuntimeSerializationCommandInfo
Uee:_Int16_ToString_m3971652088_AdjustorThunk
pk:_pthread_detach
jaj:__ZN6il2cpp2vm19SocketPollingThread7RunLoopEv
MDe:_KeyValuePair_2__ctor_m1640124561_AdjustorThunk
Vyf:_MethodDictionary_AllocInternalProperties_m3261295876
t4b:__ZN15DirectorManager20ScheduleGraphDestroyERK14HPlayableGraph
uya:__ZNSt3__213__stable_sortIRN10vector_mapI17ScriptingClassPtrPKN5Unity4TypeENS_4lessIS2_EENS_9allocatorINS_4pairIS2_S6_EEEEE13value_compareENS_11__wrap_iterIPSB_EEEEvT0_SJ_T_NS_15iterator_traitsISJ_E15difference_typeEPNSM_10value_typeEi
jph:__ZL77U3CPrivateImplementationDetailsU3E_t1486305139_CustomAttributesCacheGeneratorP21CustomAttributesCache
eVb:__ZN9ShaderLab25SerializedTextureProperty8TransferI24GenerateTypeTreeTransferEEvRT_
h9e:_Comparison_1_Invoke_m2645957248_gshared
$$j:_emscripten_glIsShader__wrapper
ilj:__ZN6il2cpp2gc19AppendOnlyGCHashMapINSt3__24pairIPK14Il2CppAssemblyP11Il2CppClassEEP24Il2CppReflectionAssembly17ReflectionMapHashIS9_ENS2_8equal_toIS9_EEEC2Ev
$Dc:_tt_cmap14_char_next
Vbh:__ZL69AssemblyTrademarkAttribute_t3740556705_CustomAttributesCacheGeneratorP21CustomAttributesCache
xDa:__ZN13GfxDeviceGLES28GetNativeVertexBufferPointerEP9GfxBuffer
Wja:__ZN11NamedObject8TransferI18StreamedBinaryReadILb0EEEEvRT_
iMa:__ZNK17GPUSkinPoseBuffer12GetBoneCountEv
nnc:__Z32GUIStyle_Get_Custom_PropFontSizeP12Il2CppObject
EEf:_DelegatePInvokeWrapper_CallbackHandler_t362827733
Hmh:__ZL59ResolveEventArgs_t1859808873_CustomAttributesCacheGeneratorP21CustomAttributesCache
DPi:_UnityAction_1_BeginInvoke_m3462722079_gshared
Dtj:__ZNK15dense_hashtableINSt3__24pairIK10KeyWrapperIP14Il2CppIUnknownEjEES5_N6il2cpp5utils11PointerHashIS3_EEN14dense_hash_mapIS5_jSB_NS5_14EqualsComparerINS0_8equal_toIS4_EEEENS0_9allocatorIS7_EEE9SelectKeyESG_SI_E12test_deletedEj
Ewg:_EventInfo_get_MemberType_m3337516651
Gtc:__Z18Transfer_BlittableI8JSONReadLb1EyEvRK29SerializationCommandArgumentsR31RuntimeSerializationCommandInfo
Mk:_emscripten_glMatrixMode
ts:__ZN8Animator23VirtualRedirectTransferER18StreamedBinaryReadILb0EE
ybh:__ZL93TypeBuilder_t3308873219_CustomAttributesCacheGenerator_TypeBuilder_GetConstructors_m774120094P21CustomAttributesCache
Pje:_NotSupportedException__ctor_m836173213
pzf:_MethodReturnDictionary__ctor_m756139344
EV:__ZN11UnityEngine15CloudWebService14DataDispatcher16PrepareDataBlockERNS0_16SessionContainerE
DNa:__ZN18GfxFramebufferGLES5ClearE13GfxClearFlagsRK10ColorRGBAffib
Ogg:__Z70RuntimeInvoker_Void_t1841601450_Playable_t1896841784_Int32_t2071877448PFvvEPK10MethodInfoPvPS4_
BRe:_List_1_GetIndex_m2513359832_gshared
Dmi:_InternalEnumerator_1__ctor_m967618647_gshared
qQb:__ZL26Transfer_SimpleNativeClassI18StreamedBinaryReadILb0EE10RectOffsetLb0EEvRK29SerializationCommandArgumentsR31RuntimeSerializationCommandInfo
uAc:_UNITY_ft_destroy_default_module_classes
$Ie:_List_1_CheckMatch_m1772343151_gshared
ZZa:__ZL12DepthPassJobPN21GfxDeviceAsyncCommand10ArgScratchEPKNS_3ArgE
HTb:__ZNSt3__26vectorIN9ShaderLab20SerializedSubProgram16TextureParameterENS_9allocatorIS3_EEE6assignINS_11__wrap_iterIPS3_EEEENS_9enable_ifIXaasr21__is_forward_iteratorIT_EE5valuesr16is_constructibleIS3_NS_15iterator_traitsISC_E9referenceEEE5valueEvE4typeESC_SC_
mhe:_IntPtr_Equals_m1214967011_AdjustorThunk
uPe:_List_1_Add_m3591975577_gshared
APc:__Z55Register_UnityEngine_CanvasGroup_get_ignoreParentGroupsv
C_b:__Z13RegisterClassI19LowerResBlitTextureEvv
tHh:__ZL100PointerEventData_t1599784723_CustomAttributesCacheGenerator_U3CpointerPressRaycastU3Ek__BackingFieldP21CustomAttributesCache
Pm:FUNCTION_TABLE_iiiiiiiiiiii
vkb:__ZN16GraphicsSettingsD0Ev
Scb:__Z29StdTemplateConversionFunctionIshEbPvR14SafeBinaryRead
hZj:_pthread_mutex_init__wrapper
Y5a:__ZN15LODGroupManager21CalculateLODDataArrayERK13LODParametersPK6Cameraf
n:cttz_i8
EGc:_UNITY_FT_GlyphLoader_Add
abe:_DateTimeFormatInfo_get_FullDateTimePattern_m2607507656
Djf:_HttpsClientStream_RaiseServerCertificateValidation_m3356770426
LPd:_DelegateSerializationHolder__ctor_m3915060553
vBb:__ZN15SerializeTraitsINSt3__26vectorIN30RuntimeInitializeOnLoadManager9ClassInfoE13stl_allocatorIS3_L18MemLabelIdentifier12ELi16EEEEE8TransferI24GenerateTypeTreeTransferEEvRS7_RT_
Y5d:_Array_swap_TisUIVertex_t1204258818_TisUIVertex_t1204258818_m1163375424_gshared
Il:_emscripten_glViewport
_Cj:__ZN6il2cpp6icalls8mscorlib6System15MonoCustomAttrs17IsDefinedInternalEP12Il2CppObjectP20Il2CppReflectionType
bvb:__ZN4Mesh21UnswizzleVertexColorsEb
hca:__ZN30dense_hashtable_const_iteratorINSt3__24pairIKN4core12basic_stringIcNS2_20StringStorageDefaultIcEEEEP11AssetBundleEES6_20StringHash32FunctionIS6_EN14dense_hash_mapIS6_S9_SC_NS0_8equal_toIS6_EENS0_9allocatorISA_EEE9SelectKeyESF_SH_EppEv
Uif:_TlsServerSettings_set_CertificateTypes_m264196087
Tni:_InternalEnumerator_1__ctor_m4150855019_gshared
NMd:_DateTime_ToString_m2276663647_AdjustorThunk
IIc:_cff_parse_font_bbox
$ac:__Z35Application_Get_Custom_PropIsEditorv
_r:__GLOBAL__sub_I_runtime_animation2_lump_cpp
jzb:__ZN14PlayerSettings23VirtualRedirectTransferER18StreamedBinaryReadILb0EE
_Ce:_KeyValuePair_2__ctor_m3201181706_AdjustorThunk
RLj:__ZN6il2cpp2os5Event5ResetEv
F1e:_ReadOnlyCollection_1_System_Collections_IList_Insert_m1130110335_gshared
pTi:_AesManaged__ctor_m2322442838
Svj:__ZN6il2cpp8metadata15GenericMetadata17InflateParametersEPK13ParameterInfohPK20Il2CppGenericContextb
xge:_Int64_System_IConvertible_ToUInt32_m850395426_AdjustorThunk
Q2:__ZN18AwakeFromLoadQueue28InvokePersistentManagerAwakeEPNS_4ItemEj17AwakeFromLoadMode
htg:_TypeBuilder_GetMethodsByName_m229541072
h6h:_PCMReaderCallback_Invoke_m3610389815
sYc:_HMACSHA512__ctor_m2390736870
xy:__ZNK17AnimationPlayable27GetNextCompatibleDescendantEi
NJj:__ZNSt3__26__treeINS_12__value_typeIPvxEENS_19__map_value_compareIS2_S3_NS_4lessIS2_EELb1EEENS_9allocatorIS3_EEE16__insert_node_atEPNS_16__tree_node_baseIS2_EERSD_SD_
whb:__ZN4PPtrI6SpriteE8TransferI18StreamedBinaryReadILb0EEEEvRT_
dtg:_TypeBuilder_GetInterfaces_m1818658502
iae:_NumberFormatter_AppendIntegerString_m868842252
U9e:_BigInteger_op_Equality_m2683055762
nga:__Z25SetNeedToPerformRenderingb
jzg:_MonoMethod_GetPseudoCustomAttributes_m466965107
xAi:__ZN21InterfaceFuncInvoker0IP19LinkRef_t2090853131E6InvokeEjP11Il2CppClassP12Il2CppObject
DWg:_ValueCollection_System_Collections_Generic_IEnumerableU3CTValueU3E_GetEnumerator_m1604400448_gshared
G1a:__ZNSt3__227__insertion_sort_incompleteIR23CompareReflectionProbesP31RuntimeReflectionProbeBlendInfoEEbT0_S5_T_
m_a:__ZN14qsort_internal30FindAndMovePivotToLastPositionIP15RODataDepthPassi17ROSorterDepthPassEEvT_S4_T0_T1_
YVc:__ZN20UnityWebRequestProtoI19TransportJavaScript16AtomicRefCounter14RedirectHelper14ResponseHelper15DownloadHandler13UploadHandler12HeaderHelper14AsyncOperationE35Task_FinalizeAfterDHCompleteContentEPv
gHi:_ResourceRequest_t2560315377_marshal_pinvoke
_Sg:_Enumerator_System_Collections_IDictionaryEnumerator_get_Value_m3005608231_gshared
VWi:__ZL24UnresolvedVirtualCall_26P12Il2CppObjectS0_iiPK10MethodInfo
APh:_MaskUtilities_NotifyStencilStateChanged_m1527407683
M$f:__Z94RuntimeInvoker_Void_t1841601450_RuntimeObject_Int32_t2071877448_RuntimeObject_SByte_t454417549PFvvEPK10MethodInfoPvPS4_
i6a:__ZN12CullingGroup10SendEventsEPK17CullingGroupEventj
Xwe:_DSAManaged_GenerateKeyPair_m2711647034
Ubb:__ZN13sorted_vectorINSt3__24pairIN4core12basic_stringIcNS2_20StringStorageDefaultIcEEEES6_EEN10vector_mapIS6_S6_27compare_tstring_insensitiveIS6_E13stl_allocatorIS7_L18MemLabelIdentifier37ELi16EEE13value_compareESD_E9erase_oneIS6_EEjRKT_
jrb:__ZThn32_NK8Renderer8GetLayerEv
b0d:_Array_InternalArray__ICollection_Add_TisResourceCacheItem_t333236149_m1151081240_gshared
hmg:__Z39RuntimeInvoker_RaycastHit2D_t4063908774PFvvEPK10MethodInfoPvPS4_
s5e:_ReadOnlyCollection_1_System_Collections_Generic_ICollectionU3CTU3E_get_IsReadOnly_m2197226755_gshared
_P:__ZN17AudioClipPlayable12PrepareFrameERK19DirectorVisitorInfo
pJd:_Convert_ToInt32_m2209788057
Ouj:__ZN30dense_hashtable_const_iteratorINSt3__24pairIK10KeyWrapperINS1_IPKcS4_EEEiEES6_24NamespaceAndNamePairHashN14dense_hash_mapIS6_iS9_NS6_14EqualsComparerI26NamespaceAndNamePairEqualsEENS0_9allocatorIS8_EEE9SelectKeyESD_SF_E30advance_past_empty_and_deletedEv
qCf:_SoapServices_GetXmlTypeForInteropType_m3821579913
NUi:_EqualityComparer_1_System_Collections_IEqualityComparer_Equals_m3601790950_gshared
nDh:__ZL117GUIStyle_t1799908754_CustomAttributesCacheGenerator_GUIStyle_INTERNAL_CALL_Internal_GetCursorPixelPosition_m562482816P21CustomAttributesCache
ZZj:_emscripten_glTexParameterfv__wrapper
pej:_il2cpp_method_get_param_count
bZb:__ZN10systeminfo19ISOToSystemLanguageERN4core12basic_stringIcNS0_20StringStorageDefaultIcEEEE
bkj:__ZNK15dense_hashtableINSt3__24pairIK10KeyWrapperINS1_IPK12PropertyInfoP11Il2CppClassEEEjEES9_17ReflectionMapHashIS8_EN14dense_hash_mapIS9_jSD_NS9_14EqualsComparerINS0_8equal_toIS8_EEEENS0_9allocatorISB_EEE9SelectKeyESI_SK_E3endEv
Pmd:_HorizontalOrVerticalLayoutGroup_get_childForceExpandWidth_m227100883
Xdg:__Z34RuntimeInvoker_LogType_t1559732862PFvvEPK10MethodInfoPvPS4_
oZh:_AnimationClipPlayable_op_Explicit_m1819456049
xKi:_TouchScreenKeyboard_get_active_m1442597648
soh:__ZL68Uri_t19570940_CustomAttributesCacheGenerator_U3CU3Ef__switchU24map15P21CustomAttributesCache
_Ec:_ps_dimension_done
Wed:_LayoutRebuilder_MarkLayoutForRebuild_m640589351
BLc:__Z46Register_UnityEngine_TextGenerator_Dispose_cppv
Ccd:_PointerEventData_get_pressEventCamera_m724559964
k2c:_String_IndexOfUnchecked_m3356721554
Zpb:__ZN16LightmapSettings8TransferI14SafeBinaryReadEEvRT_
NIa:__ZN17BufferManagerGLES13ReleaseBufferEP14DataBufferGLES
W_i:_Display__ctor_m3803500957
Dtc:__Z18Transfer_BlittableI8JSONReadLb1EjEvRK29SerializationCommandArgumentsR31RuntimeSerializationCommandInfo
ULh:__ZL63ScrollRect_t1199013257_CustomAttributesCacheGenerator_m_InertiaP21CustomAttributesCache
rEi:_PKCS12_Decrypt_m1557069392
tXh:_VertexHelper_AddUIVertexQuad_m280792808
Jqf:_WebHeaderCollection_ToString_m1246460752
goi:_InternalEnumerator_1_System_Collections_IEnumerator_get_Current_m2842514953_AdjustorThunk
jp:stackSave
uFc:_ps_dimension_end
zfc:__Z41Register_UnityEngine_Mesh_Internal_Createv
Jeb:__ZN16MemoryFileSystem5TouchER13FileEntryData
Qvj:__ZNK15dense_hashtableI10KeyWrapperIP18Il2CppGenericClassES3_N6il2cpp8metadata22Il2CppGenericClassHashEN14dense_hash_setIS3_S6_NS3_14EqualsComparerINS5_25Il2CppGenericClassCompareEEENSt3__29allocatorIS3_EEE8IdentityESA_SD_E12test_deletedERK30dense_hashtable_const_iteratorIS3_S3_S6_SF_SA_SD_E
wqf:_ServicePointManager_get_SecurityProtocol_m1445189298
JYc:_MACTripleDES_Initialize_m1318099802
Hcf:_MD5SHA1_VerifySignature_m507888141
Rwd:_Byte_System_IConvertible_ToChar_m4188836679
Kae:_NumberFormatter_InitDecHexDigits_m2036076025
DTg:_Enumerator_get_CurrentKey_m3839846791_AdjustorThunk
quc:__ZN8JSONRead21TransferSTLStyleArrayI13dynamic_arrayIaLj1EEEEvRT_18MemLabelIdentifier17TransferMetaFlags
e8a:__ZN6Camera9SetAspectEf
lWc:__ZN19TransportJavaScript9DoRequestERKN4core12basic_stringIcNS0_20StringStorageDefaultIcEEEEm21UnityWebRequestMethodS6_bbP12HeaderHelperP13UploadHandlerP15DownloadHandlerP14ResponseHelperP15UnityWebRequest
Bhd:_ColorTween_get_ignoreTimeScale_m641454126_AdjustorThunk
va:invoke_viiffiii
O1e:_ReadOnlyCollection_1_Contains_m1800950533_gshared
HIh:__ZL79TouchInputModule_t2561058385_CustomAttributesCacheGenerator_m_ForceModuleActiveP21CustomAttributesCache
p$j:_emscripten_glBindVertexArray__wrapper
Kfg:__Z52RuntimeInvoker_Vector2_t2243707579_Int32_t2071877448PFvvEPK10MethodInfoPvPS4_
jcf:_MD4__ctor_m2366413460
Uai:_Display__ctor_m563295973
tDh:__ZL97GUIStyle_t1799908754_CustomAttributesCacheGenerator_GUIStyle_Internal_CalcMinMaxWidth_m3660306863P21CustomAttributesCache
I_g:_Dictionary_2_InitArrays_m435313205_gshared
$H:__ZN10ObjectPoolIN4FMOD3DSPENS0_4DSPIEE7GetFreeEi
W8a:__ZN9Transform37InitializeTransformHierarchyRecursiveER18TransformHierarchyRii
U$b:__Z34DefaultPrepareDispatchBoundsUpdateR13RendererScene18MemLabelIdentifier
Pkd:_Graphic_get_useLegacyMeshGeneration_m1366444625
vqf:_ServicePointManager_get_CheckCertificateRevocationList_m4009410230
DKh:__ZL65InputField_t1631627530_CustomAttributesCacheGenerator_m_InputTypeP21CustomAttributesCache
TXi:__ZL24UnresolvedVirtualCall_78P12Il2CppObjectPK10MethodInfo
kve:_ModulusRing_Pow_m1137250399
zui:_InternalEnumerator_1_MoveNext_m2410670600_AdjustorThunk
sWa:__ZN17MeshRenderingData4InitEP4MeshS1_iP15SharedGfxBufferS3_
mPi:_InvokableCall_2_Find_m1763382885_gshared
x4e:_ReadOnlyCollection_1_System_Collections_ICollection_get_SyncRoot_m2779904122_gshared
s3g:_EqualityComparer_1_System_Collections_IEqualityComparer_Equals_m1682986002_gshared
xDd:_Hashtable__cctor_m2952659675
Wuf:_X509ChainStatus__ctor_m3628359961_AdjustorThunk
dOh:__ZL77LayoutUtility_t4076838048_CustomAttributesCacheGenerator_U3CU3Ef__amU24cache4P21CustomAttributesCache
B2c:_Evidence_get_HostEvidenceList_m2095478124
Zic:__Z57Register_UnityEngine_Transform_INTERNAL_set_localPositionv
Mff:_Context_Clear_m4000337070
MDa:__ZN13GfxDeviceGLES26SetRandomWriteTargetBufferEi15ComputeBufferID
Gxf:_IntervalCollection_Normalize_m538796191
TTa:__ZZ23InitPlayerLoopCallbacksvEN49EarlyUpdateResetFrameStatsAfterPresentRegistrator7ForwardEv
ZFd:_Console_SetEncodings_m342145566
HKi:_TrackedReference_op_Equality_m3491334086
Gkd:_FontUpdateTracker_UntrackText_m3827316510
djj:__ZN6il2cpp2gc19AppendOnlyGCHashMapINSt3__24pairIPK11Il2CppImageP11Il2CppClassEEP22Il2CppReflectionModule17ReflectionMapHashIS9_ENS2_8equal_toIS9_EEE10CopyValuesEPv
$7d:_Array_InternalArray__get_Item_TisSingle_t2076509932_m1495809753_gshared
w3d:_Array_InternalArray__set_Item_TisAnimatorClipInfo_t3905751349_m978873279_gshared
_7b:__ZNK11ICallString6ToUTF8Ev
hBi:_CaptureAssertion_get_Alternate_m2729005740
QEj:_GC_number_stack_black_listed
Qtj:__ZN24dense_hashtable_iteratorINSt3__24pairIK10KeyWrapperIP14Il2CppIUnknownEjEES5_N6il2cpp5utils11PointerHashIS3_EEN14dense_hash_mapIS5_jSB_NS5_14EqualsComparerINS0_8equal_toIS4_EEEENS0_9allocatorIS7_EEE9SelectKeyESG_SI_E30advance_past_empty_and_deletedEv
n_a:__ZNSt3__211__sift_downIR17ROSorterDepthPassP15RODataDepthPassEEvT0_S5_T_NS_15iterator_traitsIS5_E15difference_typeES5_
Spg:_Default_SelectMethod_m3081239996
gna:__ZN18UnityPropertySheet11UnityTexEnvC2Ev
iac:__ZNSt3__214__split_bufferIPN9BlobWrite11TypeContextENS_9allocatorIS3_EEE10push_frontERKS3_
eA:__ZN8Animator17ApplyOnAnimatorIKEiRNS_11AnimatorJobE
Y5:__ZN12FileAccessor4ReadEyyPvPy
Gla:__ZN13dynamic_arrayI16ShaderKeywordSetLj4EE6insertEPS0_PKS0_S4_
uRb:__Z29Transfer_Blittable_ArrayFieldI18StreamedBinaryReadILb0EE11QuaternionfEvRT_R9ArrayInfoRK23StaticTransferFieldInfo
Wyf:_MethodDictionary_IsOverridenKey_m3922224650
MEd:_SyncHashtable_Contains_m3042906549
kSe:_List_1_System_Collections_IList_set_Item_m4016273526_gshared
lvf:_X509KeyUsageExtension_CopyFrom_m931530012
TZh:_AnimationLayerMixerPlayable_IsLayerAdditiveInternal_m3902226808
G7a:__ZN13RenderTexture9SetHeightEi
Mt:__ZN7mecanim9animation17ClearMotionOutputEPNS0_18AnimationNodeStateE
imb:__ZN16LevelGameManager8TransferI24GenerateTypeTreeTransferEEvRT_
oPh:_LayoutUtility_U3CGetMinHeightU3Em__4_m1769295917
p9h:_Color32__ctor_m1932627809_AdjustorThunk
KPc:__Z36CanvasRenderer_CUSTOM_SetPopMaterialP12Il2CppObjectS0_i
D2h:_AnimatorControllerPlayable_INTERNAL_CALL_PlayInFixedTimeInternal_m44271350
oRh:_RectMask2D_PerformClipping_m1232012832
jag:__Z66RuntimeInvoker_AudioMixerPlayable_t1831808911_Playable_t1896841784PFvvEPK10MethodInfoPvPS4_
rUg:_Transform_1_Invoke_m4020530914_gshared
GDc:_tt_cmap8_char_index
j2:__Z24scripting_class_get_name17ScriptingClassPtr
g8:__ZN13RuntimeStaticI15GUIEventManagerLb0EE13StaticDestroyEPv
ADg:_GUILayoutGroup_ResetCursor_m3160916532
qzj:__ZN6il2cpp2os6Thread15CurrentThreadIdEv
rGb:__Z29Transfer_Blittable_ArrayFieldI14SafeBinaryReadjEvRT_R9ArrayInfoRK23StaticTransferFieldInfo
A7h:_Camera_FireOnPostRender_m94860165
wUh:_ScrollRect_get_minWidth_m3151814267
le:_emscripten_set_keydown_callback
hEd:_Enumerator_get_Value_m3684748062
$ib:__ZN19StreamedBinaryWriteILb0EE21TransferSTLStyleArrayINSt3__26vectorI17SortingLayerEntryNS2_9allocatorIS4_EEEEEEvRT_17TransferMetaFlags
dSf:_UInt32_Parse_m3371984903
e6:__ZN12FileAccessorC2Ev
WFi:_X509CertificateCollection_Compare_m1014334435
V9a:__ZN9Transform35SetLocalPositionWithoutNotificationERKN4math7_float3E
$lg:__Z33RuntimeInvoker_TypeTag_t141209596PFvvEPK10MethodInfoPvPS4_
Xyi:_PatternLinkStack_GetCurrent_m2994645935
G8e:_Comparison_1__ctor_m2929820459_gshared
gZf:__Z59RuntimeInvoker_RuntimeObject_RuntimeObject_SByte_t454417549PFvvEPK10MethodInfoPvPS4_
Rii:_AsyncResult__ctor_m1183194429
Jcj:__ZN6il2cpp2vm7Runtime12GetConfigDirEv
tD:__ZN4PPtrI13MonoBehaviourE8TransferI18StreamedBinaryReadILb0EEEEvRT_
Yyf:_MethodDictionary_set_Item_m3475146889
Uig:__Z71RuntimeInvoker_Int32_t2071877448_CustomAttributeNamedArgument_t94157543PFvvEPK10MethodInfoPvPS4_
Cfh:__ZL62WellKnownObjectMode_t2630225581_CustomAttributesCacheGeneratorP21CustomAttributesCache
JXh:_Toggle_PlayEffect_m3950629415
YZd:_Array_IndexOf_TisRuntimeObject_m214763038_gshared
okg:__Z79RuntimeInvoker_Void_t1841601450_Int32_t2071877448_ParameterModifier_t1820634920PFvvEPK10MethodInfoPvPS4_
$Cb:__Z39WriteQueueForTransferSignatureIntoCacheRK31TransferFunctionScriptingTraitsRK24TransferRequestSignature17ScriptingClassPtrR23CachedSerializationDataRb
Mta:__ZN13RenderManager18UpdateAllRenderersEv
vRc:__ZN22BaseUnityConnectClient30OnEnteringStatePausedOrStoppedEv
H_e:_Collection_1_System_Collections_ICollection_get_SyncRoot_m2157752542_gshared
Mjj:__ZN15dense_hashtableINSt3__24pairIK10KeyWrapperINS1_IPK12PropertyInfoP11Il2CppClassEEEjEES9_17ReflectionMapHashIS8_EN14dense_hash_mapIS9_jSD_NS9_14EqualsComparerINS0_8equal_toIS8_EEEENS0_9allocatorISB_EEE9SelectKeyESI_SK_E12resize_deltaEjj
Zt:__ZN7mecanim5human12HumanPoseAddERNS0_9HumanPoseERKS1_S4_
BPi:_UnityAction_1__ctor_m2836997866_gshared
i3h:_Animator_ResetTrigger_m865269317
Rjh:__ZL64AssemblyLoadEventArgs_t4233815743_CustomAttributesCacheGeneratorP21CustomAttributesCache
LZe:_Collection_1_IsFixedSize_m218241296_gshared
R9a:__Z24MergeTransformComponentsR9TransformS0_b
Q1h:_AnimatorControllerPlayable_IsInTransition_m3708059860
u6h:_DelegatePInvokeWrapper_AudioConfigurationChangeHandler_t3743753033
yle:_MonoIO_get_PathSeparator_m2635828107
BCf:_TypeInfo_get_TypeName_m1722081275
lui:_InternalEnumerator_1_get_Current_m889125315_gshared
Hqe:_MonoType_get_Name_m865859211
aUd:_CultureInfo__cctor_m2290268677
qki:_ArrayReadOnlyList_1_System_Collections_IEnumerable_GetEnumerator_m3039869667_gshared
ZT:__Z71Register_UnityEngine_Audio_AudioClipPlayable_INTERNAL_CALL_ValidateTypev
DBf:_RemotingConfiguration__cctor_m2129988840
aYe:_Collection_1_Insert_m44548038_gshared
bvi:_InternalEnumerator_1_MoveNext_m4175772187_AdjustorThunk
xDh:__ZL87GUIUtility_t3275770671_CustomAttributesCacheGenerator_U3CguiIsExitingU3Ek__BackingFieldP21CustomAttributesCache
aDj:__ZN6il2cpp2vm13ComObjectBase19GetRuntimeClassNameEPP15Il2CppHString__
AQb:__Z35Transfer_Blittable_FixedBufferFieldI18StreamedBinaryReadILb0EEyEvRK29SerializationCommandArgumentsR31RuntimeSerializationCommandInfo
Sj:_emscripten_glVertexAttribPointer
KQj:__ZNSt11logic_errorD0Ev
Jlb:__ZNK20IntermediateRenderer12GetSceneMaskEv
Rra:__ZN14PreloadManager26UpdatePreloadingSingleStepENS_21UpdatePreloadingFlagsEi
kJg:_Material__ctor_m1440882780
f0c:_SHA512Managed_Initialize_m891287980
P2c:_SecurityException__ctor_m1484114982
vgi:_SinkProviderData_get_Children_m100594762
BGi:_X509Crl_GetHashName_m183504634
Etd:_Array_GetValue_m1507415734
fhc:__Z57Register_UnityEngine_RectTransform_INTERNAL_set_anchorMinv
y9d:_Object_MemberwiseClone_m2655589444
S2e:_ReadOnlyCollection_1_System_Collections_IList_get_Item_m375043207_gshared
jpa:__ZN6prcoreL25inner_stretch_i8_bilinearEPKNS_9InnerInfoE
rsa:__ZL30RegisterFilteredObjectCallbackPP12Il2CppObjectiPv
_ie:_DirectoryInfo_ToString_m4208086799
szg:_MonoMethod_get_IsGenericMethod_m4276550811
QUg:_Transform_1_BeginInvoke_m3826027984_gshared
XYh:_AnimationEvent_set_time_m2162176572
_V:__ZN11UnityEngine15CloudWebService16SessionContainer24GetSessionHeaderJsonDataERKN4core12basic_stringIcNS2_20StringStorageDefaultIcEEEERNS2_13StringBuilderE
rId:_Decimal_op_Implicit_m2149927308
T7:__ZN13RuntimeStaticI21AssetReferenceStorageLb0EE13StaticDestroyEPv
Myj:__ZN6il2cpp6icalls8mscorlib6System9AppDomain22InternalGetProcessGuidEP12Il2CppString
rZb:__ZN15dense_hashtableINSt3__24pairIKN4core12basic_stringIcNS2_20StringStorageDefaultIcEEEE10vector_setI4PPtrI11SpriteAtlasENS0_4lessISB_EE13stl_allocatorISB_L18MemLabelIdentifier79ELi16EEEEES6_20StringHash32FunctionIS6_EN14dense_hash_mapIS6_SH_SK_NS0_8equal_toIS6_EESE_ISI_LSF_79ELi16EEE9SelectKeyESN_SO_E15insert_noresizeERKSI_
txe:_KeyPairPersistence_get_UseMachineKeyStore_m560802076
tUe:_Collection_1_CopyTo_m1840908033_gshared
XQ:__ZN19AudioPlayableOutput19DeallocateResourcesEv
zRg:_Enumerator_System_Collections_IDictionaryEnumerator_get_Entry_m345330700_AdjustorThunk
Bbj:__ZNSt3__214__split_bufferIP9FieldInfoRNS_9allocatorIS2_EEEC2EjjS5_
K8c:_AbstractEventData__ctor_m3586111519
kKb:__Z18Transfer_BlittableI24GenerateTypeTreeTransferLb1EjEvRK29SerializationCommandArgumentsR31RuntimeSerializationCommandInfo
ecf:_MD2Managed_Padding_m410163267
zjj:__ZNK15dense_hashtableINSt3__24pairIK10KeyWrapperINS1_IPK11Il2CppImageP11Il2CppClassEEEjEES9_17ReflectionMapHashIS8_EN14dense_hash_mapIS9_jSD_NS9_14EqualsComparerINS0_8equal_toIS8_EEEENS0_9allocatorISB_EEE9SelectKeyESI_SK_E10test_emptyERK30dense_hashtable_const_iteratorISB_S9_SD_SM_SI_SK_E
cYh:_Toggle_UnityEngine_UI_ICanvasElement_get_transform_m4177274032
Clb:__ZN11ColorRGBA328TransferI14SafeBinaryReadEEvRT_
jTg:_Enumerator_Dispose_m401572848_AdjustorThunk
Zsh:__ZL85Input_t1785128008_CustomAttributesCacheGenerator_Input_get_touchSupported_m3352846145P21CustomAttributesCache
Qf:_emscripten_glClearDepth
V2b:__ZNK8GUILayer22GetTypeVirtualInternalEv
_mb:__ZN8Playable12SetPlayStateE9PlayState
lsb:__ZN14SafeBinaryRead21TransferSTLStyleArrayINSt3__26vectorIN15QualitySettings14QualitySettingENS1_9allocatorIS4_EEEEEEvRT_17TransferMetaFlags
$5d:_Array_swap_TisVector2_t2243707579_m3359959735_gshared
nje:_File_OpenText_m4058508963
hsh:__ZL101QualitySettings_t3238033062_CustomAttributesCacheGenerator_QualitySettings_set_vSyncCount_m1045847619P21CustomAttributesCache
Wyb:__ZNSt3__26vectorINS_4pairIPKN5Unity4TypeE7Hash128EENS_9allocatorIS7_EEE8__appendEj
CCf:_WellKnownClientTypeEntry__ctor_m670594074
QJh:__ZL61FontData_t2614388407_CustomAttributesCacheGenerator_m_MinSizeP21CustomAttributesCache
doj:__ZN15dense_hashtableINSt3__24pairIK10KeyWrapperIP11Il2CppClassES4_EES5_N6il2cpp8metadata16SZArrayClassHashEN14dense_hash_mapIS5_S4_SA_NS5_14EqualsComparerINS9_19SZArrayClassCompareEEENS0_9allocatorIS7_EEE9SelectKeyESE_SG_EC2ERKSJ_j
JLd:_DateTime_System_IConvertible_ToSingle_m3927769066_AdjustorThunk
UHc:_cff_font_load
uLi:_Enumerator_Reset_m950879083
Ljf:_RecordProtocol_SendRecord_m2977889250
Rac:__Z13IsPathCreatedRKN4core12basic_stringIcNS_20StringStorageDefaultIcEEEE
Eva:__ZL22stbir__encode_scanlineP11stbir__infoiPvPfiii
J1f:__Z136RuntimeInvoker_Void_t1841601450_Byte_t3683104436_RuntimeObject_Int64U26_t763825331_ObjectU26_t597476745_SerializationInfoU26_t4051840202PFvvEPK10MethodInfoPvPS4_
Mwc:__ZN20QuadTreeNodeRenderer13StaticDestroyEPv
WW:__ZN11UnityEngine15CloudWebService20WebRequestRestClient5AbortEv
H$b:__ZN9Transform12CleanupClassEv
eYf:__Z50RuntimeInvoker_Void_t1841601450_Double_t4078015681PFvvEPK10MethodInfoPvPS4_
bIj:__ZN6il2cpp6icalls8mscorlib6System9Threading16NativeEventCalls19CloseEvent_internalE12Il2CppIntPtr
Mz:__ZN11UnityEngine9Animation33SetGenericTransformPropertyValuesERKNS0_30AnimatorGenericBindingConstantERKN7mecanim10ValueArrayEP9Transformb
Kff:_ClientContext_set_ClientHelloProtocol_m2246603449
cAc:_UNITY_FT_Set_Pixel_Sizes
$qd:_U3CMouseDragOutsideRectU3Ec__Iterator1_MoveNext_m2845491958
uUb:__ZNSt3__26vectorIN9ShaderLab19SerializedSubShaderENS_9allocatorIS2_EEE26__swap_out_circular_bufferERNS_14__split_bufferIS2_RS4_EE
N5d:_Array_swap_TisAnimatorClipInfo_t3905751349_TisAnimatorClipInfo_t3905751349_m1375833338_gshared
SZf:__Z116RuntimeInvoker_RuntimeObject_RuntimeObject_Int32_t2071877448_RuntimeObject_RuntimeObject_RuntimeObject_RuntimeObjectPFvvEPK10MethodInfoPvPS4_
Ndd:_StandaloneInputModule_IsModuleSupported_m623598506
hpj:__ZN6il2cpp2vmL24thread_cleanup_on_cancelEPv
pdi:_ResourceReader_Close_m3256966401
EGf:_SByte_ToString_m4105923225_AdjustorThunk
GEf:_StreamingContext_t1417235061_marshal_pinvoke_cleanup
eUd:_CultureInfo_ConstructCurrentUICulture_m3363349599
ltb:__ZN13dynamic_arrayI7SubMeshLj4EE18resize_initializedEjRKS0_12ResizePolicy
dNh:__ZL75CanvasScaler_t2574720772_CustomAttributesCacheGenerator_m_FallbackScreenDPIP21CustomAttributesCache
eqe:_MonoType_GetEvent_m4160342003
_Qh:_RawImage_set_texture_m2400157626
ZVi:_PrimeHelper_ToPrime_m1606935350_gshared
Rlb:__Z30ProcessDynamicBatchGeometryJobP25DynamicVBOGeometryJobDataj
p3g:_EqualityComparer_1__ctor_m81618677_gshared
L_a:__ZNSt3__27__sort4IRNS_6__lessI11CulledLightS2_EEPS2_EEjT0_S6_S6_S6_T_
mfj:__ZN6il2cpp2vm14TypeNameParser26ParseArrayModifierOptionalEv
$4h:_AudioClipPlayable_INTERNAL_CALL_GetLoopedInternal_m3082735156
Gse:_MSCompatUnicodeTable_Level3_m260824928
Crd:_LayoutElement_OnEnable_m3478706401
w3:__Z26scripting_object_get_class18ScriptingObjectPtr
t0i:_Func_3__ctor_m3917225629_gshared
e$b:__ZNK28MonoBehaviourPropertyBinding15GenerateBindingERKN4core12basic_stringIcNS0_20StringStorageDefaultIcEEEEbRN11UnityEngine9Animation14GenericBindingE
dHg:_GUIStyle_CalcMinMaxWidth_m2027503105
Oee:_Int32_FindExponent_m3187554672
Fxe:_KeyPairPersistence_Load_m1355205585
vTh:_ScrollRect_get_horizontalScrollbarVisibility_m4152068235
Qfe:_Int32_ToString_m2960866144_AdjustorThunk
v1i:_Predicate_1_Invoke_m3539717340_gshared
qWi:_HashSet_1_Contains_m3626542335_gshared
nig:__Z104RuntimeInvoker_Int32_t2071877448_AnimatorClipInfo_t3905751349_AnimatorClipInfo_t3905751349_RuntimeObjectPFvvEPK10MethodInfoPvPS4_
T4c:_Single_CompareTo_m2081476257_AdjustorThunk
cBj:__ZN6il2cpp6icalls8mscorlib6System11Environment15internalGetHomeEv
GTj:dynCall_iiiiiiffiiiiiiiiiffffiiii
WEi:_PKCS12_get_Keys_m288413492
wgb:__ZNK5Unity9Component7GetNameEv
ecj:__ZNSt3__214__split_bufferIN6il2cpp6icalls8mscorlib6System12PropertyPairERNS_9allocatorIS5_EEEC2EjjS8_
flh:__ZL79Convert_t2607082565_CustomAttributesCacheGenerator_Convert_ToUInt16_m2130758075P21CustomAttributesCache
nEf:__ZN21InterfaceFuncInvoker4IP12Il2CppObjectS1_P28SerializationInfo_t22898743028StreamingContext_t1417235061S1_E6InvokeEjP11Il2CppClassS1_S1_S3_S4_S1_
bmh:__ZL58IFormatProvider_t2849799027_CustomAttributesCacheGeneratorP21CustomAttributesCache
$jg:__Z75RuntimeInvoker_Void_t1841601450_Int32_t2071877448_KeyValuePair_2_t888819835PFvvEPK10MethodInfoPvPS4_
HSi:_ObjectPool_1_Get_m3724675538_gshared
obb:__ZN13ScreenManagerD0Ev
ZA:__ZN7mecanim8skeleton26SkeletonPoseComputeGlobalQEPKNS0_8SkeletonEPKNS0_13SkeletonPoseTIN4math4trsXEEEPS7_ii
pvc:__ZN8JSONRead21TransferSTLStyleArrayI13dynamic_arrayIfLj4EEEEvRT_18MemLabelIdentifier17TransferMetaFlags
L_i:__ZL25UnresolvedVirtualCall_232P12Il2CppObject20UIVertex_t1204258818PK10MethodInfo
RMe:_List_1_GetEnumerator_m2672519407_gshared
zA:__ZN9BlobWrite8TransferI22OffsetPtrArrayTransferIiEEEvRT_PKc17TransferMetaFlags
Y1f:__Z82RuntimeInvoker_Boolean_t3825574718_SByte_t454417549_RuntimeObject_SByte_t454417549PFvvEPK10MethodInfoPvPS4_
qse:_ContractionComparer_Compare_m314873025
h3a:__ZN14qsort_internal18QSortSingleJobDataIP16RenderObjectDatai26RenderDeferredObjectSorterE7SortJobEPS4_
GIb:__Z18Transfer_BlittableI17RemapPPtrTransferLb1EjEvRK29SerializationCommandArgumentsR31RuntimeSerializationCommandInfo
UHg:_GUIUtility_EndGUIFromException_m2091524531
gge:_Int64_System_IConvertible_ToDouble_m638786774
qM:__ZN4FMOD6System7releaseEv
lEd:_HashKeys_get_IsSynchronized_m4207641174
WLb:__Z18Transfer_BlittableI19StreamedBinaryWriteILb0EELb1E8BitFieldEvRK29SerializationCommandArgumentsR31RuntimeSerializationCommandInfo
B5:__Z18PathToAbsolutePathRKN4core12basic_stringIcNS_20StringStorageDefaultIcEEEE
p7f:__Z44RuntimeInvoker_HashAlgorithmType_t1654661965PFvvEPK10MethodInfoPvPS4_
dEe:_Enumerator_MoveNext_m3078170540_AdjustorThunk
J0c:_SymmetricAlgorithm_get_Padding_m718051685
fIj:__ZN6il2cpp6icalls8mscorlib6System10Reflection16MonoPropertyInfo16GetTypeModifiersEPvb
hTi:_Action_Invoke_m3801112262
qYf:__Z79RuntimeInvoker_Decimal_t724701077_RuntimeObject_Int32_t2071877448_RuntimeObjectPFvvEPK10MethodInfoPvPS4_
j9h:_Color_Lerp_m3323752807
jva:__ZL13BlitImageImplR14ImageReferenceiiRKS_NS_10ColorSpaceENS_8BlitModeEb
Bqa:__ZN6prcoreL17RemapGenericFloatI18TexFormatRGBAFloat17TexFormatRGBFloatEEvPKNS_9InnerInfoE
ckh:__ZL76Convert_t2607082565_CustomAttributesCacheGenerator_Convert_ToChar_m541258017P21CustomAttributesCache
GXf:__Z64RuntimeInvoker_RuntimeObject_Int16_t4041245914_Int16_t4041245914PFvvEPK10MethodInfoPvPS4_
xzh:__ZL157AnimatorControllerPlayable_t1744083903_CustomAttributesCacheGenerator_AnimatorControllerPlayable_INTERNAL_CALL_IsParameterControlledByCurveString_m3721812988P21CustomAttributesCache
awa:__ZN29SerializeTraitsForStringTypesIN4core12basic_stringIcNS0_20StringStorageDefaultIcEEEEE8TransferI24GenerateTypeTreeTransferEEvRS4_RT_
JGg:_GUIUtility_Internal_GetHotControl_m2510727642
xK:__ZN12AudioManager29ShutdownReinitializeAndReloadEv
bEi:_NetscapeCertTypeExtension_Decode_m2210025005
rgg:__Z56RuntimeInvoker_Void_t1841601450_KeyValuePair_2_t38854645PFvvEPK10MethodInfoPvPS4_
NQg:_RectTransform_GetLocalCorners_m1836626405
LCf:_BaseFixupRecord_DoFixup_m1821597450
I2i:__ZN15dense_hashtableINSt3__24pairIK10KeyWrapperIPK22Il2CppGenericParameterEP11Il2CppClassEES6_N6il2cpp5utils11PointerHashIS4_EEN14dense_hash_mapIS6_S9_SE_NS6_14EqualsComparerINS0_8equal_toIS5_EEEENS0_9allocatorISA_EEE9SelectKeyESJ_SL_E6insertERKSA_
rje:_FileLoadException__ctor_m1356374414
Pef:_TlsStream_Reset_m1504601050
_Ge:__ZN23InterfaceActionInvoker2IP23Int32U5BU5D_t3030399641iE6InvokeEjP11Il2CppClassP12Il2CppObjectS1_i
_Fa:__ZN14DataBufferGLES16RecreateWithDataEjPKv
nac:__Z29GetGlobalAllowNameConversionsv
Jab:__ZN8Material8SetColorEN9ShaderLab16FastPropertyNameERK10ColorRGBAf
Cxg:_Module_GetCustomAttributes_m3581287913
J7g:__ZL67Type_t_CustomAttributesCacheGenerator_Type_IsSubclassOf_m2450899481P21CustomAttributesCache
jO:__ZN11AudioSource23VirtualRedirectTransferER18StreamedBinaryReadILb0EE
Y7:__ZN21AssetReferenceStorageC2Ev
BMb:__ZN10RectOffset8TransferI19StreamedBinaryWriteILb0EEEEvRT_
rxc:__ZNSt3__26vectorIN4core12basic_stringIcNS1_20StringStorageDefaultIcEEEE13stl_allocatorIS5_L18MemLabelIdentifier34ELi16EEEC2INS_11__wrap_iterIPS5_EEEET_SE_RKS8_PNS_9enable_ifIXaasr21__is_forward_iteratorISE_EE5valuesr16is_constructibleIS5_NS_15iterator_traitsISE_E9referenceEEE5valueEvE4typeE
n2:__ZL41AssemblyNameMatchesWithOrWithoutExtensionPKcS0_
$hg:__Z53RuntimeInvoker_Boolean_t3825574718_Color32_t874517518PFvvEPK10MethodInfoPvPS4_
g4h:_AssemblyIsEditorAssembly__ctor_m2639706522
qKa:__ZN14GfxContextGLES43AddRenderSurfaceToDeferredFBOInvalidateListEPK17RenderSurfaceGLES
fqj:__ZN6il2cpp6icalls8mscorlib6System9Threading6Thread15Thread_internalEP12Il2CppThreadP14Il2CppDelegate
Qka:__ZN11NamedObject23VirtualRedirectTransferER14SafeBinaryRead
K6g:__ZL74RuntimeArray_CustomAttributesCacheGenerator_Array_BinarySearch_m3522310993P21CustomAttributesCache
Uzc:__ZNSt3__26vectorIN20TextRenderingPrivate8FontImpl13CharacterInfoE13stl_allocatorIS3_L18MemLabelIdentifier1ELi16EEE6insertENS_11__wrap_iterIPKS3_EERS9_
$ra:__ZN23PreloadManagerOperation6IsDoneEv
zuh:__ZL102DataUtility_t4181890362_CustomAttributesCacheGenerator_DataUtility_INTERNAL_CALL_GetOuterUV_m121019172P21CustomAttributesCache
Scj:__ZN6il2cpp2vm7Runtime15InvokeWithThrowEPK10MethodInfoPvPS5_
kBe:_X509Certificate_get_RawData_m3000055075
m3i:__ZNSt3__26vectorIPK10Il2CppTypeNS_9allocatorIS3_EEE21__push_back_slow_pathIRKS3_EEvOT_
C5b:__Z33GetHasChangedDeprecatedSystemMaskv
ECj:__ZN6il2cpp5utils11StringUtils11Utf16ToUtf8ERKNSt3__212basic_stringIDsNS2_11char_traitsIDsEENS2_9allocatorIDsEEEE
Olg:__Z30RuntimeInvoker_Link_t865133271PFvvEPK10MethodInfoPvPS4_
KSg:_Enumerator_VerifyState_m1165543189_AdjustorThunk
pMd:_DateTime_AddSeconds_m722082155_AdjustorThunk
yBd:_SynchronizedArrayListWrapper_CopyTo_m956887031
r8i:__ZNSt3__213__lower_boundIRN6il2cpp5utils11collections13ArrayValueMapIPK10Il2CppType17Il2CppInteropData26InteropDataToTypeConverterNS1_8metadata14Il2CppTypeLessENSA_26Il2CppTypeEqualityComparerEE22LowerBoundFindComparerEPKS8_S7_EET0_SI_SI_RKT1_T_
hwi:_Comparer_1__ctor_m1202126643_gshared
cwh:__ZL92Transform_t3275118058_CustomAttributesCacheGenerator_Transform_get_parentInternal_m927919099P21CustomAttributesCache
Bwa:__ZN21LightProbeProxyVolume18HasHardwareSupportEv
epa:__ZN6prcoreL31inner_stretch_argb8888_bilinearEPKNS_9InnerInfoE
MNb:__Z18Transfer_BlittableI18StreamedBinaryReadILb1EELb1E8BitFieldEvRK29SerializationCommandArgumentsR31RuntimeSerializationCommandInfo
WBc:_UNITY_FT_Outline_Decompose
Whf:_TlsClientCertificate_get_ClientCertificate_m3062440489
r2c:_StrongNamePublicKeyBlob_ToString_m3721281223
nFh:__ZL80UnityEvent_t408735097_CustomAttributesCacheGenerator_UnityEvent__ctor_m588741179P21CustomAttributesCache
yni:_InternalEnumerator_1_get_Current_m198513457_AdjustorThunk
Ywh:__ZL116AudioClipPlayable_t192218916_CustomAttributesCacheGenerator_AudioClipPlayable_INTERNAL_CALL_ValidateType_m1977251214P21CustomAttributesCache
uri:_InternalEnumerator_1__ctor_m1240086835_AdjustorThunk
LYa:__Z20scripting_object_new17ScriptingClassPtr
Lce:_TextInfo__ctor_m2782608694
Xcc:__Z31Display_CUSTOM_GetSystemExtImpl13Il2Cpp_IntPtrPiS0_
mTe:_Queue_1_System_Collections_ICollection_CopyTo_m772787461_gshared
Hjc:__Z58Register_UnityEngine_Object_Internal_CloneSingleWithParentv
Mhj:__ZN24dense_hashtable_iteratorINSt3__24pairIK10KeyWrapperINS1_IPK9FieldInfoP11Il2CppClassEEEjEES9_17ReflectionMapHashIS8_EN14dense_hash_mapIS9_jSD_NS9_14EqualsComparerINS0_8equal_toIS8_EEEENS0_9allocatorISB_EEE9SelectKeyESI_SK_E30advance_past_empty_and_deletedEv
Uce:_TextInfo_ToUpper_m299550697
O_h:_AnimationOffsetPlayable_INTERNAL_CALL_SetRotationInternal_m2809009466
csc:__ZN9JSONWrite8TransferI13dynamic_arrayI8BitFieldLj4EEEEvRT_PKc17TransferMetaFlags
b3a:__ZN18ShadowMapJobHeaderD0Ev
Vkd:_Graphic_OnRectTransformDimensionsChange_m1610753363
oKd:_Convert_ToUInt16_m3265369225
P:Math_exp
Lpe:_MonoEnumInfo_get_Cache_m3551569711
No:FUNCTION_TABLE_iiifi
Ayj:__ZN6il2cpp2os5posix13PosixAutoLockD2Ev
VVd:_Array_InternalArray__ICollection_Contains_TisVector3_t2243707580_m3625701788_gshared
aza:__ZNSt3__26vectorINS_4pairIyP17VertexDeclarationEENS_9allocatorIS4_EEE6insertENS_11__wrap_iterIPKS4_EERS9_
kii:__ZN21InterfaceFuncInvoker0IP6Type_tE6InvokeEjP11Il2CppClassP12Il2CppObject
i7g:__ZL66RuntimeArray_CustomAttributesCacheGenerator_Array_Sort_m1999601238P21CustomAttributesCache
aTe:_Enumerator__ctor_m1424070651_AdjustorThunk
cGc:_cff_get_advances
G8a:__ZN13MonoBehaviour9SetScriptERK4PPtrI10MonoScriptE18ScriptingObjectPtr
LVd:_Array_InternalArray__ICollection_Contains_TisPlayableBinding_t2498078091_m4267109606_gshared
CBc:_UNITY_FT_Create_Class_sfnt_module_class
uXh:_Text_CalculateLayoutInputHorizontal_m1578553982
kvh:__ZL87Object_t1021602117_CustomAttributesCacheGenerator_Object_DestroyObject_m282495858____t1P21CustomAttributesCache
vtj:__ZNSt3__218uninitialized_copyIPNS_4pairIK10KeyWrapperIP14Il2CppIUnknownEjEES8_EET0_T_SA_S9_
JOd:_Decimal_IsZero_m3557909184_AdjustorThunk
dzd:_Char_ToString_m1401375624
RYc:_MD5CryptoServiceProvider__cctor_m3309191799
kfa:__ZNK10FileSystem16LastErrorMessageEv
kOg:_ScriptPlayableOutput__ctor_m3107656159
cxf:_InterpreterFactory_get_NamesMapping_m3186583301
Edg:__Z74RuntimeInvoker_Vector2_t2243707579_Vector2_t2243707579_Vector2_t2243707579PFvvEPK10MethodInfoPvPS4_
ath:__ZL87Input_t1785128008_CustomAttributesCacheGenerator_Input_get_compositionString_m636835668P21CustomAttributesCache
QFe:_Enumerator_System_Collections_IEnumerator_Reset_m3052395060_gshared
cXe:_Collection_1_System_Collections_ICollection_get_SyncRoot_m1997144145_gshared
naf:_Kernel_DwordDivMod_m3728402123
KBb:__ZN13MonoBehaviour13AwakeFromLoadE17AwakeFromLoadMode
zIb:__ZL26Transfer_SimpleNativeClassI17RemapPPtrTransfer8GradientLb1EEvRK29SerializationCommandArgumentsR31RuntimeSerializationCommandInfo
Q5b:__ZN12CachedWriter9InitWriteER15CacheWriterBase
o4b:__Z21UnsignedInt64ToStringy
GLf:_UTF7Decoder__ctor_m549434986
Oti:_InternalEnumerator_1_get_Current_m1025321669_AdjustorThunk
DLg:_Object_t1021602117_marshal_pinvoke
Rfc:__Z36MonoBehaviour_CUSTOM_InvokeRepeatingP12Il2CppObjectP12Il2CppStringff
ijc:__Z66Register_UnityEngine_Transform_INTERNAL_CALL_InverseTransformPointv
Aaa:__ZZN15DirectorManager15InitializeClassEvEN41FixedUpdateDirectorFixedUpdateRegistrator7ForwardEv
Woi:_InternalEnumerator_1_MoveNext_m2720582493_gshared
$Ij:__ZN6il2cpp2os9MutexImpl7TryLockEjb
Yvf:_Group__ctor_m4103922028
ZUa:__ZN6Camera26ClearIntermediateRenderersEj
Oaj:__ZNSt3__214__split_bufferI6pollfdRNS_9allocatorIS1_EEEC2EjjS4_
__j:_glLinkProgram__wrapper
Opa:__ZN6prcoreL12RemapGenericI17TexFormatARGB888815TexFormatBGR888EEvPKNS_9InnerInfoE
XYc:_MD5CryptoServiceProvider_ProcessFinalBlock_m1052610785
HG:__Z79AnimatorControllerPlayable_CUSTOM_INTERNAL_CALL_GetNextAnimatorClipInfoInternalR9HPlayablei
OBd:_BitArray_Set_m2878881714
$_e:_Collection_1_get_Item_m4215988522_gshared
MUh:_Selectable_get_colors_m3501193396
cuj:__ZN6il2cpp6icalls8mscorlib6System13Globalization11CultureInfo35construct_internal_locale_from_nameEP17Il2CppCultureInfoP12Il2CppString
zKb:__ZL22Transfer_ManagedObjectI24GenerateTypeTreeTransferLb1EEvRK29SerializationCommandArgumentsR31RuntimeSerializationCommandInfo
Svh:__ZL72SceneManager_t90660965_CustomAttributesCacheGenerator_activeSceneChangedP21CustomAttributesCache
ddh:__ZL55COMException_t1790481504_CustomAttributesCacheGeneratorP21CustomAttributesCache
awe:_ASN1_get_Count_m404940548
fii:_ContextAttribute_Equals_m53324298
d8h:_Canvas_ForceUpdateCanvases_m2446828475
_j:_emscripten_set_main_loop_timing
Ycc:__Z34Display_CUSTOM_GetRenderingExtImpl13Il2Cpp_IntPtrPiS0_
wVf:_WeakReference_AllocateHandle_m1783929473
VFa:__ZN14DataBufferGLES12RecordRenderEv
U4d:_Array_Sort_TisRuntimeObject_m3674422195_gshared
gab:__ZN14ImageReference10FlipImageYEv
Sjb:__Z32TransferEnumWithNameForceIntSizeI14SafeBinaryRead13TargetEyeMaskEvRT_RT0_PKc17TransferMetaFlags
Jlc:__Z14GetDefaultSkini
hUd:_CultureInfo_get_Name_m3316229893
fMd:_DateTime_get_Ticks_m310281298_AdjustorThunk
YH:__ZN4FMOD3DSP9setBypassEb
g0e:_Collection_1_System_Collections_IList_get_Item_m287847793_gshared
Zeb:__Z19NormalizeWheelInputf
Kvf:_CaptureCollection_CopyTo_m1982767892
Tcb:__Z29StdTemplateConversionFunctionIsaEbPvR14SafeBinaryRead
bWd:_Array_InternalArray__ICollection_Remove_TisLink_t865133271_m1984184141_gshared
svc:__Z29Transfer_Blittable_ArrayFieldI8JSONReadhEvRT_R9ArrayInfoRK23StaticTransferFieldInfo
jsd:_LayoutRebuilder_IsDestroyed_m3442208294
a8b:__ZN11MonoManager25GetImageFromAssemblyIndexEi
lSg:_Enumerator_VerifyState_m1547102902_AdjustorThunk
zLj:__ZN6il2cpp2os20ThreadLocalValueImpl8SetValueEPv
jWa:__ZN22RenderingCommandBuffer20CleanupCommandBufferEv
m2f:__Z165RuntimeInvoker_Void_t1841601450_UInt32U26_t2197289955_Int32_t2071877448_UInt32U26_t2197289955_Int32_t2071877448_Int32_t2071877448_Int32_t2071877448_Int32_t2071877448PFvvEPK10MethodInfoPvPS4_
Jkg:__Z99RuntimeInvoker_Void_t1841601450_CustomAttributeTypedArgumentU5BU5DU26_t4216645529_Int32_t2071877448PFvvEPK10MethodInfoPvPS4_
Iqc:__Z18Transfer_BlittableI9JSONWriteLb1EtEvRK29SerializationCommandArgumentsR31RuntimeSerializationCommandInfo
sje:_FileLoadException__ctor_m918124939
rk:___syscall85
d_i:__ZL25UnresolvedVirtualCall_198P12Il2CppObjectfPK10MethodInfo
PNg:_PlayableHandle_GetHashCode_m1983839661_AdjustorThunk
_Xa:__ZNSt3__26__sortIRPFbP10GUIElementS2_EPS2_EEvT0_S7_T_
Waf:_SequentialSearchPrimeGeneratorBase_GenerateSearchBase_m2930465198
_2b:__ZN16GraphicsSettings12CleanupClassEv
UWi:__ZL24UnresolvedVirtualCall_25P12Il2CppObjectS0_aPK10MethodInfo
rzj:__ZN6il2cpp2os6Thread19DetachCurrentThreadEv
b3i:__ZN6il2cpp2vmL21SetupInterfacesLockedEP11Il2CppClassRKNS_2os12FastAutoLockE
cEb:__ZN11MonoManager23VirtualRedirectTransferER24GenerateTypeTreeTransfer
N$f:__Z102RuntimeInvoker_Int32_t2071877448_RuntimeObject_Int32_t2071877448_Int32_t2071877448_Int32U26_t455636984PFvvEPK10MethodInfoPvPS4_
Jy:__ZN23AnimationPlayableOutput17SetSourcePlayableEP8Playable
yvf:_Capture__ctor_m885749277
fGg:_GUIStyle_set_clipOffset_m3871613343
aod:_SubmitEvent__ctor_m222860306
WV:__ZN11UnityEngine15CloudWebService14DataDispatcher15SetupWebRequestEv
Dne:_TextWriter__cctor_m4047845042
gkf:_ReceiveRecordAsyncResult_get_Record_m1336421357
oSc:__ZN11UnityEngine15PlatformWrapper13GetShaderCapsEv
h4a:__ZNSt3__211__sift_downIR26RenderDeferredObjectSorterP16RenderObjectDataEEvT0_S5_T_NS_15iterator_traitsIS5_E15difference_typeES5_
zZh:_AnimationClipPlayable_SetApplyFootIK_m4007156901_AdjustorThunk
$jh:__ZL76Convert_t2607082565_CustomAttributesCacheGenerator_Convert_ToByte_m509311047P21CustomAttributesCache
VYg:_Dictionary_2_System_Collections_Generic_IEnumerableU3CSystem_Collections_Generic_KeyValuePairU3CTKeyU2CTValueU3EU3E_GetEnumerator_m1742521661_gshared
Cdg:__Z87RuntimeInvoker_Void_t1841601450_RuntimeObject_StringU26_t638738783_StringU26_t638738783PFvvEPK10MethodInfoPvPS4_
uod:_InputField_CaretBlink_m3960486606
bk:_emscripten_glGetProgramiv
dye:_SmallXmlParser_ReadCharacters_m1966365555
Rlf:_InternalAsyncResult_get_CompletedWithError_m3993955322
J3b:__ZN21FixedBehaviourManager6UpdateEv
Cac:__ZN9Transform9SetParentEPS_NS_15SetParentOptionE
j3e:_ReadOnlyCollection_1_System_Collections_IList_Add_m527174473_gshared
i0:__ZN19ShaderPropertySheet8SetFloatEN9ShaderLab16FastPropertyNameEfNS_8SetFlagsE
EKh:__ZL68InputField_t1631627530_CustomAttributesCacheGenerator_m_AsteriskCharP21CustomAttributesCache
nta:__ZN19RuntimeSceneManager24BeginIntegrateMainThreadEP10UnityScene
iLi:_Transform_TransformPoint_m3272254198
kAj:__ZNSt3__2plIcNS_11char_traitsIcEENS_9allocatorIcEEEENS_12basic_stringIT_T0_T1_EERKS9_S6_
uoe:_LocalDataStoreSlot__cctor_m1192669356
$Tb:__ZN9ShaderLab20SerializedSubProgramaSERKS0_
tRj:_roundf
s7c:_String_CreateString_m2556700934
Zib:__ZN18StreamedBinaryReadILb0EE21TransferSTLStyleArrayINSt3__26vectorI17SortingLayerEntryNS2_9allocatorIS4_EEEEEEvRT_17TransferMetaFlags
SUh:_Selectable_get_targetGraphic_m137842753
Bs:__ZN8Animator15SetPrepareStageEv
fWh:_Slider_get_axis_m162140813
ryg:_MonoEventInfo_t2190036573_marshal_pinvoke
c3i:__ZN6il2cpp2vmL24SetupTypeHierarchyLockedEP11Il2CppClassRKNS_2os12FastAutoLockE
efb:__ZL11TextHandleriPK23EmscriptenKeyboardEventPv
tsd:_LayoutRebuilder_U3Cs_RebuildersU3Em__0_m3768099182
DUh:_ScrollRect_SetLayoutHorizontal_m3486408020
szc:_destroy_face
HVi:_GenericEqualityComparer_1_GetHashCode_m116190842_gshared
URg:_Enumerator_VerifyState_m1547102902_gshared
lXj:_glBlendEquationSeparate__wrapper
iwc:__ZN5physx19PxAllocatorCallbackD2Ev
tTa:__ZN24dense_hashtable_iteratorINSt3__24pairIKN4core12basic_stringIcNS2_20StringStorageDefaultIcEEEEP20ArchiveStorageReaderEES6_20StringHash32FunctionIS6_EN14dense_hash_mapIS6_S9_SC_NS0_8equal_toIS6_EE13stl_allocatorISA_L18MemLabelIdentifier54ELi16EEE9SelectKeyESF_SI_EC2EPK15dense_hashtableISA_S6_SC_SK_SF_SI_EPSA_SQ_b
AIj:__ZN6il2cpp6icalls8mscorlib6System8Security12Cryptography24RNGCryptoServiceProvider13RngInitializeEP11Il2CppArray
lQe:_List_1_System_Collections_ICollection_get_IsSynchronized_m227393674_gshared
Apf:_IPAddress__cctor_m3624830012
sO:__ZN20SoundChannelInstance7setMuteEb
Kmb:__ZN4PPtrI5LightE8TransferI19StreamedBinaryWriteILb0EEEEvRT_
Gzh:__ZL115AnimatorStateInfo_t2577870592_CustomAttributesCacheGenerator_AnimatorStateInfo_t2577870592____nameHash_PropertyInfoP21CustomAttributesCache
srf:_AsnEncodedData_EnhancedKeyUsageExtension_m1452131166
LOb:__Z19TransferField_ArrayI18StreamedBinaryReadILb1EE27Converter_SimpleNativeClassI17AnimationCurveTplIfEEEvRK23StaticTransferFieldInfoR31RuntimeSerializationCommandInfoRT0_
dwf:_GroupCollection_get_IsSynchronized_m1100663675
zGa:__ZN18GfxFramebufferGLES22MakeCurrentFramebufferENS_7BuiltinE
mIj:__ZN6il2cpp2vm12MarshalAlloc4FreeEPv
Ewf:_Interpreter_Close_m1500459069
vk:_JS_SystemInfo_GetWidth
Xva:__ZN12CachedReader4ReadEPvj
yGc:_cf2_blues_init
Cni:_InternalEnumerator_1_System_Collections_IEnumerator_get_Current_m3600601141_gshared
v$c:_SHA1Internal_HashFinal_m3188468925
dNi:_Vector3_op_Inequality_m799191452
Kyd:_Char_GetHashCode_m2343577184
I0a:__Z24CalculateLightShadowFadeRK6CamerafffR8Vector4f
s2:__ZN19RuntimeSceneManagerD2Ev
cnh:__ZL55HeaderHandler_t324204131_CustomAttributesCacheGeneratorP21CustomAttributesCache
Sfi:_ChannelData_get_CustomProperties_m1470957369
j6d:_Dictionary_2_Do_ICollectionCopyTo_TisRuntimeObject_m545661084_gshared
kX:__ZN11UnityEngine15CloudWebService25WebRequestDownloadHandler17OnCompleteContentEv
dpa:__ZN6prcore17GetIntegerBlitterE13TextureFormatS0_N14ImageReference8BlitModeE
t7h:_Camera_INTERNAL_CALL_ScreenPointToRay_m2752248646
$ij:__ZN6il2cpp2gc19AppendOnlyGCHashMapINSt3__24pairIPK11Il2CppImageP11Il2CppClassEEP22Il2CppReflectionModule17ReflectionMapHashIS9_ENS2_8equal_toIS9_EEE11TryGetValueERKS9_PSB_
hTg:_Enumerator_VerifyState_m3173176371_AdjustorThunk
THh:__ZL109PointerEventData_t1599784723_CustomAttributesCacheGenerator_PointerEventData_get_eligibleForClick_m2497780621P21CustomAttributesCache
Eof:_TypeConverterAttribute__cctor_m506796812
OIf:_Encoding_get_IsReadOnly_m3729101432
mac:__ZN9BlobWrite14ReduceCopyImplERK14ReduceCopyDataj
SUf:_ValueType_t3507792607_marshal_pinvoke_back
nwi:_Comparer_1_System_Collections_IComparer_Compare_m1790257529_gshared
Yig:__Z55RuntimeInvoker_Int32_t2071877448_ILTokenInfo_t149559338PFvvEPK10MethodInfoPvPS4_
vxg:_MethodInfo_get_ContainsGenericParameters_m572340060
bWj:_glShaderSource__wrapper
TQa:__ZN25MultiBlocksMemoryFileData17AdjustBlocksCountEj
Lqj:__ZNSt3__214__split_bufferIN6il2cpp2vm22EmbeddedResourceRecordERNS_9allocatorIS3_EEED2Ev
Rff:_TlsClientHello__ctor_m1699671541
q2b:__ZZN12MeshRenderer15InitializeClassEvEN29FunctorImpl_134kDidModifyMesh4CallEPviR11MessageData
Axc:__ZN13TextRendering4Font8TransferI24GenerateTypeTreeTransferEEvRT_
L_h:_AnimationOffsetPlayable_GetRotation_m3608800497_AdjustorThunk
BTa:__ZN23ManagedAttributeManager15InitializeClassEv
Ncc:__Z27CullingGroup_CUSTOM_DisposeP12Il2CppObject
_pj:__ZN6il2cpp6icalls8mscorlib6SystemL23CheckWideningConversionEjjj
mdg:__Z69RuntimeInvoker_Color_t2020392075_Color_t2020392075_Single_t2076509932PFvvEPK10MethodInfoPvPS4_
CWa:__ZN13ComputeShader15SetTextureParamEjRKN9ShaderLab16FastPropertyNameE9TextureID16TextureDimension
wVh:_Shadow_set_effectDistance_m1951993364
cDg:_GUILayoutEntry_ApplyStyleSettings_m371609721
Q_g:_Dictionary_2_ContainsKey_m416495915_gshared
AZe:_Collection_1_Remove_m1798559666_gshared
Bm:_glStencilMask
A2f:__Z70RuntimeInvoker_Boolean_t3825574718_Int16_t4041245914_Int32_t2071877448PFvvEPK10MethodInfoPvPS4_
Ozj:__ZN6il2cpp2os10ThreadImpl16GetCurrentThreadEv
tDd:_Hashtable__ctor_m2337481811
OSg:_Enumerator_System_Collections_IEnumerator_get_Current_m2010873149_gshared
Qid:_Resources_t2975512894_marshal_pinvoke_cleanup
YYh:_AnimationEvent_get_messageOptions_m3547411650
O7g:__ZL88Type_t_CustomAttributesCacheGenerator_Type_MakeGenericType_m2765875033____typeArguments0P21CustomAttributesCache
EMh:__ZL74SpriteState_t1353336012_CustomAttributesCacheGenerator_m_HighlightedSpriteP21CustomAttributesCache
kBf:_RealProxy__ctor_m2505535530
bGj:_GC_push_conditional_with_exclusions
PSf:_UInt32_System_IConvertible_ToUInt16_m2798641702_AdjustorThunk
gDf:_BinaryFormatter_get_DefaultSurrogateSelector_m219714691
Wu:__ZN21AnimationPosePlayableD0Ev
yB:__ZN12_GLOBAL__N_121ProcessAnimationBeginER35AnimationPlayableEvaluationConstantR32AnimationPlayableEvaluationInputR33AnimationPlayableEvaluationOutput
i2h:_AnimatorControllerPlayable_CrossFadeInFixedTime_m3016214003
H_f:__Z136RuntimeInvoker_Void_t1841601450_Int32_t2071877448_RuntimeObject_RuntimeObject_RuntimeObject_RuntimeObject_RuntimeObject_SByte_t454417549PFvvEPK10MethodInfoPvPS4_
P8:__ZN15dense_hashtableINSt3__24pairIKiiEEi21InstanceIDHashFunctorN14dense_hash_mapIiiS4_NS0_8equal_toIiEE13stl_allocatorIS3_L18MemLabelIdentifier65ELi16EEE9SelectKeyES7_SA_E9copy_fromERKSD_j
e0e:_Collection_1_System_Collections_IList_get_IsFixedSize_m3252091801_gshared
Xhd:_FloatTween_get_ignoreTimeScale_m4161298485_AdjustorThunk
Xzg:_MonoProperty_GetOptionalCustomModifiers_m3827844355
yOj:_strrchr
Rgi:__ZN21InterfaceFuncInvoker1IP8String_tS1_E6InvokeEjP11Il2CppClassP12Il2CppObjectS1_
L0h:_AnimatorControllerPlayable_IsParameterControlledByCurve_m3990583163_AdjustorThunk
mte:_SimpleCollator_GetSortKey_m2188419329
wNh:__ZL56LayoutElement_t2808691390_CustomAttributesCacheGeneratorP21CustomAttributesCache
WRh:_Scrollbar_Set_m244028386
Bjc:__Z27Object_CUSTOM_DestroyObjectP12Il2CppObjectf
Pmb:__ZN14RenderSettings27UpdateIndirectSpecularColorEv
Lng:__Z102RuntimeInvoker_RuntimeObject_UILineInfo_t3621277874_UILineInfo_t3621277874_RuntimeObject_RuntimeObjectPFvvEPK10MethodInfoPvPS4_
Gzb:__ZN14PlayerSettings8TransferI18StreamedBinaryReadILb0EEEEvRT_
cei:_FixedBufferAttribute__ctor_m2048050068
Mbj:__ZN6il2cpp6icalls8mscorlib6System8MonoType16GetMethodsByNameEP20Il2CppReflectionTypeP12Il2CppStringibS5_
Cei:_GCHandle__ctor_m2952050298
m7d:_LayoutGroup_SetProperty_TisAxis_t1431825778_m2174054513_gshared
zrb:__ZN4PPtrI10GameObjectE8TransferI14SafeBinaryReadEEvRT_
EPh:_Mask_IsRaycastLocationValid_m62488857
fza:__ZNSt3__27__sort3IRNS_4lessIN22BuiltinResourceManager8ResourceEEEPS3_EEjT0_S7_S7_T_
Bvi:_DefaultComparer_Compare_m3472472212_gshared
Tlg:__Z31RuntimeInvoker_Slot_t2022531261PFvvEPK10MethodInfoPvPS4_
Sje:_MonoIO_GetLength_m2812344043
gFc:_ps_hints_t2mask
qGh:__ZL68UsedByNativeCodeAttribute_t3212052468_CustomAttributesCacheGeneratorP21CustomAttributesCache
wLi:_RequestAtlasCallback_Invoke_m2414509569
pwb:__ZN10BlendShape8TransferI19StreamedBinaryWriteILb0EEEEvRT_
oLi:_Transform_IsChildOf_m10844547
CI:__Z32TransferEnumWithNameForceIntSizeI14SafeBinaryReadN10SampleClip8LoadTypeEEvRT_RT0_PKc17TransferMetaFlags
jhe:__Z21il2cpp_codegen_sizeofP11Il2CppClass
Pga:__Z19GetTimeSinceStartupv
$3c:_SecurityFrame_get_Assembly_m2816566490
Ezj:__ZN6il2cpp2os10ThreadImpl11SetPriorityENS0_14ThreadPriorityE
xKc:_TT_Load_Composite_Glyph
QNi:_NetFxCoreExtensions_CreateDelegate_m2492743074
f7g:__ZL66RuntimeArray_CustomAttributesCacheGenerator_Array_Sort_m2323017822P21CustomAttributesCache
dud:_Array_Sort_m2994254654
WRe:_List_1__ctor_m593058937_gshared
LYd:_Array_InternalArray__IEnumerable_GetEnumerator_TisColor32_t874517518_m2198639025_gshared
a$a:__ZN29RenderNodeQueuePrepareContextC2Ev
FR:__ZN10SampleClipC2E18MemLabelIdentifier18ObjectCreationMode
$Ub:__ZN9ShaderLab20SerializedSubProgram16TextureParameter8TransferI24GenerateTypeTreeTransferEEvRT_
DNf:_Thread_set_Name_m1343706609
cKj:__ZN6il2cpp2os11MutexHandle4WaitEj
n9b:__ZL34GetComponentsImplementationRecurseILb1ELi1ELi1EEbR10GameObjectbRK17CompareParametersRK39GetComponentsImplementation_ReturnValue
Bag:__Z75RuntimeInvoker_Playable_t1896841784_AnimationLayerMixerPlayable_t3057952312PFvvEPK10MethodInfoPvPS4_
bKj:__ZN6il2cpp2os11MutexHandle4WaitEv
yzd:_ArrayList_set_Capacity_m592558035
Yqa:__ZN6prcoreL17RemapGenericFloatI15TexFormatRGHalf18TexFormatARGBFloatEEvPKNS_9InnerInfoE
Dpe:_MonoEnumInfo_t2335995564_marshal_pinvoke_cleanup
Nia:__ZNK13RenderTexture13GetDataHeightEv
Hga:__Z18SimulateMouseInputi
zVa:__ZN13RenderManager23AddRemoveCamerasDelayedEv
Mrc:__ZN9JSONWrite8TransferI13dynamic_arrayIdLj8EEEEvRT_PKc17TransferMetaFlags
bsa:__ZN23PreloadManagerOperation11GetPriorityEv
GSd:_Exception_get_InnerException_m3722561235
wWd:_Array_InternalArray__ICollection_Remove_TisILTokenInfo_t149559338_m1523907845_gshared
vmi:_InternalEnumerator_1_System_Collections_IEnumerator_Reset_m138745466_AdjustorThunk
ccg:__Z105RuntimeInvoker_Void_t1841601450_Vector2U26_t3911752445_RuntimeObject_RuntimeObject_Vector2U26_t3911752445PFvvEPK10MethodInfoPvPS4_
LOe:_List_1_GetEnumerator_m4053501645_gshared
saj:__ZN6il2cpp2gc9AllocatorIP17Il2CppAsyncResultE10deallocateEPvj
MDd:_Hashtable_Rehash_m2877670513
F7a:__ZN13RenderTexture8SetWidthEi
sqd:_InputField_Insert_m1593238693
u$b:__ZNK28RectTransformPropertyBinding12SetPPtrValueERKN11UnityEngine9Animation10BoundCurveEi
EPb:__Z18Transfer_BlittableI18StreamedBinaryReadILb0EELb0EfEvRK29SerializationCommandArgumentsR31RuntimeSerializationCommandInfo
Dwb:__ZN10MeshFilterD0Ev
zKc:_UNITY_FT_GlyphLoader_CheckSubGlyphs
uaj:__ZN6il2cpp2vm21ThreadPoolCompartment20SpawnNewWorkerThreadEv
Y$d:_Array_InternalArray__ICollection_Add_TisCustomAttributeTypedArgument_t1498197914_m3260005285_gshared
k1a:__Z25SetupObjectBakedOcclusionbRK15SharedLightDataRK26SharedLightmapSettingsDataRK15LightmapIndicesR17ShaderPassContext
BEd:_SyncHashtable_GetObjectData_m3774367030
Mxi:__ZN21InterfaceFuncInvoker4IP17Match_t3164245899P17Regex_t1803876613P8String_tiiE6InvokeEjP11Il2CppClassP12Il2CppObjectS3_S5_ii
zde:_Guid_GetHashCode_m1401300871
tSi:_ListPool_1_U3Cs_ListPoolU3Em__0_m1243609651_gshared
toc:__Z42Register_UnityEngine_GUIStyle_set_fontSizev
NH:__Z82Register_UnityEngine_Animations_AnimatorControllerPlayable_INTERNAL_CALL_GetBoolIDv
AWi:__ZL23UnresolvedVirtualCall_5P12Il2CppObjectsPK10MethodInfo
cD:__ZN4PPtrI6AvatarE8TransferI19StreamedBinaryWriteILb0EEEEvRT_
Qz:__ZN8Animator9BuildJobsERK13dynamic_arrayIP14PlayableOutputLj4EERS0_INS_11AnimatorJobELj4EEPS7_bb
y$:__ZN9ShaderLab16FastPropertyName4InitEPKc
y_b:__Z13RegisterClassIN2UI13RectTransformEEvv
Kse:_MSCompatUnicodeTable_ToWidthCompat_m2299599532
d2i:__ZN13Il2CppHashMapIPK22Il2CppGenericParameterP11Il2CppClassN6il2cpp5utils11PointerHashIS1_EENSt3__28equal_toIS2_EENS9_9allocatorINS9_4pairIK10KeyWrapperIS2_ES4_EEEEEC2EjRKS8_RKSB_
vre:_NumberFormatter_get_IsFloatingSource_m2830957202
vtb:__ZN10VertexData8TransferI17RemapPPtrTransferEEvRT_
qia:__ZN13RenderTexture9SetMipMapEb
Y4i:__ZN15dense_hashtableINSt3__24pairIK10KeyWrapperIPK11Il2CppClassEPKcEES6_N6il2cpp5utils11PointerHashIS3_EEN14dense_hash_mapIS6_S9_SE_NS6_14EqualsComparerINS0_8equal_toIS5_EEEENS0_9allocatorISA_EEE9SelectKeyESJ_SL_E13set_empty_keyERKSA_
DTh:_ScrollRect_set_verticalScrollbarSpacing_m2356851539
wga:__Z18GetDirectorManagerv
FNg:_PlayableHandle_INTERNAL_CALL_SetTimeInternal_m3873000891
cse:_OperatingSystem_GetObjectData_m2276196875
hHi:_ResourceRequest_t2560315377_marshal_pinvoke_back
rHh:__ZL92PointerEventData_t1599784723_CustomAttributesCacheGenerator_U3CpointerDragU3Ek__BackingFieldP21CustomAttributesCache
Iic:__Z38Transform_CUSTOM_INTERNAL_get_rotationP12Il2CppObjectP11Quaternionf
Wfj:__ZNSt3__26vectorIN6il2cpp2vm17TypeNameParseInfoENS_9allocatorIS3_EEE8allocateEj
_ch:__ZL66CriticalFinalizerObject_t1920899984_CustomAttributesCacheGeneratorP21CustomAttributesCache
XZi:__ZL25UnresolvedVirtualCall_190P12Il2CppObject20TimeSpan_t3430258949S1_PK10MethodInfo
Qij:__ZNK15dense_hashtableINSt3__24pairIK10KeyWrapperINS1_IPK10MethodInfoP11Il2CppClassEEEjEES9_17ReflectionMapHashIS8_EN14dense_hash_mapIS9_jSD_NS9_14EqualsComparerINS0_8equal_toIS8_EEEENS0_9allocatorISB_EEE9SelectKeyESI_SK_E5beginEv
MIa:__ZN7ApiGLES19UploadBufferSubDataEjN2gl12BufferTargetEllPKv
Lca:__ZNSt3__216__rotate_forwardINS_11__wrap_iterIPN4core12basic_stringIcNS2_20StringStorageDefaultIcEEEEEEEET_S9_S9_S9_
y5c:_String_System_IConvertible_ToInt32_m1927223638
SWd:_Array_InternalArray__ICollection_Remove_TisContentType_t1028629049_m3085152315_gshared
FUg:_Transform_1_EndInvoke_m4121732147_gshared
U7h:_Canvas_set_sortingOrder_m2922819993
Zci:_FailedToLoadScriptObject_t3605283378_marshal_pinvoke_back
k9h:_Color_get_red_m2410286591
G5h:_AudioMixerPlayable_Create_m3525453973
H7c:_ASCIIEncoding__ctor_m4127831672
ZFb:__Z19TransferField_ArrayI14SafeBinaryRead27Converter_SimpleNativeClassI8GUIStyleEEvRK23StaticTransferFieldInfoR31RuntimeSerializationCommandInfoRT0_
b2f:__Z63RuntimeInvoker_Void_t1841601450_RuntimeObject_Int16_t4041245914PFvvEPK10MethodInfoPvPS4_
FJf:_UTF8Encoding__ctor_m3336862259
atj:__ZN15dense_hashtableINSt3__24pairIK10KeyWrapperIP14Il2CppIUnknownEjEES5_N6il2cpp5utils11PointerHashIS3_EEN14dense_hash_mapIS5_jSB_NS5_14EqualsComparerINS0_8equal_toIS4_EEEENS0_9allocatorIS7_EEE9SelectKeyESG_SI_ED2Ev
HIj:__ZN6il2cpp5utils10MemoryPoolC2Ej
Ntf:_X509Chain_GetAuthorityKeyIdentifier_m2607407678
DIj:__ZN6il2cpp5utils10MemoryPoolC2Ev
smb:__ZN14RenderSettings5ResetEv
oZb:__ZN6Sprite9BindAtlasERK4PPtrI11SpriteAtlasE
frj:__ZNSt3__212basic_stringIDsNS_11char_traitsIDsEENS_9allocatorIDsEEE6appendEPKDsj
UD:__ZZN8Animator15InitializeClassEvEN37FunctorImpl_421kDidModifyOverrideClip4CallEPviR11MessageData
odd:_RaycastResult_set_gameObject_m1138581891_AdjustorThunk
U6h:_Bounds_get_extents_m4077324178_AdjustorThunk
Isi:_InternalEnumerator_1_get_Current_m3724267862_AdjustorThunk
C6d:_Dictionary_2_Do_ICollectionCopyTo_TisKeyValuePair_2_t3716250094_m1740410536_gshared
h0g:_DefaultComparer__ctor_m580747638_gshared
ZBg:_GUI_CallWindowDelegate_m2039577415
Cyh:__ZL137AnimatorControllerPlayable_t1744083903_CustomAttributesCacheGenerator_AnimatorControllerPlayable_CrossFade_m3391147919____normalizedTime3P21CustomAttributesCache
jze:_RSAManaged_Dispose_m3018788098
tpc:__ZN8Gradient8TransferI9JSONWriteEEvRT_
RMf:_Monitor_Monitor_pulse_m2135582245
FHd:_DateTime_ToUniversalTime_m1815024752
MEi:_X509CertificateEnumerator_MoveNext_m1422952050
aof:_NameObjectCollectionBase_get_Count_m2353593692
Efb:__ZNK12TLSAllocatorI14StackAllocatorE22GetAllocatedMemorySizeEv
Rbh:__ZL54AssemblyName_t894705941_CustomAttributesCacheGeneratorP21CustomAttributesCache
BKd:_Convert_ToUInt32_m3394039268
I9a:__ZN17RemapPPtrTransfer12PushMetaFlagE17TransferMetaFlags
qP:__ZNK7WeakPtrI20SoundChannelInstanceE10SharedData9GetRawPtrEv
IRa:__ZN12HandlerChain4NameEv
gyb:__ZNSt3__26vectorI9InputAxisNS_9allocatorIS1_EEE10deallocateEv
xee:_Int16_Equals_m3925135434_AdjustorThunk
lQc:__Z44Register_UnityEngine_CanvasRenderer_get_cullv
iWg:_Enumerator_Dispose_m2532362830_AdjustorThunk
A9g:__ZL60IHashCodeProvider_t1980576455_CustomAttributesCacheGeneratorP21CustomAttributesCache
V_b:__ZN13ProduceHelperI13MonoBehaviourLb0EE7ProduceE18MemLabelIdentifier18ObjectCreationMode
eFe:_Enumerator_VerifyState_m1677639504_AdjustorThunk
tdb:__Z29StdTemplateConversionFunctionIbbEbPvR14SafeBinaryRead
bCj:__ZNK15dense_hashtableINSt3__24pairIK10KeyWrapperIPK19Il2CppGenericMethodEP10MethodInfoEES6_N6il2cpp8metadata23Il2CppGenericMethodHashEN14dense_hash_mapIS6_S9_SD_NS6_14EqualsComparerINSC_26Il2CppGenericMethodCompareEEENS0_9allocatorISA_EEE9SelectKeyESH_SJ_E12test_deletedEj
$ef:_CipherSuiteCollection_get_Item_m280627160
vEb:__Z44InitializeTransferFunctionScriptingTraitsForI17RemapPPtrTransferEvR31TransferFunctionScriptingTraits
byf:_SerializationInfoEnumerator_MoveNext_m1876990879
iPf:_TimeSpan_Duration_m4205681645
abb:__ZN14UnityWebStream24UpdateAllUnityWebStreamsEv
tWe:_Collection_1_System_Collections_IList_get_IsReadOnly_m2329986891_gshared
a8g:__ZL60ObsoleteAttribute_t3878847927_CustomAttributesCacheGeneratorP21CustomAttributesCache
y9f:__Z79RuntimeInvoker_Playable_t1896841784_PlayableGraph_t1041204988_Int32_t2071877448PFvvEPK10MethodInfoPvPS4_
hW:__ZN11UnityEngine15CloudWebService14DataErrorEventD2Ev
w1d:_Array_InternalArray__ICollection_CopyTo_TisRaycastHit2D_t4063908774_m3837098618_gshared
lta:__ZN18LoadSceneOperation21MustCompleteNextFrameEv
tO:__ZNK12AudioManager16GetAudioListenerEv
yyg:_MonoField_get_FieldType_m598011426
sWe:_Collection_1_System_Collections_IList_get_IsFixedSize_m1624702704_gshared
pqh:__ZL48Camera_t189460977_CustomAttributesCacheGeneratorP21CustomAttributesCache
d7a:__ZNSt3__26vectorI11CameraStackNS_9allocatorIS1_EEE8__appendEj
Fqj:__ZNSt3__212basic_stringIcNS_11char_traitsIcEENS_9allocatorIcEEE6__initINS_11__wrap_iterIPcEEEENS_9enable_ifIXsr21__is_forward_iteratorIT_EE5valueEvE4typeESB_SB_
Bpd:_InputField_OnDisable_m1865339380
MSf:_UInt32_System_IConvertible_ToType_m747769316
St:__ZN7mecanim9animation12GetHumanPoseERKNS0_18ClipMuscleConstantEPKNS0_10ValueDeltaERNS_5human9HumanPoseE
xv:__ZN22AnimationMixerPlayable17ProcessRootMotionEP35AnimationPlayableEvaluationConstantP32AnimationPlayableEvaluationInputP33AnimationPlayableEvaluationOutput
GMb:__Z29Transfer_Blittable_ArrayFieldI19StreamedBinaryWriteILb0EEjEvRT_R9ArrayInfoRK23StaticTransferFieldInfo
H5:__Z13GetFileSystemv
Y6:__ZNK5Unity4Type21FindAllDerivedClassesER13dynamic_arrayIPKS0_Lj4EENS0_17TypeFilterOptionsE
f8:__ZN13RuntimeStaticI15GUIEventManagerLb0EE16StaticInitializeEPv
zYg:_Dictionary_2_ToTKey_m2900575080_gshared
GQb:__ZL12InvokeMethodI18StreamedBinaryReadILb0EEEvRK29SerializationCommandArgumentsR31RuntimeSerializationCommandInfo
tbe:_DaylightTime_get_Delta_m2316831491
RVd:_Array_InternalArray__ICollection_Contains_TisUILineInfo_t3621277874_m1175659630_gshared
yOf:_WaitHandle_WaitOne_m370363697
QHh:__ZL114PointerEventData_t1599784723_CustomAttributesCacheGenerator_PointerEventData_set_pointerCurrentRaycast_m2431897513P21CustomAttributesCache
Tvf:_FactoryCache_Lookup_m1681894361
JMd:_DateTime_Subtract_m698282245_AdjustorThunk
Xvi:_DefaultComparer__ctor_m2470932885_gshared
oah:__ZL55BinaryReader_t2491843768_CustomAttributesCacheGeneratorP21CustomAttributesCache
c1e:_Collection_1_InsertItem_m724820684_gshared
Jlh:__ZL79Convert_t2607082565_CustomAttributesCacheGenerator_Convert_ToUInt64_m1896191125P21CustomAttributesCache
QWa:__ZN19ShaderPropertySheet9SetMatrixEN9ShaderLab16FastPropertyNameERK10Matrix4x4fNS_8SetFlagsE
VZc:_RIPEMD160Managed_Initialize_m3365407578
q6b:__Z29GetTextureSizeAllowedMultiple13TextureFormat
zpf:_IPAddress_HostToNetworkOrder_m1092199707
UXd:_SetPropertyUtility_SetStruct_TisSpriteState_t1353336012_m2898060836_gshared
vzh:__ZL141AnimatorControllerPlayable_t1744083903_CustomAttributesCacheGenerator_AnimatorControllerPlayable_INTERNAL_CALL_ResetTriggerString_m2112584758P21CustomAttributesCache
MTa:__ZZ23InitPlayerLoopCallbacksvEN52InitializationAsyncUploadTimeSlicedUpdateRegistrator7ForwardEv
d2c:_SecurityAttribute__ctor_m3425755778
g4b:__ZN21IntermediateRenderers3AddEP20IntermediateRenderer
mdj:_il2cpp_array_element_size
aci:_InvokableCall__ctor_m738302370
bg:_glCheckFramebufferStatus
Tzh:__ZL55TextGenerator_t647235000_CustomAttributesCacheGeneratorP21CustomAttributesCache
iZd:_Array_compare_TisInt32_t2071877448_m840310202_gshared
_ui:_InternalEnumerator_1_System_Collections_IEnumerator_get_Current_m442726479_AdjustorThunk
uY:__ZN19CloudServiceHandler20StartEventDispatcherERKN11UnityEngine15CloudWebService18CloudServiceConfigERNS1_23WebRequestRestHeaderMapE
gti:_InternalEnumerator_1_System_Collections_IEnumerator_get_Current_m790514740_AdjustorThunk
M6g:__ZL74RuntimeArray_CustomAttributesCacheGenerator_Array_BinarySearch_m2287427837P21CustomAttributesCache
qhg:__Z78RuntimeInvoker_Boolean_t3825574718_TransitionU26_t3012618447_Int32_t2071877448PFvvEPK10MethodInfoPvPS4_
yse:__Z37il2cpp_codegen_get_executing_assemblyPK10MethodInfo
xYb:__ZN9Transform23VirtualRedirectTransferER17RemapPPtrTransfer
S8f:__Z72RuntimeInvoker_Boolean_t3825574718_Bounds_t3033363703_Bounds_t3033363703PFvvEPK10MethodInfoPvPS4_
AHg:_GUIStyle_Internal_DrawPrefixLabel_m1693575069
o_d:_Array_InternalArray__IndexOf_TisByte_t3683104436_m3605266236_gshared
xHg:_GUIStyle_set_richText_m1853532836
N0e:_Collection_1_System_Collections_IList_Insert_m435904526_gshared
Gxh:__ZL135AnimationMixerPlayable_t1343787797_CustomAttributesCacheGenerator_AnimationMixerPlayable_INTERNAL_CALL_CreateHandleInternal_m4073934737P21CustomAttributesCache
HRh:_RaycastAllCallback_Invoke_m981876639
rJf:_UnicodeEncoding__ctor_m72484327
dtj:__ZN14dense_hash_mapI10KeyWrapperIP14Il2CppIUnknownEjN6il2cpp5utils11PointerHashIS1_EENS3_14EqualsComparerINSt3__28equal_toIS2_EEEENS9_9allocatorINS9_4pairIKS3_jEEEEE15set_deleted_keyERSF_
P7:__ZN22BuiltinResourceManager16StaticInitializeEPv
wae:_NumberFormatter_ScaleOrder_m1915154678
mpj:__ZN6il2cpp2gc9AllocatorIP12Il2CppThreadE10deallocateEPvj
rlj:__ZN13Il2CppHashMapIPK14Il2CppAssemblyPK22Il2CppMonoAssemblyNameN6il2cpp5utils11PointerHashIS1_EENSt3__28equal_toIS2_EENSA_9allocatorINSA_4pairIK10KeyWrapperIS2_ES5_EEEEEC2EjRKS9_RKSC_
TQi:_UnityEvent_1_GetDelegate_m2720691419_gshared
eri:_InternalEnumerator_1_System_Collections_IEnumerator_get_Current_m3576641073_AdjustorThunk
Wgf:_ClientSessionInfo_SetContext_m2649357891
ofe:_Int32_System_IConvertible_ToInt64_m3790029067_AdjustorThunk
oad:_RaycasterManager_GetRaycasters_m1154876874
hmf:_SslStreamBase_InternalReadCallback_m2524917586
C6:__ZN8Remapper6RemoveEi
dKe:_List_1_CheckCollection_m2608305187_gshared
ZQa:__ZN10MemoryFile4ReadEyPvPy
YQf:_Type_get_ContainsGenericParameters_m505913180
_zc:__ZL36CleanupTextRenderingScriptingClassesv
EYf:__Z52RuntimeInvoker_UInt32_t2149682021_Decimal_t724701077PFvvEPK10MethodInfoPvPS4_
iuh:__ZL82Material_t193706927_CustomAttributesCacheGenerator_Material_SetIntImpl_m4157631275P21CustomAttributesCache
I4e:_ReadOnlyCollection_1__ctor_m3532148437_gshared
Ltd:_Array_BinarySearch_m3270245097
rfc:__Z34Mesh_CUSTOM_SetArrayForChannelImplP12Il2CppObject30InternalScriptingShaderChannel34InternalScriptingVertexChannelTypeiP11Il2CppArrayi
eje:_MonoIO_DeleteFile_m3273821223
lsi:_InternalEnumerator_1_Dispose_m3642485841_AdjustorThunk
uue:_BigInteger_GenerateRandom_m2507308768
zLd:_DateTime_System_IConvertible_ToDouble_m1431748426_AdjustorThunk
DVd:_Array_InternalArray__ICollection_Contains_TisUInt16_t986882611_m510319131_gshared
z2d:_Array_InternalArray__Insert_TisRaycastHit2D_t4063908774_m3174907903_gshared
ZOd:_Decimal_ToString_m541380585
Gwf:_RepeatContext_get_Previous_m808449037
Yeg:__Z46RuntimeInvoker_CharacterValidation_t3437478890PFvvEPK10MethodInfoPvPS4_
Uwg:_MemberFilter__ctor_m1775909550
P_h:_AnimationOffsetPlayable_SetRotation_m1448934280_AdjustorThunk
Edj:_il2cpp_class_is_valuetype
ED:__ZN11UnityEngine9Animation28GenericAnimationBindingCache25RegisterIAnimationBindingEPKN5Unity4TypeEiP17IAnimationBinding
pQc:__Z70RectTransformUtility_CUSTOM_INTERNAL_CALL_RectangleContainsScreenPointP12Il2CppObjectRK13Vector2fIcallS0_
bSd:_Enum_ToObject_m2601523252
Ilf:_InternalAsyncResult_get_FromWrite_m2893408424
V2i:__ZN6il2cpp2vm5Class15GetElementClassEP11Il2CppClass
asd:_U3CDelayedSetDirtyU3Ec__Iterator0_System_Collections_IEnumerator_get_Current_m851854792
VZa:__Z20RenderSceneDepthPassRK19SharedRendererSceneRK17ShaderReplaceDatabR17ShaderPassContext
Iyh:__ZL124AnimatorControllerPlayable_t1744083903_CustomAttributesCacheGenerator_AnimatorControllerPlayable_PlayInFixedTime_m3726932292P21CustomAttributesCache
Agg:__Z37RuntimeInvoker_Enumerator_t1593300101PFvvEPK10MethodInfoPvPS4_
D5a:__Z40ProcessCameraIndexListIsNodeVisibleInOutRK22SceneCullingParametersPK9SceneNodePK4AABBR9IndexList
olb:__ZN16GraphicsSettings8TransferI17RemapPPtrTransferEEvRT_
Paf:_BigInteger_op_LessThanOrEqual_m3528380540
mme:_StreamReader__ctor_m2654332332
PNc:__ZN2UI6Canvas13UpdateBatchesEb
Gy:__ZNK23AnimationPlayableOutput11DerivesFromE17ScriptingClassPtr
vob:__ZN7Texture19SupportsAsyncUploadI19StreamedBinaryWriteILb0EEEEbRT_
jIe:_List_1_CheckCollection_m3968030679_gshared
_0i:_Predicate_1_BeginInvoke_m3556950370_gshared
mKf:_StringBuilder_ToString_m617673931
FAa:__ZNK13GfxDeviceGLES12GetWireframeEv
C5e:_ReadOnlyCollection_1_System_Collections_ICollection_get_IsSynchronized_m3127987432_gshared
NSc:__ZN11UnityEngine7Connect13ConfigHandler12GetListenersERKN4core12basic_stringIcNS2_20StringStorageDefaultIcEEEE
YBa:__ZN9GfxDevice18AllocRenderSurfaceEb
iZb:__ZN10TagManager32GetSortingLayerUniqueIDFromValueEi
IAi:_AnchorInfo_get_IsComplete_m1247624133
wjd:_Dropdown_Show_m324374589
Y1:__ZL27CleanupCoreScriptingClassesv
grh:__ZL85Component_t3819376471_CustomAttributesCacheGenerator_Component_SendMessage_m913946877P21CustomAttributesCache
Y_f:__Z68RuntimeInvoker_RuntimeObject_RuntimeObject_DSAParameters_t1872138834PFvvEPK10MethodInfoPvPS4_
I5h:_AudioMixerPlayable_INTERNAL_CALL_CreateAudioMixerPlayableInternal_m3355685531
l2e:_ReadOnlyCollection_1_System_Collections_ICollection_get_SyncRoot_m769863805_gshared
Zfg:__Z101RuntimeInvoker_Void_t1841601450_RuntimeObject_Int32_t2071877448_Single_t2076509932_Single_t2076509932PFvvEPK10MethodInfoPvPS4_
M2h:_AnimatorControllerPlayable_PlayInFixedTime_m1932606764_AdjustorThunk
Hcd:_RaycastResult_get_isValid_m2482925612
gfc:__Z26AnimationCurve_CUSTOM_InitP12Il2CppObjectP11Il2CppArray
FZj:_glUniform1uiv__wrapper
clj:__ZN6il2cpp2vm10Reflection7IsEventEP12Il2CppObject
oLj:__ZNSt3__26__treeINS_12__value_typeIPFvvEPK10MethodInfoEENS_19__map_value_compareIS3_S7_NS_4lessIS3_EELb1EEENS_9allocatorIS7_EEE16__insert_node_atEPNS_16__tree_node_baseIPvEERSI_SI_
c3:__ZN17PersistentManager26GetStreamNameSpaceInternalEi
KI:__ZN4FMOD6System11createSoundEPKcjP22FMOD_CREATESOUNDEXINFOPPNS_5SoundE
vmg:__Z72RuntimeInvoker_Int32_t2071877448_Vector2_t2243707579_Vector2_t2243707579PFvvEPK10MethodInfoPvPS4_
M8h:_CanvasRenderer_get_cull_m3577089379
zZe:__ZN23InterfaceActionInvoker2Ii22UICharInfo_t3056636800E6InvokeEjP11Il2CppClassP12Il2CppObjectiS0_
eo:FUNCTION_TABLE_iiifiiii
PLg:_Object_Destroy_m4145850038
lxh:__ZL86AudioSource_t1135106623_CustomAttributesCacheGenerator_AudioSource_set_clip_m738814682P21CustomAttributesCache
vgj:__ZN6il2cpp2vm4Type14IsSystemDBNullEPK10Il2CppType
F0:__ZN9ShaderLab19CommonPropertyNames13StaticCleanupEPv
K_h:_AnimationOffsetPlayable_INTERNAL_CALL_GetRotationInternal_m3411582030
j4:__Z31scripting_method_get_returntype18ScriptingMethodPtr
LTh:_ScrollRect_UpdateBounds_m3266596336
vqb:__ZN15SerializeTraitsI12LightmapDataE8TransferI24GenerateTypeTreeTransferEEvRS0_RT_
$gd:_ColorBlock_GetHashCode_m649325222
dWj:_glStencilOpSeparate__wrapper
A6b:__ZN4Mesh5SetUvEiPKfjj
Pta:__ZN7Texture13SetAnisoLimitENS_20AnisotropicFilteringE
hua:__ZN28LightProbeProxyVolumeManager25UpdateSHCoeffsTextureDataER21LightProbeProxyVolume
KPa:__Z18CreateDecompressor15CompressionType18MemLabelIdentifier
BS:__ZN11AudioModule16SetListenerPauseEb
Uh:_emscripten_glCompressedTexSubImage2D
eKa:__ZN13GfxDeviceGLES22MemoryBarrierImmediateEyN2gl17MemoryBarrierTypeE
wca:__ZZN18SpriteAtlasManagerC1EvEN46EarlyUpdateSpriteAtlasManagerUpdateRegistrator7ForwardEv
Rrj:__ZN6il2cpp6icalls8mscorlib6System4Type18internal_from_nameEP12Il2CppStringbb
kra:__ZN6prcoreL26RemapGenericFloatToIntegerI18TexFormatARGBFloat17TexFormatARGB8888EEvPKNS_9InnerInfoE
l6b:__Z46GetShaderModelNumericValueFromRequirementsMask18ShaderRequirements
HZb:__ZN6Object27GetOffsetOfInstanceIdMemberEv
GIc:_cff_ps_has_glyph_names
ePi:_InvokableCall_1__ctor_m2837611051_gshared
Ncg:__Z89RuntimeInvoker_Void_t1841601450_RuntimeObject_SingleU26_t4173844468_SingleU26_t4173844468PFvvEPK10MethodInfoPvPS4_
$1g:_EqualityComparer_1__ctor_m1389939323_gshared
fVg:_Transform_1_EndInvoke_m1025924012_gshared
y6e:_ReadOnlyCollection_1_System_Collections_Generic_ICollectionU3CTU3E_get_IsReadOnly_m2873538493_gshared
uyi:_PatternCompiler_EmitPosition_m3013268572
pvf:_X509SubjectKeyIdentifierExtension__ctor_m1109455121
mXi:__ZL24UnresolvedVirtualCall_45P12Il2CppObject19DateTime_t693205669PK10MethodInfo
Ild:_Graphic_CreateColorFromAlpha_m2614574534
_Kf:_UnicodeEncoding_GetHashCode_m2443440683
Foc:__Z44Register_UnityEngine_GUIStyle_SetDefaultFontv
Wtg:_GenericTypeParameterBuilder_GetPropertyImpl_m3566422383
aNb:__Z18Transfer_BlittableI18StreamedBinaryReadILb1EELb1EiEvRK29SerializationCommandArgumentsR31RuntimeSerializationCommandInfo
xA:__ZN9BlobWrite8TransferI22OffsetPtrArrayTransferIKN4math7_float3EEEEvRT_PKc17TransferMetaFlags
_0c:_TripleDES_IsWeakKey_m483013953
oWg:_Enumerator__ctor_m3819430617_AdjustorThunk
Tjj:__ZN15dense_hashtableINSt3__24pairIK10KeyWrapperINS1_IPK12PropertyInfoP11Il2CppClassEEEjEES9_17ReflectionMapHashIS8_EN14dense_hash_mapIS9_jSD_NS9_14EqualsComparerINS0_8equal_toIS8_EEEENS0_9allocatorISB_EEE9SelectKeyESI_SK_E12maybe_shrinkEv
o5f:__Z75RuntimeInvoker_RuntimeObject_RuntimeObject_Single_t2076509932_RuntimeObjectPFvvEPK10MethodInfoPvPS4_
vNb:__Z18Transfer_BlittableI18StreamedBinaryReadILb1EELb1EsEvRK29SerializationCommandArgumentsR31RuntimeSerializationCommandInfo
gx:__ZN26AnimatorControllerPlayable17IsMultithreadableEv
xfg:__Z54RuntimeInvoker_Void_t1841601450_ColorBlock_t2652774230PFvvEPK10MethodInfoPvPS4_
IXi:__ZL24UnresolvedVirtualCall_67P12Il2CppObject18OpCode_t2247480392PK10MethodInfo
D4c:_Single_System_IConvertible_ToSByte_m3757385387
eke:_StreamAsyncResult_SetComplete_m2141125667
Vta:__ZL21SetAnisoLimitEnumImplN7Texture20AnisotropicFilteringEb
sRc:__ZN22BaseUnityConnectClient17OnEnterStateReadyEv
p0:__Z21GetManagerFromContexti
lLe:_List_1_get_Count_m634584594_gshared
Nwa:__ZN14GrowableBufferD2Ev
TIg:_Keyframe_get_tangentMode_m1869200796_AdjustorThunk
zec:__Z29Input_CUSTOM_GetMouseButtonUpi
kcj:__ZN6il2cpp6icalls8mscorlib6System8MonoType16InternalGetEventEP20Il2CppReflectionTypeP12Il2CppStringi
QSf:_UInt32_System_IConvertible_ToUInt32_m1257480358_AdjustorThunk
Llg:__Z55RuntimeInvoker_CustomAttributeTypedArgument_t1498197914PFvvEPK10MethodInfoPvPS4_
OMf:_Interlocked_CompareExchange_m3339239614
pCc:_UNITY_tt_face_load_maxp
Lec:__Z46Input_CUSTOM_INTERNAL_set_compositionCursorPosRK13Vector2fIcall
Ys:__ZN7mecanim5human12FullBodyMaskEv
Bjh:__ZL98Activator_t1850728717_CustomAttributesCacheGenerator_Activator_CreateInstance_m1465989661____args1P21CustomAttributesCache
DZi:__ZL25UnresolvedVirtualCall_170P12Il2CppObject19Vector3_t2243707580PK10MethodInfo
d0:__ZN19ShaderPropertySheet11ComputeHashEv
F6i:__ZN30dense_hashtable_const_iteratorI10KeyWrapperIPK19Il2CppGenericMethodES4_N6il2cpp8metadata23Il2CppGenericMethodHashEN14dense_hash_setIS4_S7_NS4_14EqualsComparerINS6_26Il2CppGenericMethodCompareEEENSt3__29allocatorIS4_EEE8IdentityESB_SE_EppEv
pOb:__ZN4PPtrI6ObjectE8TransferI18StreamedBinaryReadILb1EEEEvRT_
VW:__ZN11UnityEngine15CloudWebService20WebRequestRestClient6IsDoneEv
vhd:_ColorTween_get_tweenMode_m2919867230_AdjustorThunk
Pi:_llvm_fabs_f32
dgd:_CanvasScaler_HandleScaleWithScreenSize_m80056230
yW:__ZN11UnityEngine15CloudWebService16SessionContainer16GetJsonDataBlockEjRKN4core12basic_stringIcNS2_20StringStorageDefaultIcEEEERS6_PjSA_
pGf:_SByte_System_IConvertible_ToUInt64_m2174352876_AdjustorThunk
azh:__ZL132AnimatorControllerPlayable_t1744083903_CustomAttributesCacheGenerator_AnimatorControllerPlayable_Play_m2828212586____normalizedTime2P21CustomAttributesCache
hug:_GenericTypeParameterBuilder_get_AssemblyQualifiedName_m902593295
Plj:__ZN15dense_hashtableINSt3__24pairIK10KeyWrapperIPK14Il2CppAssemblyEPK22Il2CppMonoAssemblyNameEES6_N6il2cpp5utils11PointerHashIS4_EEN14dense_hash_mapIS6_SA_SF_NS6_14EqualsComparerINS0_8equal_toIS5_EEEENS0_9allocatorISB_EEE9SelectKeyESK_SM_E13set_empty_keyERKSB_
xLf:_UTF7Encoding_InternalGetBytes_m2772055844
J3g:_EqualityComparer_1__ctor_m831468288_gshared
JYg:_Dictionary_2_System_Collections_IDictionary_set_Item_m2290664072_gshared
d1f:__Z76RuntimeInvoker_Void_t1841601450_Int64_t909078037_ResourceInfoU26_t3126209420PFvvEPK10MethodInfoPvPS4_
Wse:_SimpleCollator__cctor_m2693747668
SOd:_Decimal_CompareTo_m2454501434_AdjustorThunk
q3:__ZN14SafeBinaryReadD2Ev
xRf:_UInt16_System_IConvertible_ToChar_m4055364664
r_b:__Z13RegisterClassI7TextureEvv
MBi:_ExpressionCollection_OnValidate_m1703610065
y8d:_Component_GetComponentInChildren_TisRuntimeObject_m2461586036_gshared
JOb:__ZN8Gradient8TransferI18StreamedBinaryReadILb1EEEEvRT_
DVg:_Enumerator_Dispose_m2369319718_AdjustorThunk
dlh:__ZL79Convert_t2607082565_CustomAttributesCacheGenerator_Convert_ToUInt16_m3991499696P21CustomAttributesCache
poc:__Z45Register_UnityEngine_GUIStyle_SetFontInternalv
MTe:_Enumerator_Dispose_m1520016780_AdjustorThunk
Urj:__ZN6il2cpp6icalls8mscorlib6System4Type15MakeGenericTypeEP20Il2CppReflectionTypeP11Il2CppArray
oj:_SDL_PauseAudio
Jdj:_il2cpp_class_from_type
rud:_Array_Sort_m2323017822
nSh:_Scrollbar_UpdateDrag_m3839695926
WDg:_GUILayoutUtility__cctor_m2957755459
x6h:_AudioConfigurationChangeHandler_EndInvoke_m2237100787
E0:__ZN9ShaderLab19CommonPropertyNames16StaticInitializeEPv
Soe:_MissingMemberException__ctor_m3710131950
vsa:__ZN13MemoryManager31DisallowAllocationsOnThisThreadEv
wC:__ZN7mecanim9animation18CreateAvatarOutputEPKNS0_14AvatarConstantEbbRNS_6memory9AllocatorE
Poc:__Z45GUIUtility_CUSTOM_Internal_GetKeyboardControlv
x7f:__Z91RuntimeInvoker_Void_t1841601450_RuntimeObject_Int32_t2071877448_RuntimeObject_RuntimeObjectPFvvEPK10MethodInfoPvPS4_
oHf:_CspParameters__ctor_m2546931874
lO:__ZN11AudioSource23VirtualRedirectTransferER24GenerateTypeTreeTransfer
b7b:__ZN7Texture11SetWrapModeE15TextureWrapMode
vub:__ZN14Texture2DArray23VirtualRedirectTransferER14SafeBinaryRead
D0a:__ZNK6Camera21CalculateCanDoShadowsEv
z$g:_Dictionary_2_make_pair_m2631942124_gshared
Mld:_Graphic__cctor_m1643894470
kzj:__ZN6il2cpp2os6Thread12SetStackSizeEj
oXf:__Z99RuntimeInvoker_Void_t1841601450_Int32_t2071877448_RuntimeObject_Int32_t2071877448_Int32_t2071877448PFvvEPK10MethodInfoPvPS4_
_sf:_X509ChainElementEnumerator_get_Current_m2232618221
X0f:__Z54RuntimeInvoker_CallingConventions_t1097349142_IntPtr_tPFvvEPK10MethodInfoPvPS4_
Bfd:_U3COnFinishSubmitU3Ec__Iterator0_Reset_m2080388334
W6b:__ZNK8Renderer16IsVisibleInSceneEv
F6h:_Behaviour_get_isActiveAndEnabled_m3838334305
FTh:_ScrollRect_set_onValueChanged_m3957749575
r$:__Z13VFormatBufferPciPKcz
CPb:__Z18Transfer_BlittableI18StreamedBinaryReadILb0EELb1EhEvRK29SerializationCommandArgumentsR31RuntimeSerializationCommandInfo
D0i:_U3CCreateWhereIteratorU3Ec__Iterator1D_1_Dispose_m1879652802_gshared
Cdh:__ZL90SafeHandle_t2733794115_CustomAttributesCacheGenerator_SafeHandle_get_IsInvalid_m3910183075P21CustomAttributesCache
Fnd:_Image_GenerateSimpleSprite_m4275440988
_ai:_Display_get_systemHeight_m3377672024
mSf:_UInt16_ToString_m3280699191
MQi:_UnityEvent_1_GetDelegate_m2566156550_gshared
ora:__ZN6prcoreL27StretchGenericFloatBilinearI15TexFormatRFloatEEvPKNS_9InnerInfoE
Zdh:__ZL56_PropertyInfo_t1567586598_CustomAttributesCacheGeneratorP21CustomAttributesCache
ZXd:_Array_InternalArray__IEnumerable_GetEnumerator_TisBoolean_t3825574718_m798244337_gshared
EPe:_List_1_CopyTo_m158925060_gshared
Cv:__Z24ProcessAnimationMixBeginP35AnimationPlayableEvaluationConstantP32AnimationPlayableEvaluationInputP33AnimationPlayableEvaluationOutput
ZPg:_Rect_Overlaps_m4145874649
_Zd:_Array_IndexOf_TisCustomAttributeNamedArgument_t94157543_m745056346_gshared
oIa:__Z14PadImageBorderR14ImageReferenceii
_oh:__ZL92ExtendedKeyUsageExtension_t3816993686_CustomAttributesCacheGenerator_U3CU3Ef__switchU24map14P21CustomAttributesCache
wij:__ZN15dense_hashtableINSt3__24pairIK10KeyWrapperINS1_IPK10MethodInfoP11Il2CppClassEEEjEES9_17ReflectionMapHashIS8_EN14dense_hash_mapIS9_jSD_NS9_14EqualsComparerINS0_8equal_toIS8_EEEENS0_9allocatorISB_EEE9SelectKeyESI_SK_E4findERSA_
Acg:__Z116RuntimeInvoker_Void_t1841601450_Rect_t3681755626_SByte_t454417549_SByte_t454417549_SByte_t454417549_SByte_t454417549PFvvEPK10MethodInfoPvPS4_
oki:_ArrayReadOnlyList_1_ReadOnlyError_m2289309720_gshared
dw:__ZN27AnimationLayerMixerPlayableD2Ev
ycj:__ZN6il2cpp2vm8basepathEPKc
Z7:__ZN15dense_hashtableINSt3__24pairIKiiEEi21InstanceIDHashFunctorN14dense_hash_mapIiiS4_NS0_8equal_toIiEE13stl_allocatorIS3_L18MemLabelIdentifier137ELi16EEE9SelectKeyES7_SA_E14squash_deletedEv
o1g:_DefaultComparer_GetHashCode_m320514092_gshared
CK:__ZN12AudioManager39HandlePendingAudioConfigurationCallbackEv
f4g:__ZL79RuntimeObject_CustomAttributesCacheGenerator_Object_ReferenceEquals_m3900584722P21CustomAttributesCache
kk:_emscripten_glIsFramebuffer
x3b:__ZN12_GLOBAL__N_16qAtan2Eff
LJd:_Convert_ToInt64_m954367741
mZi:__ZL25UnresolvedVirtualCall_153P12Il2CppObject40CustomAttributeTypedArgument_t1498197914S1_PK10MethodInfo
ok:_JS_Sound_SetLoopPoints
qzd:_ArrayList__ctor_m1467563650
yP:__ZN12AudioManager17ShouldSourcePauseEb
YIj:__ZN6il2cpp2vm26MetadataAllocGenericMethodEv
FMa:__ZN19ConstantBuffersGLES12RecordRenderEv
Frc:__ZN9JSONWrite8TransferI10RectOffsetEEvRT_PKc17TransferMetaFlags
WHa:__ZN4crnd12symbol_codec11decode_bitsEj
_Gc:_cf2_doFlex
i5d:_Array_Sort_TisRaycastResult_t21186376_TisRaycastResult_t21186376_m38820193_gshared
j3h:_Animator_ResetTriggerString_m1445965342
I3b:__ZN21FixedBehaviourManagerD0Ev
Hwh:__ZL55RaycastHit2D_t4063908774_CustomAttributesCacheGeneratorP21CustomAttributesCache
oje:_StreamReader__ctor_m3454466728
GK:__ZN4FMOD6System12createReverbEPPNS_6ReverbE
Elj:__ZN15dense_hashtableINSt3__24pairIK10KeyWrapperIPK14Il2CppAssemblyEPK22Il2CppMonoAssemblyNameEES6_N6il2cpp5utils11PointerHashIS4_EEN14dense_hash_mapIS6_SA_SF_NS6_14EqualsComparerINS0_8equal_toIS5_EEEENS0_9allocatorISB_EEE9SelectKeyESK_SM_E8min_sizeEjj
ZLi:_Vector2_get_Item_m2792130561
Xv:__ZN7mecanim19ValueArrayBlendNodeILb1EEEvRKNS_10ValueArrayERKNS_14ValueArrayMaskERS1_RS4_RNS_16ValueArrayWeightEf
xsa:__Z16MarkDependenciesR27GarbageCollectorThreadStatej
Suf:_X509ChainElementEnumerator_Reset_m3832280427
T$h:_AnimatorControllerPlayable_SetBoolString_m4011560969
LGh:__ZL75EventSystem_t3466835263_CustomAttributesCacheGenerator_U3CU3Ef__mgU24cache0P21CustomAttributesCache
_qe:_MulticastDelegate_RemoveImpl_m2024746777
ngd:_CanvasUpdateRegistry_ParentCount_m2367607495
Uqe:_MulticastDelegate_Equals_m3064081489
wZi:__ZL25UnresolvedVirtualCall_163P12Il2CppObject22UILineInfo_t3621277874S1_PK10MethodInfo
fCe:_Activator_CreateInstance_m1465989661
A0:__ZNK9Transform11GetPositionEv
hCi:_PositionAssertion_GetWidth_m2294218483
CNg:_PlayableHandle_SetPlayStateInternal_m3829195293
dGh:__ZL111PlayerConnection_t3517219175_CustomAttributesCacheGenerator_PlayerConnection_MessageCallbackInternal_m267902474P21CustomAttributesCache
HXa:__ZN23SharedMeshRenderingData18UnloadVertexStreamEi
kNi:_Vector4_set_Item_m3077071044
f4b:__ZN31CanvasBatchIntermediateRenderer11AddSubBatchERK16DrawBuffersRangePK19ShaderPropertySheet
kIh:__ZL104PointerEventData_t1599784723_CustomAttributesCacheGenerator_PointerEventData_set_scrollDelta_m4002219844P21CustomAttributesCache
H2b:__ZN19RenderEventsContextC2Ei
MU:__Z6simd4fRKf
r1d:_Array_InternalArray__ICollection_CopyTo_TisColor32_t874517518_m379086718_gshared
dWh:_Slider_ClampValue_m2851810895
Rk:_emscripten_glEnable
uEg:_GUISkin_set_font_m4009958323
LQi:_UnityEvent_1_FindMethod_Impl_m3813546_gshared
U_i:__ZL25UnresolvedVirtualCall_241P12Il2CppObjectiPK10MethodInfo
Cib:__ZN10TagManager23VirtualRedirectTransferER14SafeBinaryRead
Zei:_MarshalAsAttribute__ctor_m1892084128
LBc:_UNITY_FT_Init_Class_ft_grays_raster
v3a:__Z15InitLightMeshesv
wjh:__ZL97WaitHandle_t677569169_CustomAttributesCacheGenerator_WaitHandle_t677569169____Handle_PropertyInfoP21CustomAttributesCache
gDe:_KeyValuePair_2_ToString_m1391611625_AdjustorThunk
En:FUNCTION_TABLE_iifiii
YNe:_List_1_Sort_m4156683373_gshared
muh:__ZL108Material_t193706927_CustomAttributesCacheGenerator_Material_Internal_CreateWithMaterial_m2907597451____mono0P21CustomAttributesCache
PId:_Double_Parse_m1617409931
l6f:__Z70RuntimeInvoker_Boolean_t3825574718_Int32_t2071877448_Int16_t4041245914PFvvEPK10MethodInfoPvPS4_
mWa:__ZN22RenderingCommandBuffer36AcquireAndRegisterSharedMaterialDataEP8Material
xJe:_List_1_System_Collections_Generic_IEnumerableU3CTU3E_GetEnumerator_m1503548298_gshared
xLb:__Z18Transfer_BlittableI19StreamedBinaryWriteILb0EELb1E8Vector2fEvRK29SerializationCommandArgumentsR31RuntimeSerializationCommandInfo
GGc:_cf2_arrstack_init
gdh:__ZL65ClassInterfaceAttribute_t910653559_CustomAttributesCacheGeneratorP21CustomAttributesCache
Kgj:__ZN15dense_hashtableINSt3__24pairIK10KeyWrapperINS1_IPK14Il2CppAssemblyP11Il2CppClassEEEjEES9_17ReflectionMapHashIS8_EN14dense_hash_mapIS9_jSD_NS9_14EqualsComparerINS0_8equal_toIS8_EEEENS0_9allocatorISB_EEE9SelectKeyESI_SK_E15insert_noresizeERKSB_
d$:__Z15CleanLogHandler7LogTypePKcz
CVb:__ZN9ShaderLab19SerializedSubShader8TransferI19StreamedBinaryWriteILb0EEEEvRT_
TP:__ZN14AudioBehaviour15ThreadedCleanupEv
cLf:_UTF32Encoding_GetBytes_m2290150495
fCb:__ZN6Camera17RemoveImageFilterERK11ImageFilter
CJa:__ZNSt3__218__insertion_sort_3IR25ValueParameterArraySorterPN20GpuProgramParameters14ValueParameterEEEvT0_S6_T_
fCd:_CaseInsensitiveHashCodeProvider_AreEqual_m2456617355
tdg:__Z74RuntimeInvoker_Boolean_t3825574718_HitInfo_t1761367055_HitInfo_t1761367055PFvvEPK10MethodInfoPvPS4_
HOc:__ZZN2UI11CanvasGroup15InitializeClassEvEN38FunctorImpl_117kTransformParentChanged4CallEPviR11MessageData
bPh:_LayoutUtility_GetLayoutProperty_m4052007472
iPi:_InvokableCall_1_Invoke_m3239892614_gshared
oXa:__ZNSt3__214__split_bufferI20ComputeShaderVariantRNS_9allocatorIS1_EEED2Ev
oxc:__ZNSt3__26vectorIN4core12basic_stringIcNS1_20StringStorageDefaultIcEEEE13stl_allocatorIS5_L18MemLabelIdentifier34ELi16EEE7reserveEj
wkj:__ZNK10KeyWrapperINSt3__24pairIPK9EventInfoP11Il2CppClassEEE14EqualsComparerINS0_8equal_toIS7_EEEclERKS8_SE_
shf:_Context_set_WriteSequenceNumber_m3356252710
vOc:__ZN2UI26InitializeDeviceForOverlayEi
xde:_Guid_Equals_m2389236871
V0:__Z27LogRepeatingStringWithFlagsRKN4core12basic_stringIcNS_20StringStorageDefaultIcEEEE15LogMessageFlagsi
gGe:_Enumerator_MoveNext_m3483405135_gshared
xt:__ZN17AnimationPlayable28ComputeNeedsBindingRebuildedEv
Gvi:_DefaultComparer__ctor_m2859550749_gshared
lHe:_List_1_CheckIndex_m3609163576_gshared
Lvh:__ZL62PlayableOutputHandle_t551742311_CustomAttributesCacheGeneratorP21CustomAttributesCache
Tzb:__ZN15ResourceManagerD0Ev
Asf:_X509ExtensionCollection__ctor_m1324282194
MTc:__ZN18UnityConnectClient33OnPlayerSessionStateChangedStaticEPS_jyy
e9g:__ZL74CaseInsensitiveHashCodeProvider_t2307530285_CustomAttributesCacheGeneratorP21CustomAttributesCache
gUf:_UIntPtr__ctor_m3900568171_AdjustorThunk
DX:__ZNK11UnityEngine15CloudWebService23WebRequestUploadHandler11GetProgressEv
nFa:__ZN7ApiGLES4LoadE16GfxDeviceLevelGL
Iqb:__ZN18StreamedBinaryReadILb0EE21TransferSTLStyleArrayI13dynamic_arrayI31EnlightenSystemAtlasInformationLj8EEEEvRT_17TransferMetaFlags
JXi:__ZL24UnresolvedVirtualCall_68P12Il2CppObject18OpCode_t2247480392S0_PK10MethodInfo
PHa:__ZN4crnd12crn_unpacker22decode_color_endpointsEv
$vj:__ZN15dense_hashtableI10KeyWrapperIP18Il2CppGenericClassES3_N6il2cpp8metadata22Il2CppGenericClassHashEN14dense_hash_setIS3_S6_NS3_14EqualsComparerINS5_25Il2CppGenericClassCompareEEENSt3__29allocatorIS3_EEE8IdentityESA_SD_E15insert_noresizeERKS3_
k3e:_ReadOnlyCollection_1_System_Collections_IList_Clear_m3006875897_gshared
O1b:__ZZL31RegisterOtherRendererPropertiesR22GenericPropertyBindingEN30Wrapper_RendererReceiveShadows13GetFloatValueEPv
k$f:__Z130RuntimeInvoker_Void_t1841601450_RuntimeObject_Int32U26_t455636984_ByteU26_t1147306860_Int32U26_t455636984_ByteU5BU5DU26_t790777611PFvvEPK10MethodInfoPvPS4_
yGe:_Enumerator_System_Collections_IEnumerator_get_Current_m3866069145_gshared
hue:_PreviousInfo_t581002487_marshal_pinvoke_cleanup
jha:__ZN8Material11SetPassFastEPN9ShaderLab4PassER17ShaderPassContextP6Shaderib
tbb:__ZNK13ScreenManager13GetLockCursorEv
KTc:__ZN11UnityEngine7Connect20BasePersistentValues10SaveValuesER9JSONWrite
EPg:_Rect_get_max_m96665935_AdjustorThunk
QCh:__ZL87GUIStyle_t1799908754_CustomAttributesCacheGenerator_GUIStyle_set_fixedWidth_m2562018757P21CustomAttributesCache
obd:_ExecuteEvents_get_pointerDownHandler_m1172742772
tXe:_Collection_1_RemoveAt_m560005219_gshared
F7b:__Z14ScaleCurveTimeR17AnimationCurveTplIfEf
nuf:_X509CertificateEnumerator_System_Collections_IEnumerator_MoveNext_m3708362145
zZa:__Z12SetupLODFadeR9GfxDeviceR17ShaderPassContextf
rnb:__ZNK14PlayableOutput7GetTypeEv
D_f:__Z203RuntimeInvoker_Boolean_t3825574718_RuntimeObject_Int32U26_t455636984_Int32_t2071877448_Int32_t2071877448_RuntimeObject_SByte_t454417549_Int32_t2071877448_ContractionU26_t2019974048_ContextU26_t3131521781PFvvEPK10MethodInfoPvPS4_
i3a:__ZL24CollectForwardObjectsJobP27CollectForwardObjectsHeader
yRg:_Enumerator_System_Collections_IDictionaryEnumerator_get_Entry_m345330700_gshared
a9i:__ZNK15dense_hashtableINSt3__24pairIK10KeyWrapperIPK11Il2CppClassEPKcEES6_N6il2cpp5utils11PointerHashIS3_EEN14dense_hash_mapIS6_S9_SE_NS6_14EqualsComparerINS0_8equal_toIS5_EEEENS0_9allocatorISA_EEE9SelectKeyESJ_SL_E12test_deletedERK24dense_hashtable_iteratorISA_S6_SE_SN_SJ_SL_E
Igh:__ZL53HMACSHA256_t2622794722_CustomAttributesCacheGeneratorP21CustomAttributesCache
Y6a:__ZNK25CameraStackRenderingState24ResolveTempToEyeTexturesEv
$4a:__Z13IsNodeVisibleRK9SceneNodeRK4AABBRK22SceneCullingParameters
Bwg:_EventInfo__ctor_m1190141300
gmi:_InternalEnumerator_1_MoveNext_m3585886944_gshared
rQc:__Z57RectTransformUtility_CUSTOM_INTERNAL_CALL_PixelAdjustRectP12Il2CppObjectS0_R5RectTIfE
Pxh:__ZL133AnimationPlayableOutput_t260357453_CustomAttributesCacheGenerator_AnimationPlayableOutput_INTERNAL_CALL_InternalSetTarget_m2733556181P21CustomAttributesCache
PCf:_DelayedFixupRecord_FixupImpl_m4249966635
C$j:_emscripten_glStencilMask__wrapper
v6i:__ZN15dense_hashtableI10KeyWrapperIPK19Il2CppGenericMethodES4_N6il2cpp8metadata23Il2CppGenericMethodHashEN14dense_hash_setIS4_S7_NS4_14EqualsComparerINS6_26Il2CppGenericMethodCompareEEENSt3__29allocatorIS4_EEE8IdentityESB_SE_EC2ERKSH_j
Gue:_BigInteger_ToString_m3837784224
QOd:_Decimal_decimalCompare_m26009298
pSa:__ZNK17ArchiveFileSystem8PositionERK13FileEntryData
kwc:__ZN16NovodexAllocator8allocateEjPKcS1_i
sQd:_DllNotFoundException__ctor_m267198482
I2a:__Z17PrepareShadowMapsRK11CullResultsRK11ActiveLightRK10MinMaxAABB
Phg:__Z75RuntimeInvoker_Boolean_t3825574718_CustomAttributeTypedArgument_t1498197914PFvvEPK10MethodInfoPvPS4_
AMf:_NativeEventCalls_CreateEvent_internal_m1605829321
dIe:_List_1_GetIndex_m3409004147_gshared
pEh:__ZL73RuntimePlatform_t1869584967_CustomAttributesCacheGenerator_MetroPlayerX64P21CustomAttributesCache
IWi:__ZL24UnresolvedVirtualCall_13P12Il2CppObjectaPK10MethodInfo
_pi:_InternalEnumerator_1_System_Collections_IEnumerator_get_Current_m3239681450_AdjustorThunk
uTb:__ZNSt3__26vectorIN9ShaderLab20SerializedSubProgram15VectorParameterENS_9allocatorIS3_EEEC2ERKS6_
f3a:__ZN9ShaderLab10GrabPassesD2Ev
iLg:_MonoBehaviour_set_useGUILayout_m2666356651
Gub:__ZN14Texture2DArray13UploadTextureEv
R3c:_SecurityFrame_t1002202659_marshal_pinvoke
ZDc:_tt_cmap14_done
ota:__ZN18AwakeFromLoadQueue25RegisterObjectInstanceIDsEv
Jwd:_Buffer_BlockCopy_m1586717258
ggh:__ZL93X509Certificate_t283079845_CustomAttributesCacheGenerator_X509Certificate_GetName_m2354987368P21CustomAttributesCache
iw:__ZNK27AnimationLayerMixerPlayable11DerivesFromE17ScriptingClassPtr
iyc:__ZN20TextRenderingPrivate19NativeTextGenerator15InsertCharacterEiPj
coi:_InternalEnumerator_1__ctor_m3589241961_AdjustorThunk
Hqj:__ZNSt3__26vectorIN6il2cpp2vm22EmbeddedResourceRecordENS_9allocatorIS3_EEE21__push_back_slow_pathIS3_EEvOT_
NTd:_CompareInfo_GetSortKey_m3691382873
MNd:_DBNull_ToString_m3228904745
Klc:__ZN5IMGUI20MoveWindowFromLayoutER8GUIStateiRK5RectTIfE
B$c:_SHA1Managed_HashCore_m2658295635
Ow:__ZN17AnimationPlayableD0Ev
hdf:_RC4_get_IV_m506011366
wGi:_X509Crl__ctor_m2469408229
jMb:__Z18Transfer_BlittableI19StreamedBinaryWriteILb0EELb0EyEvRK29SerializationCommandArgumentsR31RuntimeSerializationCommandInfo
udh:__ZL82SafeHandle_t2733794115_CustomAttributesCacheGenerator_SafeHandle_Close_m1146946803P21CustomAttributesCache
LRg:_Enumerator_get_CurrentValue_m3562053380_AdjustorThunk
vvf:_X509SubjectKeyIdentifierExtension_CopyFrom_m136762226
G_h:_AnimationOffsetPlayable_INTERNAL_CALL_SetPositionInternal_m3711322547
vEe:_Enumerator_System_Collections_IEnumerator_Reset_m610822832_AdjustorThunk
lbf:_ASN1_get_Length_m778823697
$fc:__Z41MonoBehaviour_Set_Custom_PropUseGUILayoutP12Il2CppObjecth
$yj:__ZN6il2cpp5utils13dynamic_arrayIPNS_2os6ThreadELj4EE9push_backEv
czc:_UNITY_FT_Open_Face
sXj:_glGenRenderbuffers__wrapper
e7h:_Bounds_ToString_m1966597703
Bve:_BigInteger_op_Division_m1581119694
HRb:__ZN16ScriptingManagerD0Ev
A5g:__ZL81Decimal_t724701077_CustomAttributesCacheGenerator_Decimal_op_Implicit_m2135798419P21CustomAttributesCache
aEf:_CallbackHandler_Invoke_m1498072969
VHf:_DSACryptoServiceProvider__ctor_m701823690
qkg:__Z74RuntimeInvoker_Void_t1841601450_Int32_t2071877448_ResourceInfo_t3933049236PFvvEPK10MethodInfoPvPS4_
MDg:_Mathf_Clamp_m2354025655
nqg:_CustomAttributeData_GetCustomAttributes_m2421330738
Ekf:_SecurityParameters_set_ClientWriteMAC_m1970377285
Nuj:__ZN30dense_hashtable_const_iteratorINSt3__24pairIK10KeyWrapperINS1_IPKcS4_EEEiEES6_24NamespaceAndNamePairHashN14dense_hash_mapIS6_iS9_NS6_14EqualsComparerI26NamespaceAndNamePairEqualsEENS0_9allocatorIS8_EEE9SelectKeyESD_SF_EppEv
eQf:_Type_get_IsEnum_m313908919
Fcc:__Z44Register_UnityEngine_Component_get_transformv
RPe:_List_1_Reverse_m3395936565_gshared
GXe:_Collection_1_System_Collections_ICollection_CopyTo_m1335644572_gshared
BB:__ZN12_GLOBAL__N_120ProcessPlayableGraphERN8Animator11AnimatorJobER35AnimationPlayableEvaluationConstantR32AnimationPlayableEvaluationInputR33AnimationPlayableEvaluationOutputPFvS4_R17AnimationPlayableEPFvS4_S6_S8_EPFvS8_S4_S6_S8_fESE_MS9_FvPS3_PS5_PS7_E
MNe:_List_1_CheckMatch_m2830747427_gshared
DPa:__ZN17ArchiveFileSystem12MountArchiveEPKcS1_
PZf:__Z58RuntimeInvoker_RuntimeTypeHandle_t2330101084_RuntimeObjectPFvvEPK10MethodInfoPvPS4_
bQd:_StackFrame_GetMethod_m72881026
Lqc:__Z18Transfer_BlittableI9JSONWriteLb1E8Vector4fEvRK29SerializationCommandArgumentsR31RuntimeSerializationCommandInfo
zn:FUNCTION_TABLE_viififiii
MMc:__ZN2UI13CanvasManagerD0Ev
tSg:_Enumerator_System_Collections_IEnumerator_Reset_m70453843_gshared
mrb:__ZThn32_NK8Renderer14GetSubsetIndexEi
i1f:__Z58RuntimeInvoker_Byte_t3683104436_IntPtr_t_Int32_t2071877448PFvvEPK10MethodInfoPvPS4_
u6d:_Dictionary_2_Do_CopyTo_TisKeyValuePair_2_t1174980068_TisRuntimeObject_m3279061992_gshared
CMi:_Vector3_get_Item_m3616014016
zMh:__ZL59Slider_t297367283_CustomAttributesCacheGenerator_m_MinValueP21CustomAttributesCache
y0b:__ZN13ProduceHelperI15ResourceManagerLb0EE7ProduceE18MemLabelIdentifier18ObjectCreationMode
RCa:__ZN9GfxDevice15ImmediateVertexEfff
$Zb:__Z13RegisterClassI8MaterialEvv
Ahh:__ZL51Evidence_t1407710183_CustomAttributesCacheGeneratorP21CustomAttributesCache
Tpb:__ZNK16LightmapSettings22GetTypeVirtualInternalEv
wkb:__ZN16GraphicsSettings13AwakeFromLoadE17AwakeFromLoadMode
TSd:_FieldAccessException__ctor_m3893881490
Np:__ZN6Object13AwakeFromLoadE17AwakeFromLoadMode
yAa:__ZN13GfxDeviceGLES15SetStencilStateEPK18DeviceStencilStatei
I8f:__Z107RuntimeInvoker_Void_t1841601450_Single_t2076509932_Single_t2076509932_Single_t2076509932_Single_t2076509932PFvvEPK10MethodInfoPvPS4_
BNj:_cycle
KJi:_TextGenerator_Populate_m4139823822
Noh:__ZL72PKCS12_t1362584795_CustomAttributesCacheGenerator_U3CU3Ef__switchU24map5P21CustomAttributesCache
Ld:_emscripten_glUniform1iv
AXh:_Text_get_preferredHeight_m452532789
w5c:_String_System_IConvertible_ToDouble_m3860911722
Zdb:__ZN16MemoryFileSystemD2Ev
gui:_InternalEnumerator_1_get_Current_m3732458101_AdjustorThunk
HZg:_Dictionary_2_System_Collections_Generic_ICollectionU3CSystem_Collections_Generic_KeyValuePairU3CTKeyU2CTValueU3EU3E_Contains_m842343255_gshared
Bbf:_ARC4Managed__ctor_m2922048522
tyc:__Z17dynamic_pptr_castIP9Texture2D7TextureET_RK4PPtrIT0_E
B4e:_ReadOnlyCollection_1_System_Collections_IList_set_Item_m1272038804_gshared
sli:_InternalEnumerator_1_System_Collections_IEnumerator_get_Current_m1931522460_AdjustorThunk
$1c:_SecurityPermission_IsEmpty_m1869313067
jcc:__Z37Register_UnityEngine_Camera_get_depthv
Oye:_EncryptedPrivateKeyInfo_get_Salt_m2734354394
x6e:_ReadOnlyCollection_1_System_Collections_Generic_IListU3CTU3E_set_Item_m1918537449_gshared
iWe:_Collection_1_System_Collections_ICollection_CopyTo_m3896480607_gshared
Ubd:_PointerEventData_set_position_m794507622
Oba:__ZN15dense_hashtableINSt3__24pairIKPKcPK4RTTIEES3_N11TypeManager23ConstCharPtrHashFunctorEN14dense_hash_mapIS3_S7_SA_NS9_19ConstCharPtrEqualToE13stl_allocatorIS8_L18MemLabelIdentifier6ELi16EEE9SelectKeyESC_SF_E12resize_deltaEjj
zZb:__ZN15ApplicationInfo16GetInstallerNameEv
vdb:__Z23ConvertIntegerToTypePtrItEbPvR14SafeBinaryRead
cC:__ZN7mecanim5human29HumanGetGoalOrientationOffsetENS0_4GoalE
_Db:__ZNK11MonoManager22GetTypeVirtualInternalEv
BWi:__ZL23UnresolvedVirtualCall_6P12Il2CppObjectiPK10MethodInfo
l0g:_DefaultComparer_GetHashCode_m3315096533_gshared
pzg:_MonoMethod_MakeGenericMethod_impl_m2063853616
S3c:__Z46il2cpp_codegen_get_marshal_directive_exceptionPKc
GWb:__ZN9ShaderLab20SerializedSubProgram14AddMatrixParamEPKcii15ShaderParamTypei
ge:_glGetActiveUniformBlockName
zkd:_FontData_set_verticalOverflow_m4211463083
AF:__ZN26AnimatorControllerPlayable23ValidateParameterStringE17GetSetValueResultRKN4core12basic_stringIcNS1_20StringStorageDefaultIcEEEE
Fde:_Guid_AppendByte_m2890893073
Vxd:_Char_System_IConvertible_ToType_m3106771703_AdjustorThunk
yxf:_Interval_Intersects_m3480157390_AdjustorThunk
bfc:__Z39Quaternion_CUSTOM_INTERNAL_CALL_InverseRK11QuaternionfRS_
Jei:_GCHandle_Alloc_m1063472408
yL:__ZN4FMOD7Channel20set3DConeOrientationEP11FMOD_VECTOR
zIh:__ZL86StandaloneInputModule_t70867863_CustomAttributesCacheGenerator_m_InputActionsPerSecondP21CustomAttributesCache
qn:FUNCTION_TABLE_iiifii
rxi:_Comparer_1__ctor_m4052560291_gshared
Ozh:__ZL54SkeletonBone_t345082847_CustomAttributesCacheGeneratorP21CustomAttributesCache
bHf:_CryptoConfig_CreateFromName_m391442950
dyj:__ZN6il2cpp2vm12GenericClass11SetupEventsEP11Il2CppClass
fKc:_tt_delta_interpolate
SDc:_tt_cmap12_get_info
UEd:_SortedList__ctor_m3698381356
C2h:_AnimatorControllerPlayable_PlayInFixedTimeInternal_m3876843019
Gtj:__ZN6il2cpp2vm15ReboxIReferenceEP14Il2CppIUnknownP11Il2CppClass
Rme:_StreamWriter_LowLevelWrite_m4205372900
M1i:__ZN6il2cpp6icalls8mscorlib6System7Decimal14decimalCompareEP19il2cpp_decimal_reprS5_
jEj:__ZThn4_N6il2cpp2vm13CachedCCWBaseINS0_13ManagedObjectEE7ReleaseEv
zxg:_Module__ctor_m3853650010
yCd:_CollectionBase_System_Collections_IList_get_Item_m2370387510
vfh:__ZL59RemotingException_t109604560_CustomAttributesCacheGeneratorP21CustomAttributesCache
Z4d:_Array_Sort_TisCustomAttributeNamedArgument_t94157543_m3436077809_gshared
GYj:_glCopyTexImage2D__wrapper
jHi:_ResourceRequest__ctor_m3340010930
ird:_LayoutElement__ctor_m789941073
$Gh:__ZL77ExecuteEvents_t1693084770_CustomAttributesCacheGenerator_U3CU3Ef__mgU24cache9P21CustomAttributesCache
x7h:_Camera_FireOnPreCull_m1679634170
Lch:__ZL68TargetInvocationException_t4098620458_CustomAttributesCacheGeneratorP21CustomAttributesCache
Gmh:__ZL56RankException_t1539875949_CustomAttributesCacheGeneratorP21CustomAttributesCache
sae:_NumberFormatter_CountTrailingZeros_m2398864634
Ooa:__Z18ClearByDrawingQuad13GfxClearFlagsRK10ColorRGBAffjR17ShaderPassContext
uhi:_DynamicPropertyCollection_FindProperty_m1233265924
Nqa:__ZN6prcoreL17RemapGenericFloatI14TexFormatRHalf15TexFormatRFloatEEvPKNS_9InnerInfoE
nZa:__Z16ShouldUseShadowsb
jaa:__ZN15DirectorManager21RebuildStageCallbacksEv
Ora:__ZN19RuntimeSceneManager9LoadSceneERKN4core12basic_stringIcNS0_20StringStorageDefaultIcEEEES6_S6_RK9UnityGUIDiNS_11LoadingModeE
_Wi:__ZL24UnresolvedVirtualCall_31P12Il2CppObjectiS0_S0_PK10MethodInfo
FIa:__ZN7ApiGLES10DrawArraysE16GfxPrimitiveTypejjj
Mbi:_Event_PopEvent_m1952528237
h0h:_AnimatorControllerPlayable_SetIntegerString_m3665225671
lJ:__ZN10SampleClip13LoadBaseSoundEv
w1f:__Z49RuntimeInvoker_TimeSpan_t3430258949_RuntimeObjectPFvvEPK10MethodInfoPvPS4_
gxj:__ZN15dense_hashtableINSt3__24pairIK10KeyWrapperIP12Il2CppObjectEN6il2cpp2gc9CachedCCWEEES5_NS7_5utils11PointerHashIS3_EEN14dense_hash_mapIS5_S9_SD_NS5_14EqualsComparerINS0_8equal_toIS4_EEEENS0_9allocatorISA_EEE9SelectKeyESI_SK_E15insert_noresizeERKSA_
Q_e:_Collection_1_Contains_m643401393_gshared
Noa:__ZN22DeviceMVPMatricesStateC2ER9GfxDevice
o5c:_String__ctor_m372528291
$m:FUNCTION_TABLE_iifii
$F:__Z64AnimationOffsetPlayable_CUSTOM_INTERNAL_CALL_SetRotationInternalR9HPlayableRK11Quaternionf
Ysb:__ZNSt3__26vectorI13dynamic_arrayI8Vector2fLj4EENS_9allocatorIS3_EEE6assignINS_11__wrap_iterIPS3_EEEENS_9enable_ifIXaasr21__is_forward_iteratorIT_EE5valuesr16is_constructibleIS3_NS_15iterator_traitsISC_E9referenceEEE5valueEvE4typeESC_SC_
SIf:_Encoding_SetFallbackInternal_m1682842442
rnj:__ZN6il2cpp2vm10Reflection12HasAttributeEP9FieldInfoP11Il2CppClass
x$h:_AnimatorControllerPlayable_GetFloat_m1229536053_AdjustorThunk
Zsa:__ZNSt3__26__treeIiNS_4lessIiEE13stl_allocatorIiL18MemLabelIdentifier1ELi16EEE7destroyEPNS_11__tree_nodeIiPvEE
pc:invoke_viiifi
Ppe:_LongComparer_Compare_m3981323622
vAh:__ZL82Canvas_t209405766_CustomAttributesCacheGenerator_Canvas_set_scaleFactor_m298557412P21CustomAttributesCache
ucj:__ZNSt3__214__split_bufferIP11Il2CppClassRNS_9allocatorIS2_EEEC2EjjS5_
chd:_ContentSizeFitter_get_horizontalFit_m892469688
oOh:__ZL109LayoutUtility_t4076838048_CustomAttributesCacheGenerator_LayoutUtility_U3CGetFlexibleHeightU3Em__7_m947156537P21CustomAttributesCache
cye:__ZN23InterfaceActionInvoker2IP8String_tP12Il2CppObjectE6InvokeEjP11Il2CppClassS3_S1_S3_
u2g:_EqualityComparer_1__cctor_m3033994022_gshared
gya:__ZNK11AssetBundle14GetPreloadDataEiR13dynamic_arrayIiLj4EE
Wze:_EncryptedData_get_EncryptedContent_m2732115576
qf:_JS_Sound_SetPosition
Kzi:_Assertion_set_FalseExpression_m1781616372
rvf:_X509SubjectKeyIdentifierExtension_FromHexChars_m2515150420
Nha:__ZN19RenderBufferManager13GetTempBufferEii17DepthBufferFormat19RenderTextureFormatj22RenderTextureReadWrite14VRTextureUsagei23RenderTextureMemoryless
j9i:__ZL13GetSharedInstPK17Il2CppGenericInst
S7g:__ZL51IReflect_t3412036974_CustomAttributesCacheGeneratorP21CustomAttributesCache
Udd:_StandaloneInputModule_SendSubmitEventToSelectedObject_m3421155293
Tci:_RenderPipelineManager_CleanupRenderPipeline_m2242901458
C9h:_Component_GetComponentsInChildren_m908027537
ARc:__ZN22BaseUnityConnectClient17SaveSessionValuesEv
hji:_CallContextRemotingData_Clone_m2226242476
S2:__Z63ThreadAndSerializationSafeCheckSetMonoBehaviourBeingTransferredP13MonoBehaviour
l3a:__Z24SetupActiveLightsContextR21ActiveLightingContextRK12ActiveLightsRK11CullResultsP14ShadowMapCacheRK10MinMaxAABB
x_g:_Dictionary_2_System_Collections_Generic_ICollectionU3CSystem_Collections_Generic_KeyValuePairU3CTKeyU2CTValueU3EU3E_Contains_m3400497673_gshared
Phc:__Z38Sprite_CUSTOM_INTERNAL_get_textureRectP12Il2CppObjectP5RectTIfE
INd:_DBNull_System_IConvertible_ToUInt32_m2681284284
dmj:__ZNK15dense_hashtableINSt3__24pairIK10KeyWrapperIPK22Il2CppGenericParameterEPK24MonoGenericParameterInfoEES6_N6il2cpp5utils11PointerHashIS4_EEN14dense_hash_mapIS6_SA_SF_NS6_14EqualsComparerINS0_8equal_toIS5_EEEENS0_9allocatorISB_EEE9SelectKeyESK_SM_E3endEv
b5b:__ZN9TextAsset7SetTextERKN4core12basic_stringIcNS0_20StringStorageDefaultIcEEEE
Tjb:__ZN6Camera8TransferI24GenerateTypeTreeTransferEEvRT_
l3g:_EqualityComparer_1__cctor_m416314417_gshared
Ia:invoke_iiiiiiif
Ea:invoke_iiiiiiii
wKg:_Mesh_GetUVChannel_m364477864
Ktf:_X509ChainElementCollection_Contains_m3599995067
I6a:__ZN8Renderer17PendingAddToSceneEv
u0j:b123
t0j:b122
T0h:_AnimatorControllerPlayable_GetLayerName_m1429074517_AdjustorThunk
v0j:b124
y0j:b127
x0j:b126
A0j:b129
dhc:__Z52Register_UnityEngine_RectTransform_INTERNAL_get_rectv
M1:__Z21PostprocessStacktracePKcRN4core12basic_stringIcNS1_20StringStorageDefaultIcEEEE
XOe:_List_1_ToArray_m2390522926_gshared
Ddh:__ZL70TypeLibImportClassAttribute_t2390314680_CustomAttributesCacheGeneratorP21CustomAttributesCache
Kzb:__ZN18StreamedBinaryReadILb0EE21TransferSTLStyleArrayI13dynamic_arrayI16SplashScreenLogoLj4EEEEvRT_17TransferMetaFlags
PUa:__ZNSt3__26vectorIPN9ShaderLab9SubShaderENS_9allocatorIS3_EEE21__push_back_slow_pathIKS3_EEvRT_
CWd:_Array_InternalArray__ICollection_Remove_TisX509ChainStatus_t4278378721_m4127982424_gshared
tcc:__Z47Register_UnityEngine_Camera_get_allCamerasCountv
uXc:___clang_call_terminate
Lx:__ZThn148_NK26AnimatorControllerPlayable24HasStateMachineBehaviourEv
DRc:__ZN22BaseUnityConnectClient20StartEventDispatcherEv
J6b:__ZNSt3__26vectorIj13stl_allocatorIjL18MemLabelIdentifier1ELi16EEE6assignIPKtEENS_9enable_ifIXaasr21__is_forward_iteratorIT_EE5valuesr16is_constructibleIjNS_15iterator_traitsIS9_E9referenceEEE5valueEvE4typeES9_S9_
TA:__ZN7mecanim9animation16EvaluateAvatarIKEPKNS0_14AvatarConstantEPKNS0_11AvatarInputEPNS0_12AvatarOutputEPNS0_12AvatarMemoryEPNS0_15AvatarWorkspaceEb
gJa:__ZL25ProgramUniformMatrix4x3fvPK7ApiGLESjiihPKv
Ocb:__Z29StdTemplateConversionFunctionIsiEbPvR14SafeBinaryRead
fNg:_PlayableGraph_INTERNAL_CALL_CreateScriptOutputInternal_m348659249
VUa:__ZN12InputManager13InputEndFrameEv
zEd:_SyncHashtable__ctor_m2029869827
Hbj:__ZNSt3__26__treeIP11Il2CppClassNS_4lessIS2_EENS_9allocatorIS2_EEE25__emplace_unique_key_argsIS2_JRKS2_EEENS_4pairINS_15__tree_iteratorIS2_PNS_11__tree_nodeIS2_PvEEiEEbEERKT_DpOT0_
ppj:__ZN6il2cpp2vm6Thread5SetupEP12Il2CppThread
M7e:_ReadOnlyCollection_1_System_Collections_IList_Remove_m2200089035_gshared
dWe:_Collection_1_CheckWritable_m2756357359_gshared
GOj:___munmap
Dod:_InputField_get_characterLimit_m2386380888
kJh:__ZL68ColorBlock_t2652774230_CustomAttributesCacheGenerator_m_PressedColorP21CustomAttributesCache
xJd:_Convert_ToInt64_m1722087499
hg:_localtime_r
Ejh:__ZL81AppDomain_t2719102437_CustomAttributesCacheGenerator_assembly_resolve_in_progressP21CustomAttributesCache
oNg:_PlayableHandle_GetInputCount_m3249715311
wQ:__ZN4FMOD5Sound11getDefaultsEPfS1_S1_Pi
pdh:__ZL65InterfaceTypeAttribute_t4113096249_CustomAttributesCacheGeneratorP21CustomAttributesCache
jg:_strftime
Xha:__ZN7Texture33SetStoredColorSpaceNoDirtyNoApplyE17TextureColorSpace
f6:__ZN12FileAccessorD2Ev
Jna:__ZN10ColorRGBAf8TransferI18StreamedBinaryReadILb0EEEEvRT_
jvb:__ZN14VertexDataInfoC2Ev
OSd:_Exception_GetObjectData_m2653827630
Dth:__ZL75Mesh_t1356156583_CustomAttributesCacheGenerator_Mesh_HasChannel_m3616583481P21CustomAttributesCache
JMi:_Vector3_Equals_m2692262876_AdjustorThunk
Joi:_InternalEnumerator_1_get_Current_m2415979394_gshared
gOb:__ZL17Transfer_GUIStyleI18StreamedBinaryReadILb1EELb1EEvRK29SerializationCommandArgumentsR31RuntimeSerializationCommandInfo
pTh:_ScrollRect_SetDirtyCaching_m1491302821
sNg:_PlayableHandle_SetInputCount_m2001045454
acj:__ZN6il2cpp6icalls8mscorlib6SystemL9IsPrivateEPK12PropertyInfo
t4f:__Z72RuntimeInvoker_DateTime_t693205669_DateTime_t693205669_Int32_t2071877448PFvvEPK10MethodInfoPvPS4_
pqg:_CustomAttributeData_GetCustomAttributes_m3258419955
Q0:__ZN9shadertag10InitializeEv
BZa:__ZN13BatchRenderer20RenderSingleWithPassER17ShaderPassContextPK18SharedMaterialDataP6ShaderPN9ShaderLab4PassEiPKNS7_10GrabPassesEjib15BatchBreakCause
nlg:__Z71RuntimeInvoker_CustomAttributeNamedArgument_t94157543_Int32_t2071877448PFvvEPK10MethodInfoPvPS4_
oIf:_EncoderFallback__ctor_m1639180960
uvi:_InternalEnumerator_1_MoveNext_m1441038493_gshared
wsb:__ZN15QualitySettings14QualitySetting8TransferI24GenerateTypeTreeTransferEEvRT_
d1d:_Array_InternalArray__ICollection_CopyTo_TisParameterModifier_t1820634920_m4127516211_gshared
Z7c:_DecoderReplacementFallback__ctor_m2344783488
oog:_OutOfMemoryException__ctor_m239206850
Ykd:_GraphicRegistry_UnregisterGraphicForCanvas_m820096873
jLc:__Z28Font_Get_Custom_PropMaterialP12Il2CppObject
VHj:__ZN6il2cpp6icalls8mscorlib6System9Threading16NativeEventCalls19ResetEvent_internalE12Il2CppIntPtr
v7f:__Z88RuntimeInvoker_RuntimeObject_RuntimeObject_RuntimeObject_RuntimeObject_Int32_t2071877448PFvvEPK10MethodInfoPvPS4_
dYe:_Collection_1_Remove_m4136193368_gshared
Iad:_EventTrigger_OnPointerUp_m2791622548
dlg:__Z60RuntimeInvoker_DictionaryEntry_t3048875398_Int32_t2071877448PFvvEPK10MethodInfoPvPS4_
yVh:_Shadow_set_useGraphicAlpha_m141905402
Y5b:__ZN22BlockMemoryCacheWriter14LockCacheBlockEjPPhS1_
PFh:__ZL106PlayableExtensions_t2358977238_CustomAttributesCacheGenerator_PlayableExtensions_SetInputCount_m3394969154P21CustomAttributesCache
clc:__ZNSt3__218__insertion_sort_3IRPFbPKN5IMGUI9GUIWindowES4_EPPS2_EEvT0_SA_T_
CVi:_GenericEqualityComparer_1_Equals_m1109000020_gshared
YBh:__ZL61GUISkin_t1436893342_CustomAttributesCacheGenerator_m_textAreaP21CustomAttributesCache
guc:__Z22TransferField_NonArrayI8JSONRead27Converter_SimpleNativeClassI8GUIStyleEEvRK23StaticTransferFieldInfoR31RuntimeSerializationCommandInfoRT0_
x6i:__ZN15dense_hashtableI10KeyWrapperIPK19Il2CppGenericMethodES4_N6il2cpp8metadata23Il2CppGenericMethodHashEN14dense_hash_setIS4_S7_NS4_14EqualsComparerINS6_26Il2CppGenericMethodCompareEEENSt3__29allocatorIS4_EEE8IdentityESB_SE_E16reset_thresholdsEv
WHe:__ZN23InterfaceActionInvoker2IP24ObjectU5BU5D_t3614634134iE6InvokeEjP11Il2CppClassP12Il2CppObjectS1_i
Pg:_llvm_eh_typeid_for
O3b:__Z13RegisterClassI10GameObjectEvv
C7i:__ZNK15dense_hashtableINSt3__24pairIK10KeyWrapperIN6il2cpp5utils13dynamic_arrayIPK10Il2CppTypeLj4EEEEPFvvEEESA_NS3_8metadata19Il2CppSignatureHashEN14dense_hash_mapISA_SD_SG_NSA_14EqualsComparerINSF_22Il2CppSignatureCompareEEENS0_9allocatorISE_EEE9SelectKeyESK_SM_E5beginEv
u9g:__ZL53HashValues_t2390200547_CustomAttributesCacheGeneratorP21CustomAttributesCache
usf:_X509BasicConstraintsExtension_get_PathLengthConstraint_m3004531343
y0h:_AnimatorControllerPlayable_INTERNAL_CALL_ResetTriggerString_m2112584758
Fy:__ZNK23AnimationPlayableOutput7GetTypeEv
cbh:__ZL125GenericTypeParameterBuilder_t1370236603_CustomAttributesCacheGenerator_GenericTypeParameterBuilder_GetConstructors_m103067670P21CustomAttributesCache
DPg:_Rect_get_max_m96665935
gzh:__ZL139AnimatorControllerPlayable_t1744083903_CustomAttributesCacheGenerator_AnimatorControllerPlayable_INTERNAL_CALL_HasStateInternal_m2282151484P21CustomAttributesCache
Yoe:_MissingMemberException__ctor_m4277447068
bIe:_List_1_Find_m1881447651_gshared
GAg:_StrongNameKeyPair_System_Runtime_Serialization_ISerializable_GetObjectData_m1693082120
o9b:__Z26scripting_class_has_parent17ScriptingClassPtrS_
bQb:__Z18Transfer_BlittableI18StreamedBinaryReadILb0EELb1E8Vector4fEvRK29SerializationCommandArgumentsR31RuntimeSerializationCommandInfo
KUi:_EqualityComparer_1__ctor_m3155445483_gshared
_zj:__ZN6il2cpp2vm6Method8GetParamEPK10MethodInfoj
Age:_Int64_CompareTo_m1953686218
ZUi:_GenericComparer_1__ctor_m221205314_gshared
mfg:__Z31RuntimeInvoker_Axis_t2427050347PFvvEPK10MethodInfoPvPS4_
Jsj:__ZN6il2cpp6icalls8mscorlib6System2IO6MonoIO4ReadE12Il2CppIntPtrP11Il2CppArrayiiPi
c$j:_glBindVertexArray__wrapper
RHf:_DSA_Create_m3450041777
Gma:__ZN8Material8TransferI14SafeBinaryReadEEvRT_
Lai:_Debug_LogWarningFormat_m79553173
hob:__ZN12CubemapArray17UploadToGfxDeviceEv
RTh:_ScrollRect_AdjustBounds_m1033723448
_qa:__ZN6prcoreL17RemapGenericFloatI15TexFormatRGHalf17TexFormatRGBAHalfEEvPKNS_9InnerInfoE
uFe:_Enumerator_System_Collections_IEnumerator_Reset_m2200349770_gshared
M$e:_Collection_1_get_Item_m3791221403_gshared
Sgh:__ZL54PaddingMode_t3032142640_CustomAttributesCacheGeneratorP21CustomAttributesCache
$oj:__ZN24dense_hashtable_iteratorINSt3__24pairIK10KeyWrapperIP11Il2CppClassES4_EES5_N6il2cpp8metadata16SZArrayClassHashEN14dense_hash_mapIS5_S4_SA_NS5_14EqualsComparerINS9_19SZArrayClassCompareEEENS0_9allocatorIS7_EEE9SelectKeyESE_SG_E30advance_past_empty_and_deletedEv
jog:_OrdinalComparer__ctor_m2952942058
gtf:_X509Chain_CheckRevocationOnChain_m2441901351
cEj:__ZN6il2cpp2vm13ManagedObject14QueryInterfaceERK10Il2CppGuidPPv
JQf:_Type_GetMethod_m3650909507
HJ:__ZN11AudioSource4StopEb
hNj:_frexp
aHb:__ZN14SafeBinaryRead21TransferSTLStyleArrayI13dynamic_arrayI10Matrix4x4fLj4EEEEvRT_17TransferMetaFlags
R$e:_Collection_1_CheckWritable_m732350052_gshared
Wwd:_Byte_System_IConvertible_ToDecimal_m1036493607
ujh:__ZL47Timer_t791717973_CustomAttributesCacheGeneratorP21CustomAttributesCache
Rga:__Z25GetSplashScreenBackgroundRK5RectTIfE
Nba:__ZN14dense_hash_mapIPKcPK4RTTIN11TypeManager23ConstCharPtrHashFunctorENS5_19ConstCharPtrEqualToE13stl_allocatorINSt3__24pairIKS1_S4_EEL18MemLabelIdentifier6ELi16EEEixERSB_
rKh:__ZL65Image_t2042527209_CustomAttributesCacheGenerator_m_PreserveAspectP21CustomAttributesCache
IUc:__ZN13RuntimeStaticI19UnityConnectServiceLb0EE16StaticInitializeEPv
Uvi:_DefaultComparer_Compare_m1247109616_gshared
adi:_ResourceManager__ctor_m498829021
nNa:__ZN18GlslGpuProgramGLESD2Ev
Pab:__ZN13RenderTexture14SetVolumeDepthEi
sig:__Z88RuntimeInvoker_Int32_t2071877448_UIVertex_t1204258818_UIVertex_t1204258818_RuntimeObjectPFvvEPK10MethodInfoPvPS4_
bEf:_SerializationCallbacks__ctor_m722356782
Muc:__ZN10Matrix4x4f8TransferI8JSONReadEEvRT_
qdh:__ZL49Marshal_t785896760_CustomAttributesCacheGeneratorP21CustomAttributesCache
G2:__ZN17PersistentManager18ReadObjectThreadedEi
CEa:__ZN25TransformFeedbackSkinning31CleanupTransformFeedbackShadersEv
xEj:__ZN6il2cpp6icalls8mscorlib6System7Runtime16CompilerServices14RuntimeHelpers15InitializeArrayEP11Il2CppArray12Il2CppIntPtr
EYa:__Z22scripting_object_unbox18ScriptingObjectPtr
kyc:__ZNK20TextRenderingPrivate8FontImpl19GetCharacterAdvanceEjijfPj
kKj:__ZN6il2cpp6icalls8mscorlib4Mono8Security12Cryptography18KeyPairPersistence16_IsUserProtectedEP12Il2CppString
T4h:_AudioClipPlayable_Equals_m2497502457
I5e:_ReadOnlyCollection_1_Contains_m3936562733_gshared
Iof:_DefaultUriParser__ctor_m4218024811
Prg:_DerivedType_GetField_m3960169619
jOd:_Decimal_System_IConvertible_ToInt16_m3159038792_AdjustorThunk
xWf:__Z59RuntimeInvoker_Int64_t909078037_RuntimeObject_RuntimeObjectPFvvEPK10MethodInfoPvPS4_
Rlg:__Z41RuntimeInvoker_KeyValuePair_2_t3716250094PFvvEPK10MethodInfoPvPS4_
Btb:__ZN10VertexData8TransferI18StreamedBinaryReadILb0EEEEvRT_
Jdg:__Z73RuntimeInvoker_Single_t2076509932_Vector4_t2243707581_Vector4_t2243707581PFvvEPK10MethodInfoPvPS4_
f$i:_OnCommandSentHandler__ctor_m3467892046
zAe:_PKCS12_GetExistingParameters_m2413397265
J0i:_Nullable_1_get_Value_m1743067844_gshared
c_e:_Collection_1_ClearItems_m4268731177_gshared
$ab:__ZN14PreloadManager16UpdatePreloadingEv
djb:__ZN12BaseRendererD2Ev
gYj:_emscripten_glGenVertexArrays__wrapper
kEi:_X509CertificateCollection__ctor_m858704242
uGe:_Enumerator__ctor_m425576865_AdjustorThunk
J7e:_ReadOnlyCollection_1_System_Collections_IList_Contains_m1545447998_gshared
zBj:__ZN14dense_hash_mapI10KeyWrapperIPK19Il2CppGenericMethodEP10MethodInfoN6il2cpp8metadata23Il2CppGenericMethodHashENS4_14EqualsComparerINS8_26Il2CppGenericMethodCompareEEENSt3__29allocatorINSD_4pairIKS4_S6_EEEEEC2EjRKS9_RKSC_
egb:__ZNK21UnityDefaultAllocatorI17LowLevelAllocatorE8ContainsEPKv
raj:__ZNSt3__213__vector_baseI6pollfdNS_9allocatorIS1_EEED2Ev
Pgf:_ClientSessionInfo_get_Id_m3046630969
Yh:_emscripten_get_main_loop_timing
Wie:_DirectoryInfo__ctor_m3750996792
lfd:_BaseMeshEffect_ModifyMesh_m2134816219
g4d:_Array_qsort_TisVector2_t2243707579_m3527759534_gshared
vsb:__ZN24GenerateTypeTreeTransfer21TransferSTLStyleArrayINSt3__26vectorIN15QualitySettings14QualitySettingENS1_9allocatorIS4_EEEEEEvRT_17TransferMetaFlags
iHi:_ResourceRequest_t2560315377_marshal_pinvoke_cleanup
g8d:_Array_InternalArray__get_Item_TisAnimatorClipInfo_t3905751349_m2163447872_gshared
fPe:_List_1_System_Collections_Generic_IEnumerableU3CTU3E_GetEnumerator_m166627113_gshared
cyb:__ZNSt3__26vectorI9InputAxisNS_9allocatorIS1_EEE6resizeEj
IZd:__ZN21InterfaceFuncInvoker2Ii19Vector2_t2243707579S0_E6InvokeEjP11Il2CppClassP12Il2CppObjectS0_S0_
IZa:__ZN13BatchRendererC2ER15RenderLoopStatsRK15RenderNodeQueuebbb
g2c:_SecurityElement_IsValidAttributeValue_m483287146
MXb:__ZNK2UI13RectTransform22GetTypeVirtualInternalEv
Ijh:__ZL56AppDomainSetup_t611332832_CustomAttributesCacheGeneratorP21CustomAttributesCache
op:getTempRet0
Csd:_ArithmeticException__ctor_m104771799
hhg:__Z79RuntimeInvoker_Boolean_t3825574718_ContentTypeU26_t1802785839_Int32_t2071877448PFvvEPK10MethodInfoPvPS4_
Hpg:_AssemblyTitleAttribute__ctor_m1696431446
Nnd:_Image_AddQuad_m1603575622
dCj:__ZN24dense_hashtable_iteratorINSt3__24pairIK10KeyWrapperIPK19Il2CppGenericMethodEP10MethodInfoEES6_N6il2cpp8metadata23Il2CppGenericMethodHashEN14dense_hash_mapIS6_S9_SD_NS6_14EqualsComparerINSC_26Il2CppGenericMethodCompareEEENS0_9allocatorISA_EEE9SelectKeyESH_SJ_E30advance_past_empty_and_deletedEv
cdf:_PrivateKeyInfo_RemoveLeadingZero_m3396807048
y1e:_ReadOnlyCollection_1_System_Collections_Generic_ICollectionU3CTU3E_get_IsReadOnly_m1251192075_gshared
UHe:_List_1_GrowIfNeeded_m185971996_gshared
kqj:__ZN6il2cpp6icalls8mscorlib6System9ThreadingL21lookup_cached_cultureEP12Il2CppThreadi
i4a:__ZN18DeferredRenderLoopD2Ev
Utg:_GenericTypeParameterBuilder_GetMethods_m1243855818
qja:__ZNK16TypeTreeIterator4NameEv
GFh:__ZL90PlayableBinding_t2498078091_CustomAttributesCacheGenerator_U3CstreamTypeU3Ek__BackingFieldP21CustomAttributesCache
F5:__ZN15FileSystemEntry3SetEPKc
Vui:_InternalEnumerator_1__ctor_m2808001655_gshared
DYc:_MACTripleDES__ctor_m884945242
fbc:__Z52Register_UnityEngine_Application_set_targetFrameRatev
hL:__ZN20SoundChannelInstance15ParameterBuffer5ApplyEPN4FMOD7ChannelE
j_h:_AnimationMixerPlayable_GetHandle_m277863172_AdjustorThunk
hyc:__ZN20TextRenderingPrivate19NativeTextGenerator9InsertTabEv
e6g:__ZL73Enum_t2459695545_CustomAttributesCacheGenerator_Enum_ToObject_m1688724857P21CustomAttributesCache
aDg:_Rect_set_y_m4294916608
QRc:__ZN11UnityEngine15PlatformWrapper24GetRuntimePlatformStringEv
Hi:_glIsEnabled
RRb:__ZN15CacheWriterBaseD2Ev
CMh:__ZL56Slider_t297367283_CustomAttributesCacheGenerator_m_ValueP21CustomAttributesCache
MCb:__Z25scripting_class_get_image17ScriptingClassPtr
juh:__ZL85Material_t193706927_CustomAttributesCacheGenerator_Material_GetTextureImpl_m623159197P21CustomAttributesCache
Li:_emscripten_glDrawElementsInstanced
wx:__ZN26AnimatorControllerPlayable27SetupStateMachineBehavioursEv
Ebf:_ARC4Managed_Dispose_m4102232694
Ybf:_HMAC_Initialize_m3052649104
Hrf:_OidCollection_get_Item_m1091387424
HXb:__ZN9Transform17MainThreadCleanupEv
HGj:_GC_clear_hdr_marks
aWj:_glScissor__wrapper
_$j:_emscripten_glCreateShader__wrapper
pod:_InputField_get_caretSelectPositionInternal_m3523572533
iGc:_cff_fd_select_get
Wch:__ZL73CompilationRelaxationsAttribute_t238494011_CustomAttributesCacheGeneratorP21CustomAttributesCache
_Ah:__ZL95CanvasRenderer_t261436805_CustomAttributesCacheGenerator_CanvasRenderer_SetMaterial_m1462355522P21CustomAttributesCache
zXh:_Text_get_minHeight_m1562513104
j0c:_SHA512Managed_processBlock_m3220567420
Xnf:_NameObjectCollectionBase_get_Keys_m446053925
Vi:_emscripten_glGetShaderiv
_Ug:_Transform_1__ctor_m353209818_gshared
Ffg:__Z30RuntimeInvoker_Axis_t375128448PFvvEPK10MethodInfoPvPS4_
jM:__ZN4FMOD6System10getVersionEPj
vje:_FileLoadException_GetObjectData_m2047020314
TDh:__ZL96RemoteSettings_t392466225_CustomAttributesCacheGenerator_RemoteSettings_CallOnUpdate_m1624968574P21CustomAttributesCache
R_d:_Array_InternalArray__IndexOf_TisSByte_t454417549_m1427585061_gshared
SLc:__ZN2UI6Canvas23VirtualRedirectTransferER24GenerateTypeTreeTransfer
FGd:_Decimal_u64_m3991988111
LNi:_YieldInstruction_t3462875981_marshal_pinvoke
o1i:_Predicate_1_BeginInvoke_m2959352225_gshared
y$g:_Dictionary_2_CopyToCheck_m2147716750_gshared
EEi:_X509Certificate_Parse_m1764345628
Rwc:__ZN13TextRendering4Font13AwakeFromLoadE17AwakeFromLoadMode
Zdg:__Z70RuntimeInvoker_Void_t1841601450_Guid_t_RuntimeObject_Int32_t2071877448PFvvEPK10MethodInfoPvPS4_
yBa:__ZN9GfxDevice21ReleaseSharedMeshDataEP14SharedMeshData
OBe:_SmallXmlParser_Peek_m2814840810
Tyb:__ZNSt3__27__sort5IRNS_6__lessINS_4pairIPKN5Unity4TypeE7Hash128EES8_EEPS8_EEjT0_SC_SC_SC_SC_T_
YYe:_Collection_1_ConvertItem_m3168406667_gshared
EPi:_UnityAction_1_EndInvoke_m2822290096_gshared
OFj:_GC_unreachable_finalize_mark_proc
$5h:_AudioPlayableOutput_op_Implicit_m530962771
Xfg:__Z70RuntimeInvoker_Single_t2076509932_Int32_t2071877448_Single_t2076509932PFvvEPK10MethodInfoPvPS4_
jhg:__Z77RuntimeInvoker_Boolean_t3825574718_InputTypeU26_t4050577942_Int32_t2071877448PFvvEPK10MethodInfoPvPS4_
PXe:_Collection_1_System_Collections_ICollection_get_SyncRoot_m2547259708_gshared
rji:_ConstructionCall_GetObjectData_m3974358557
Xgc:__Z43RectTransform_CUSTOM_INTERNAL_get_anchorMaxP12Il2CppObjectP13Vector2fIcall
dYf:__Z50RuntimeInvoker_Void_t1841601450_Single_t2076509932PFvvEPK10MethodInfoPvPS4_
pNd:_DateTimeOffset_get_DateTime_m229084964_AdjustorThunk
tma:__ZN8Material28UpdateHashesOnPropertyChangeEN9ShaderLab16FastPropertyNameE
Hhc:__Z53Register_UnityEngine_SortingLayer_GetLayerValueFromIDv
qie:_DirectoryInfo_get_Parent_m1198766078
MTi:_EqualityComparer_1_System_Collections_IEqualityComparer_Equals_m349194518_gshared
cCd:_CaseInsensitiveComparer_Compare_m1192858479
aFb:__Z18Transfer_BlittableI14SafeBinaryReadLb1E8Vector4fEvRK29SerializationCommandArgumentsR31RuntimeSerializationCommandInfo
eme:_StreamAsyncResult_set_Done_m4272090534
gsd:_LayoutRebuilder_Clear_m2390054824
iZe:_Collection_1_System_Collections_IList_Insert_m2968289909_gshared
HDa:__ZN13GfxDeviceGLES20SetComputeBufferDataE15ComputeBufferIDPKvjj
$pg:_Default_SelectMethod_m622251293
pO:__ZN11AudioSource12AddToManagerEv
ss:__ZN8Animator23VirtualRedirectTransferER19StreamedBinaryWriteILb0EE
Zii:_AsyncResult_get_NextSink_m1172723924
az:__ZN11UnityEngine9Animation32CreateAnimatorGenericBindingsOptERKNS0_20AnimationSetBindingsER9TransformPKN7mecanim9animation14AvatarConstantEPKNS0_21AvatarBindingConstantEbRNS6_6memory9AllocatorER8Animator
kuj:__ZN6il2cpp2vm5Image13ClassFromNameEPK11Il2CppImagePKcS6_
_Rj:dynCall_vdddddd
PUb:__ZN24GenerateTypeTreeTransfer21TransferSTLStyleArrayINSt3__26vectorIN9ShaderLab14SerializedPassENS1_9allocatorIS4_EEEEEEvRT_17TransferMetaFlags
A1:__ZL32MarkLevelGameManagerDependenciesR27GarbageCollectorThreadState
ODa:__ZNK13GfxDeviceGLES26HasActiveRandomWriteTargetEv
wWc:__ZN20UnityWebRequestProtoI19TransportJavaScript16AtomicRefCounter14RedirectHelper14ResponseHelper15DownloadHandler13UploadHandler12HeaderHelper14AsyncOperationE5BeginEv
TWj:_glGetActiveUniformsiv__wrapper
Ehc:__Z43Register_UnityEngine_Material_EnableKeywordv
K3:__ZN13MonoBehaviour19SetupScriptingCacheE17ScriptingClassPtrP10MonoScript
Kaj:__ZNSt3__214__split_bufferIP12Il2CppThreadRNS_9allocatorIS2_EEED2Ev
vr:__Z20AnimationEventToMonoRK14AnimationEventR18MonoAnimationEvent
Eth:__ZL85Mesh_t1356156583_CustomAttributesCacheGenerator_Mesh_ExtractArrayFromList_m1349408169P21CustomAttributesCache
r2:__ZNK15dense_hashtableINSt3__24pairIKiiEEi21InstanceIDHashFunctorN14dense_hash_mapIiiS4_NS0_8equal_toIiEE13stl_allocatorIS3_L18MemLabelIdentifier1ELi16EEE9SelectKeyES7_SA_E13find_positionERS2_
AQh:_Navigation_get_selectOnLeft_m3980387574_AdjustorThunk
VTg:_ShimEnumerator_get_Current_m3610131784_gshared
JSe:_List_1_Sort_m2158253314_gshared
lFh:__ZL74UnityEventBase_t828812576_CustomAttributesCacheGenerator_m_PersistentCallsP21CustomAttributesCache
Gaa:__ZZN15DirectorManager15InitializeClassEvEN52PreLateUpdateDirectorUpdateAnimationBeginRegistrator7ForwardEv
e0g:_DefaultComparer__ctor_m2265472997_gshared
lsj:__ZN6il2cpp2vm13LivenessState18ShouldProcessValueEP12Il2CppObjectP11Il2CppClass
phb:__ZN4PPtrI6SpriteE8TransferI14SafeBinaryReadEEvRT_
Wsg:_EnumBuilder_GetElementType_m1228393631
q1f:__Z52RuntimeInvoker_Void_t1841601450_TimeSpan_t3430258949PFvvEPK10MethodInfoPvPS4_
foj:__ZN15dense_hashtableINSt3__24pairIK10KeyWrapperIP11Il2CppClassES4_EES5_N6il2cpp8metadata16SZArrayClassHashEN14dense_hash_mapIS5_S4_SA_NS5_14EqualsComparerINS9_19SZArrayClassCompareEEENS0_9allocatorIS7_EEE9SelectKeyESE_SG_E16reset_thresholdsEv
qNg:_PlayableHandle_GetInputCountInternal_m2692879798
lUb:__ZNSt3__26vectorIN9ShaderLab14SerializedPassENS_9allocatorIS2_EEE8__appendEj
DTb:__ZNSt3__26vectorIN9ShaderLab20SerializedSubProgram13BufferBindingENS_9allocatorIS3_EEEC2INS_11__wrap_iterIPS3_EEEET_SB_RKS5_PNS_9enable_ifIXaasr21__is_forward_iteratorISB_EE5valuesr16is_constructibleIS3_NS_15iterator_traitsISB_E9referenceEEE5valueEvE4typeE
phf:_Context_get_SupportedCiphers_m2172827298
aea:__ZNK13ScreenManager21IsMultiDisplayEnabledEv
egg:__Z133RuntimeInvoker_RuntimeObject_Vector2_t2243707579_Vector2_t2243707579_Single_t2076509932_Int32_t2071877448_RuntimeObject_RuntimeObjectPFvvEPK10MethodInfoPvPS4_
Bpb:__ZN9Texture2D23VirtualRedirectTransferER18StreamedBinaryReadILb0EE
SQd:_Double_System_IConvertible_ToUInt16_m286326038_AdjustorThunk
lCf:_TypeInfo__ctor_m1475908211
r5i:__ZN30dense_hashtable_const_iteratorINSt3__24pairIK10KeyWrapperIPKcEP11Il2CppClassEES5_N6il2cpp5utils11StringUtils12StringHasherIS4_EEN14dense_hash_mapIS5_S8_SE_NS5_14EqualsComparerINSB_13VmStringUtils21CaseSensitiveComparerEEENS0_9allocatorIS9_EEE9SelectKeyESJ_SL_E30advance_past_empty_and_deletedEv
Rib:__ZNSt3__26__treeINS_12__value_typeIN4core12basic_stringIcNS2_20StringStorageDefaultIcEEEEjEENS_19__map_value_compareIS6_S7_NS_4lessIS6_EELb1EEE13stl_allocatorIS7_L18MemLabelIdentifier6ELi16EEE7destroyEPNS_11__tree_nodeIS7_PvEE
q4:__ZN16ScriptingManager27NativeTypeForScriptingClassE17ScriptingClassPtr
htf:_X509Chain_WrapUp_m1072032285
_Fi:_X509CertificateEnumerator_System_Collections_IEnumerator_MoveNext_m1448966539
kDc:_get_sfnt_table
Dgf:_TlsServerHelloDone__ctor_m2125611008
SGg:_GUIStyle_GetNumCharactersThatFitWithinWidth_m3760066083
Wbd:_PointerEventData_set_pressPosition_m2094137883
arb:__ZN8Renderer20RendererAddedToSceneEv
zHf:_DES_get_Key_m2584608215
w5a:__ZL22ScheduleSceneNodesJobsP25ScheduleSceneNodesJobDataj
Jk:_emscripten_set_canvas_size
wDd:_Hashtable__ctor_m741952536
VTb:__ZNSt3__26vectorIN9ShaderLab20SerializedSubProgramENS_9allocatorIS2_EEE8__appendEj
o_:__ZN20DynamicHeapAllocatorI17LowLevelAllocatorE8AllocateEji
i_a:__ZN20DynamicPropertySheet15SetVectorQueuedERKN9ShaderLab16FastPropertyNameERK8Vector4fN19ShaderPropertySheet8SetFlagsE
Pyh:__ZL138AnimatorControllerPlayable_t1744083903_CustomAttributesCacheGenerator_AnimatorControllerPlayable_PlayInFixedTime_m1932606764____fixedTime2P21CustomAttributesCache
MAe:_PKCS12_get_IterationCount_m3572300030
Z6g:__ZL69RuntimeArray_CustomAttributesCacheGenerator_Array_Reverse_m3883292526P21CustomAttributesCache
u5e:_ReadOnlyCollection_1_System_Collections_IEnumerable_GetEnumerator_m4248982967_gshared
bA:__ZN7mecanim9animation22EvaluateAvatarRetargetEPKNS0_14AvatarConstantEPKNS0_11AvatarInputEPNS0_12AvatarOutputEPNS0_12AvatarMemoryEPNS0_15AvatarWorkspaceEb
qsd:_LayoutRebuilder_GetHashCode_m2745108660
umb:__ZN14RenderSettings23VirtualRedirectTransferER19StreamedBinaryWriteILb0EE
_qc:__ZL26Transfer_SimpleNativeClassI9JSONWrite10RectOffsetLb0EEvRK29SerializationCommandArgumentsR31RuntimeSerializationCommandInfo
oOg:_ScriptPlayableOutput_GetHandle_m849642920_AdjustorThunk
$Ga:__ZN17GenericDynamicVBO10AllocateVBEjR21DynamicVBOChunkHandle
sJe:_List_1_get_Item_m1547593893_gshared
Hie:_Path_GetPathRoot_m1269357080
Nvj:__ZN30dense_hashtable_const_iteratorI10KeyWrapperIP18Il2CppGenericClassES3_N6il2cpp8metadata22Il2CppGenericClassHashEN14dense_hash_setIS3_S6_NS3_14EqualsComparerINS5_25Il2CppGenericClassCompareEEENSt3__29allocatorIS3_EEE8IdentityESA_SD_EppEv
cDd:_KeyNotFoundException__ctor_m264393096
lad:_EventSystem_SetSelectedGameObject_m2211816110
kVg:_Transform_1__ctor_m4161450529_gshared
gl:_glMapBufferRange
tpb:__ZN9Texture2D8TransferI18StreamedBinaryReadILb0EEEEvRT_
yec:__Z31Input_CUSTOM_GetMouseButtonDowni
B7f:__Z41RuntimeInvoker_HandshakeState_t1820731088PFvvEPK10MethodInfoPvPS4_
zgc:__Z75Register_UnityEngine_Playables_PlayableHandle_INTERNAL_CALL_IsValidInternalv
D4b:__ZN13PlayableGraph4PlayEv
cYa:__ZNK9Transform16GetLocalPositionEv
_sh:__ZL89Input_t1785128008_CustomAttributesCacheGenerator_Input_get_imeCompositionMode_m4250689464P21CustomAttributesCache
Tsd:_Array_System_Collections_ICollection_get_Count_m2897196527
lya:__ZN13LoadOperation19IntegrateTimeSlicedEi
bki:_ArrayReadOnlyList_1_get_Item_m176001975_gshared
Xwf:_InterpreterFactory__ctor_m3331468903
eBe:_X501__cctor_m3795360380
ZDa:__ZN13GfxDeviceGLES22DispatchComputeProgramE12ObjectHandleI18ComputeProgram_TagPvE15ComputeBufferIDj
oHg:_GUIStyle_set_contentOffset_m2138084868
VWe:_Collection_1_System_Collections_ICollection_CopyTo_m4193844941_gshared
$1f:__Z60RuntimeInvoker_Void_t1841601450_StreamingContext_t1417235061PFvvEPK10MethodInfoPvPS4_
qJd:_Convert_ToInt32_m2297793940
twa:__Z17TransformAABBSlowRK4AABBRK10Matrix4x4fRS_
oqb:__ZN15SerializeTraitsI13dynamic_arrayI7Hash128Lj8EEE19ResizeSTLStyleArrayERS2_i18MemLabelIdentifier
Vsf:_X509Chain_Build_m1140429528
FSb:__ZN9ShaderLab21SerializedShaderState8TransferI14SafeBinaryReadEEvRT_
_$i:_Terminal_NotifyCommandHandlers_m2901839470
i$c:_RSAPKCS1SignatureFormatter_SetKey_m2365816458
yee:_Int16_GetHashCode_m304503362_AdjustorThunk
fHc:_cf2_stack_pushInt
lD:__ZN7mecanim9animation20DestroyLayerConstantEPNS0_13LayerConstantERNS_6memory9AllocatorE
oMf:_CompressedStack__ctor_m276924800
Abd:_ExecuteEvents_get_cancelHandler_m1964324668
Bna:__ZN15SerializeTraitsINSt3__24pairIN4core12basic_stringIcNS2_20StringStorageDefaultIcEEEES6_EEE8TransferI24GenerateTypeTreeTransferEEvRS7_RT_
RNg:_PlayableOutput__ctor_m3826671654_AdjustorThunk
RJg:_Matrix4x4__ctor_m2771358574_AdjustorThunk
PBh:__ZL70GUISettings_t622856320_CustomAttributesCacheGenerator_m_SelectionColorP21CustomAttributesCache
CYj:b81
BYj:b80
eLa:__ZN7ApiGLES19CreateSparseTextureEjj14GraphicsFormatiiiiRiS1_S1_
W4:__ZN18ResourceImageGroup7CleanupEv
MYj:b85
LYj:b84
UYj:b87
TYj:b86
lq:__ZN11Quaternionf8TransferI24GenerateTypeTreeTransferEEvRT_
pug:_GenericTypeParameterBuilder_get_DeclaringType_m1652924692
y2b:__ZN13ProduceHelperI4MeshLb0EE7ProduceE18MemLabelIdentifier18ObjectCreationMode
adf:_PrivateKeyInfo_Decode_m1053025782
Nuf:_X509ChainElementCollection_System_Collections_ICollection_CopyTo_m1467895312
hAe:_PKCS12_Decrypt_m2457743414
Lzh:__ZL87Animator_t69676727_CustomAttributesCacheGenerator_Animator_SetTriggerString_m2002790359P21CustomAttributesCache
gnb:__ZN8Playable19SetOutputConnectionEPS_i
I4i:__ZN15dense_hashtableINSt3__24pairIK10KeyWrapperIPK11Il2CppClassEPKcEES6_N6il2cpp5utils11PointerHashIS3_EEN14dense_hash_mapIS6_S9_SE_NS6_14EqualsComparerINS0_8equal_toIS5_EEEENS0_9allocatorISA_EEE9SelectKeyESJ_SL_EC2ERKSO_j
Vl:_glDeleteShader
JSd:_Exception_GetType_m3898489832
Vqa:__ZN6prcoreL17RemapGenericFloatI15TexFormatRGHalf16TexFormatRGFloatEEvPKNS_9InnerInfoE
WTe:_Stack_1_Peek_m1548778538_gshared
qNi:_Vector4_Dot_m2285943745
vVh:_Shadow_set_effectColor_m3110056844
bac:__Z27scripting_add_internal_callPKcPKv
s2d:_Array_InternalArray__Insert_TisUriScheme_t1876590943_m2728325409_gshared
bCh:__ZL72GUISkin_t1436893342_CustomAttributesCacheGenerator_m_verticalSliderThumbP21CustomAttributesCache
Lmj:__ZN13Il2CppHashMapINSt3__24pairIPK9EventInfoP11Il2CppClassEEj17ReflectionMapHashIS7_ENS0_8equal_toIS7_EENS0_9allocatorINS1_IK10KeyWrapperIS7_EjEEEEEC2EjRKS9_RKSB_
rwj:__GLOBAL__sub_I_GarbageCollector_cpp
n0:__Z17GetPlayerSettingsv
CA:__ZN34BlobWriteTransferSTLStyleArrayImplI22OffsetPtrArrayTransferIiEEclERS1_17TransferMetaFlagsR9BlobWrite
lGi:_X509Store_CheckStore_m1027496478
qch:__ZL82MethodBase_t904190842_CustomAttributesCacheGenerator_MethodBase_Invoke_m1075809207P21CustomAttributesCache
Js:__ZN26AnimatorControllerPlayable18SetLayerAutoWeightEv
Nb:invoke_vffff
NPj:__ZNSt3__212basic_stringIcNS_11char_traitsIcEENS_9allocatorIcEEEC2ERKS5_jjRKS4_
F6c:_String_Contains_m4017059963
J5d:_Array_swap_TisCustomAttributeNamedArgument_t94157543_TisCustomAttributeNamedArgument_t94157543_m3600072996_gshared
yvi:_DefaultComparer_Compare_m1606207039_gshared
dOc:__ZN2UI14CanvasRenderer12SyncMaterialENS0_8SyncFlagE
yyh:__ZL137AnimatorControllerPlayable_t1744083903_CustomAttributesCacheGenerator_AnimatorControllerPlayable_CrossFade_m3794224188____normalizedTime3P21CustomAttributesCache
ZJj:__ZN6il2cpp2vm9Parameter30GetDefaultParameterValueObjectEPK10MethodInfoPK13ParameterInfoPb
jTi:_Action_EndInvoke_m4281032350
sZb:__ZN15dense_hashtableINSt3__24pairIKN4core12basic_stringIcNS2_20StringStorageDefaultIcEEEE10vector_setI4PPtrI11SpriteAtlasENS0_4lessISB_EE13stl_allocatorISB_L18MemLabelIdentifier79ELi16EEEEES6_20StringHash32FunctionIS6_EN14dense_hash_mapIS6_SH_SK_NS0_8equal_toIS6_EESE_ISI_LSF_79ELi16EEE9SelectKeyESN_SO_E12maybe_shrinkEv
g3d:_Array_InternalArray__set_Item_TisLabelData_t3712112744_m2253365137_gshared
Txg:_MonoCMethod_get_Attributes_m3914742834
Asi:_InternalEnumerator_1__ctor_m142220063_AdjustorThunk
RKg:_MonoBehaviour_Invoke_m666563676
srg:_ConstructorBuilder_get_DeclaringType_m4264602248
Tjf:_RecordProtocol_InternalReceiveRecordCallback_m2228921492
Yme:_StringReader__ctor_m643998729
Dpf:_IPv6Address_TryParse_m2220524278
$rd:_U3CDelayedSetDirtyU3Ec__Iterator0_System_Collections_Generic_IEnumeratorU3CobjectU3E_get_Current_m2210283424
Quh:__ZL86Time_t31991979_CustomAttributesCacheGenerator_Time_get_realtimeSinceStartup_m357614587P21CustomAttributesCache
bDc:_UNITY_tt_face_done_kern
lhi:_Context_get_DefaultContext_m2211922324
lqg:_CustomAttributeData_get_NamedArguments_m708818174
Dnc:__Z59GUIStyle_CUSTOM_Internal_GetNumCharactersThatFitWithinWidth13Il2Cpp_IntPtrP12Il2CppStringf
Mvb:__ZN12BoneWeights48TransferI24GenerateTypeTreeTransferEEvRT_
rdf:_RSAManaged_GetPaddedValue_m2972141669
iG:__Z62AnimationPlayableOutput_CUSTOM_INTERNAL_CALL_InternalSetTargetR15HPlayableOutputP12Il2CppObject
Jif:_TlsServerCertificate_ProcessAsSsl3_m277089231
GYd:_Array_InternalArray__IEnumerable_GetEnumerator_TisUInt16_t986882611_m3665860884_gshared
cga:__Z19scripting_gc_enablev
cWc:__ZN20UnityWebRequestProtoI19TransportJavaScript16AtomicRefCounter14RedirectHelper14ResponseHelper15DownloadHandler13UploadHandler12HeaderHelper14AsyncOperationE9DoRequestEv
NTa:__ZZ23InitPlayerLoopCallbacksvEN41InitializationPlayerUpdateTimeRegistrator7ForwardEv
DAi:_AnchorInfo__ctor_m617409099
rcb:__Z29StdTemplateConversionFunctionIihEbPvR14SafeBinaryRead
Vtg:_GenericTypeParameterBuilder_GetMethodImpl_m528545634
ZPc:__Z55Register_UnityEngine_CanvasRenderer_DisableRectClippingv
Cxf:_Interval_CompareTo_m2909556284_AdjustorThunk
fvb:__ZN14SafeBinaryRead21TransferSTLStyleArrayI13dynamic_arrayI11ColorRGBA32Lj4EEEEvRT_17TransferMetaFlags
NFh:__ZL61PlayableExtensions_t2358977238_CustomAttributesCacheGeneratorP21CustomAttributesCache
lOa:__ZN9GfxDevice22UploadTextureCubeArrayE9TextureIDPKhjii14GraphicsFormati18TextureUploadFlags
F6g:__ZL87RuntimeArray_CustomAttributesCacheGenerator_Array_CreateInstance_m679102425____lengths1P21CustomAttributesCache
WFh:__ZL83Logger_t3328995178_CustomAttributesCacheGenerator_Logger_get_logHandler_m4190583509P21CustomAttributesCache
M4h:_AudioClip_get_length_m3881628918
oQh:_Navigation_t1571958496_marshal_pinvoke
twf:_Interpreter_GetLastDefined_m2450713313
Uzi:_Parser_ParseAssertionType_m3316669790
pWb:__ZN9ShaderLab7Program27CreateFromSerializedProgramERKNS_17SerializedProgramE10ShaderTypeiP16PropertyNamesSetPK6Shader
YUh:_Selectable_get_isPointerDown_m774209881
i6g:__ZL73Enum_t2459695545_CustomAttributesCacheGenerator_Enum_ToObject_m2460371738P21CustomAttributesCache
BXb:__ZNSt3__27__sort4IRNS_6__lessIN4core12basic_stringIcNS2_20StringStorageDefaultIcEEEES6_EEPS6_EEjT0_SA_SA_SA_T_
ISj:dynCall_viiiifii
vCf:_TypeInfo__ctor_m1219583114
nlj:__ZN6il2cpp2gc19AppendOnlyGCHashMapINSt3__24pairIPK11Il2CppImageP11Il2CppClassEEP22Il2CppReflectionModule17ReflectionMapHashIS9_ENS2_8equal_toIS9_EEEC2Ev
D2:__Z20GetPersistentManagerv
sKc:_UNITY_TT_Set_Var_Design
khi:_Context_Finalize_m1386439645
uda:__ZN21SystemInfoStringCache16StaticInitializeEPv
Oef:_TlsStream__ctor_m4117943603
aij:__ZN15dense_hashtableINSt3__24pairIK10KeyWrapperIPK10Il2CppTypeEjEES6_N6il2cpp8metadata14Il2CppTypeHashEN14dense_hash_mapIS6_jSB_NS6_14EqualsComparerINSA_26Il2CppTypeEqualityComparerEEENS0_9allocatorIS8_EEE9SelectKeyESF_SH_E12maybe_shrinkEv
NWh:_Text_FontTextureChanged_m4236993972
RAj:__ZN6il2cpp2gc16GarbageCollector23MakeDescriptorForObjectEPji
ywj:__ZNK10KeyWrapperIP12Il2CppObjectE14EqualsComparerINSt3__28equal_toIS1_EEEclERKS2_S9_
uAg:_ParameterModifier_t1820634920_marshal_pinvoke
OBb:__ZNK13MonoBehaviour7GetNameEv
Dsa:__ZN19ScriptingInvocation28AdjustArgumentsToMatchMethodEv
Zvj:__ZN15dense_hashtableI10KeyWrapperIP18Il2CppGenericClassES3_N6il2cpp8metadata22Il2CppGenericClassHashEN14dense_hash_setIS3_S6_NS3_14EqualsComparerINS5_25Il2CppGenericClassCompareEEENSt3__29allocatorIS3_EEE8IdentityESA_SD_E6insertERKS3_
oQ:__Z15_CheckFMODError11FMOD_RESULTPKciS1_
M8c:_AbstractEventData_Use_m1797212290
Klb:__Z20RenderMultipleMeshesRK15RenderNodeQueueRK18RenderMultipleData17ShaderChannelMask
LJh:__ZL150U3CDelayedDestroyDropdownListU3Ec__Iterator0_t3461999471_CustomAttributesCacheGenerator_U3CDelayedDestroyDropdownListU3Ec__Iterator0_Reset_m3485957852P21CustomAttributesCache
eXf:__Z199RuntimeInvoker_Void_t1841601450_ByteU2AU26_t3544685828_ByteU2AU26_t3544685828_DoubleU2AU26_t3349029_UInt16U2AU26_t1636670495_UInt16U2AU26_t1636670495_UInt16U2AU26_t1636670495_UInt16U2AU26_t1636670495PFvvEPK10MethodInfoPvPS4_
uzh:__ZL135AnimatorControllerPlayable_t1744083903_CustomAttributesCacheGenerator_AnimatorControllerPlayable_INTERNAL_CALL_SetTriggerID_m1169129620P21CustomAttributesCache
igj:__ZN6il2cpp2vm4Type19GetGenericParameterEPK10Il2CppType
zPc:__Z51Register_UnityEngine_CanvasGroup_get_blocksRaycastsv
Tti:_InternalEnumerator_1_get_Current_m2826780083_gshared
q0j:b119
yhi:_Context_UnregisterDynamicProperty_m4064851633
Juc:__ZN8JSONRead21TransferSTLStyleArrayI13dynamic_arrayI11ColorRGBA32Lj4EEEEvRT_18MemLabelIdentifier17TransferMetaFlags
lOh:__ZL105LayoutUtility_t4076838048_CustomAttributesCacheGenerator_LayoutUtility_U3CGetMinHeightU3Em__4_m1769295917P21CustomAttributesCache
P$g:_Dictionary_2_GetEnumerator_m1752238884_gshared
wjj:__ZNK15dense_hashtableINSt3__24pairIK10KeyWrapperINS1_IPK11Il2CppImageP11Il2CppClassEEEjEES9_17ReflectionMapHashIS8_EN14dense_hash_mapIS9_jSD_NS9_14EqualsComparerINS0_8equal_toIS8_EEEENS0_9allocatorISB_EEE9SelectKeyESI_SK_E3endEv
evi:_InternalEnumerator_1__ctor_m2782443954_AdjustorThunk
Ad:_glBeginQuery
Pog:_Assembly_GetCustomAttributes_m95309865
lCg:_GUILayoutUtility_INTERNAL_CALL_Internal_GetWindowRect_m3236664463
GVa:__ZN6Camera12RenderStereoENS_10RenderFlagE8CullFlagPNS_24PerformEyeRenderFunctionE
tea:__ZN20LocalFileSystemPosix10ToAbsoluteEPKc
Alb:__ZN20TierGraphicsSettings8TransferI19StreamedBinaryWriteILb0EEEEvRT_
uGd:_Convert_ToBoolean_m48997236
$Rd:_Enum_ToObject_m275924358
Dm:f0
pp:__ZN6Object17MainThreadCleanupEv
iAd:_ArrayListWrapper_set_Capacity_m2792463350
$kb:__Z32TransferEnumWithNameForceIntSizeI14SafeBinaryRead7HDRModeEvRT_RT0_PKc17TransferMetaFlags
cOj:_getcwd
sKf:_StringBuilder_Append_m1128243247
EAi:_AnchorInfo_get_Offset_m142119297
K$h:_AnimatorControllerPlayable_GetBool_m3606320557
Pfb:__ZN25ThreadsafeLinearAllocatorD2Ev
eLd:_DateTime_get_Year_m1985210972
Bga:__Z21SendMessageToEveryoneRK17MessageIdentifier11MessageData
kFg:_GUISkin_get_settings_m626844463
D8:__ZN21BillboardBatchManager16StaticInitializeEPv
oFg:_Object_get_name_m2079638459
x$:__ZN12_GLOBAL__N_138ArchiveRedirectFileSystemStaticDestroyEPv
EOi:_InvokableCall_1_add_Delegate_m3048312905_gshared
ASd:_EventHandler_Invoke_m1137722757
eob:__ZN12CubemapArray34UpdateFileTextureUploadInstructionEP26FileAssetUploadInstructionj
tqe:_MonoType_IsSubclassOf_m2211166238
OAg:_TypeFilter_EndInvoke_m997625354
rYe:_Collection_1_System_Collections_ICollection_CopyTo_m2859266050_gshared
dLa:__Z23CreateSparseTextureGLES9TextureIDii14GraphicsFormati
pwi:_Comparer_1__ctor_m2876014041_gshared
RGj:_GC_continue_reclaim
Dhe:_InvalidCastException__ctor_m2730571470
Ouf:_X509ChainElementCollection_System_Collections_IEnumerable_GetEnumerator_m2559704689
Hoh:__ZL86BigInteger_t925946153_CustomAttributesCacheGenerator_BigInteger_op_Implicit_m622924526P21CustomAttributesCache
uJh:__ZL59Dropdown_t1985816271_CustomAttributesCacheGenerator_m_ValueP21CustomAttributesCache
$wf:_InterpreterFactory_set_Gap_m2761943153
csf:_PublicKey_get_Key_m126090744
azc:__ZNSt3__23mapIN20TextRenderingPrivate7FontRefEP11FT_FaceRec_NS_4lessIS2_EENS_9allocatorINS_4pairIKS2_S4_EEEEEixERS9_
IPa:__ZN17ArchiveFileSystem10AddStorageEP20ArchiveStorageReader
f9h:_Color_Equals_m661618137
I8h:_CanvasRenderer_SplitIndicesStreamsInternal_m817541557
L9i:__ZN6il2cpp2vm13MetadataCache37GetParameterDefaultValueDataFromIndexEi
g2g:_EqualityComparer_1_System_Collections_IEqualityComparer_GetHashCode_m1203798961_gshared
CCh:__ZL89GUIStyle_t1799908754_CustomAttributesCacheGenerator_GUIStyle_AssignRectOffset_m2998103580P21CustomAttributesCache
W2i:__ZN6il2cpp2vm5Class15GetEnumBaseTypeEP11Il2CppClass
Tie:_DirectoryNotFoundException__ctor_m3713860966
Nob:__ZNK9Texture2D16GetNpotTexelSizeEv
Jni:_InternalEnumerator_1__ctor_m245588437_gshared
Evf:_Capture_get_Text_m3472127896
tPh:_Mask_get_rectTransform_m3304369086
iKi:_TooltipAttribute__ctor_m2640804852
_dg:__Z78RuntimeInvoker_Void_t1841601450_ScriptableRenderContext_t4271526_RuntimeObjectPFvvEPK10MethodInfoPvPS4_
eHa:__ZN9GfxDevice22GetDefaultVertexBufferE26GfxDefaultVertexBufferTypej
TWe:_Collection_1__ctor_m3903788797_gshared
R4e:_ReadOnlyCollection_1_System_Collections_ICollection_CopyTo_m1129689124_gshared
uOj:___fseeko_unlocked
OYj:_glGetActiveUniform__wrapper
mOj:_sscanf
B$e:_Collection_1_Contains_m1999290510_gshared
zvb:__ZN14SafeBinaryRead21TransferSTLStyleArrayINSt3__26vectorI17BlendShapeChannelNS1_9allocatorIS3_EEEEEEvRT_17TransferMetaFlags
Roa:__Z17BeginSplashScreenv
AVb:__ZN9ShaderLab16SerializedShader8TransferI19StreamedBinaryWriteILb0EEEEvRT_
eSf:_UInt32_Parse_m2400360707
tC:__ZN7mecanim9animation18CreateAvatarMemoryEPKNS0_14AvatarConstantERNS_6memory9AllocatorE
SFd:_Stack_Pop_m3788808882
ORg:_Enumerator_VerifyCurrent_m4246196125_AdjustorThunk
L_g:_Dictionary_2_pick_value_m3484897877_gshared
QMd:_DateTime_op_Equality_m1867073872
lB:__ZN7mecanim8skeleton16SkeletonPoseCopyIN4math4trsXENS2_7affineXEEEvPKNS0_13SkeletonPoseTIT_EEPNS5_IT0_EE
TKe:_List_1_CopyTo_m1916701891_gshared
dMb:__Z18Transfer_BlittableI19StreamedBinaryWriteILb0EELb0EaEvRK29SerializationCommandArgumentsR31RuntimeSerializationCommandInfo
LGa:__ZN18GfxFramebufferGLES18GetFramebufferNameERK20GfxRenderTargetSetup
Fsj:__ZN6il2cpp6icalls8mscorlib6System2IO6MonoIO11GetFileTypeE12Il2CppIntPtrPi
dmc:__Z30Event_Get_Custom_PropCharacterP12Il2CppObject
faa:__ZN13PlayableGraph27SchedulePlayableDestructionERK9HPlayable
WVj:_glGetFramebufferAttachmentParameteriv__wrapper
eyh:__ZL145AnimatorControllerPlayable_t1744083903_CustomAttributesCacheGenerator_AnimatorControllerPlayable_INTERNAL_CALL_IsInTransitionInternal_m3428375524P21CustomAttributesCache
nVc:__Z13RegisterClassI20UnityConnectSettingsEvv
YFb:__Z22scripting_array_length17ScriptingArrayPtr
c2c:_SecurityElement_GetAttribute_m4288291176
wDi:_UriParser_get_DefaultPort_m1377931533
xRi:_IndexedSet_1_get_Count_m2839545138_gshared
Uva:__ZN14SafeBinaryRead20TransferTypelessDataEjPvi
Rci:_RenderPipelineManager_get_currentPipeline_m679160301
Zch:__ZL66StringFreezingAttribute_t2691375565_CustomAttributesCacheGeneratorP21CustomAttributesCache
Spc:__ZN9rapidjson13GenericReaderINS_4UTF8IcEES2_13JSONAllocatorE10ParseFalseILj1ENS_25GenericInsituStringStreamIS2_EENS_15GenericDocumentIS2_S3_S3_EEEEvRT0_RT1_
xZh:_AnimationClipPlayable_INTERNAL_CALL_SetApplyFootIKInternal_m4116451205
zOe:_List_1_AddCollection_m3284813601_gshared
KEc:_Horizontal_Sweep_Init
TMh:__ZL102ToggleGroup_t1030026315_CustomAttributesCacheGenerator_ToggleGroup_U3CActiveTogglesU3Em__1_m4052653494P21CustomAttributesCache
HP:__ZN13dynamic_arrayI12SoundChannelLj4EE9push_backERKS0_
l0:__Z19GetActiveColorSpacev
z2g:_EqualityComparer_1__cctor_m1672307556_gshared
GAf:_SoapTypeAttribute_get_IsInteropXmlElement_m2941294827
Gxb:__ZN14SpriteRenderer18UpdateCachedSpriteEv
cGe:_Enumerator_System_Collections_IEnumerator_get_Current_m3542273247_gshared
zyd:_Char_System_IConvertible_ToUInt32_m1557991717_AdjustorThunk
wJf:_Encoding_get_UTF8Unmarked_m628720656
oae:_NumberFormatter_RoundBits_m1545255255
U0:__Z6StrCmpPKcS0_
L1f:__Z119RuntimeInvoker_Void_t1841601450_RuntimeObject_Int64U26_t763825331_ObjectU26_t597476745_SerializationInfoU26_t4051840202PFvvEPK10MethodInfoPvPS4_
ZWb:__Z21CheckGpuProgramUsable20ShaderGpuProgramType
Kpg:_Binder__cctor_m3736115807
hAj:__ZN6il2cpp2os9Directory20GetFileSystemEntriesERKNSt3__212basic_stringIcNS2_11char_traitsIcEENS2_9allocatorIcEEEESA_iiPi
oig:__Z84RuntimeInvoker_Int32_t2071877448_Color32_t874517518_Color32_t874517518_RuntimeObjectPFvvEPK10MethodInfoPvPS4_
I$g:_Dictionary_2_OnDeserialization_m2160537783_gshared
Uud:_Attribute_GetHashCode_m2653962112
$xc:__ZN20TextRenderingPrivate19NativeTextGenerator5SetupEv
$ii:_AsyncResult_GetReplyMessage_m262842621
sEe:_Enumerator__ctor_m3021143890_AdjustorThunk
Izb:__ZN12AspectRatios8TransferI18StreamedBinaryReadILb0EEEEvRT_
N8g:__ZL66X509ExtensionCollection_t1640144839_CustomAttributesCacheGeneratorP21CustomAttributesCache
Y3b:__ZN10GameObject14CopyPropertiesERS_
goc:__Z44Register_UnityEngine_GUIStyle_get_fixedWidthv
I_c:_RSACryptoServiceProvider_Common_m2581564813
Hzj:__ZNSt3__214__split_bufferIN6il2cpp2os10ThreadImpl10APCRequestERNS_9allocatorIS4_EEEC2EjjS7_
r1h:_AnimatorControllerPlayable_INTERNAL_CALL_GetCurrentAnimatorClipInfoInternal_m3360626147
Yke:_MemoryStream_CheckIfClosedThrowDisposed_m2253054610
zki:_ArrayReadOnlyList_1_GetEnumerator_m634288642_gshared
wbb:__ZNK13ScreenManager12IsFullScreenEv
POj:_rand
xWj:_emscripten_glFramebufferRenderbuffer__wrapper
udg:__Z72RuntimeInvoker_Boolean_t3825574718_Ray_t2469606224_SingleU26_t4173844468PFvvEPK10MethodInfoPvPS4_
eBj:__ZN6il2cpp5utils9PathUtils7CombineIcEENSt3__212basic_stringIT_NS3_11char_traitsIS5_EENS3_9allocatorIS5_EEEERKNS0_10StringViewIS5_EERKSA_
W7e:_ReadOnlyCollection_1_GetEnumerator_m2481390116_gshared
d$f:__Z77RuntimeInvoker_Void_t1841601450_RuntimeObject_Int32_t2071877448_RuntimeObjectPFvvEPK10MethodInfoPvPS4_
MGb:__ZN14SafeBinaryRead21TransferSTLStyleArrayINSt3__26vectorI17AnimationCurveTplIfE13stl_allocatorIS4_L18MemLabelIdentifier1ELi16EEEEEEvRT_17TransferMetaFlags
Bbc:__Z60Register_UnityEngine_AsyncOperation_set_allowSceneActivationv
ujj:__ZN15dense_hashtableINSt3__24pairIK10KeyWrapperINS1_IPK11Il2CppImageP11Il2CppClassEEEjEES9_17ReflectionMapHashIS8_EN14dense_hash_mapIS9_jSD_NS9_14EqualsComparerINS0_8equal_toIS8_EEEENS0_9allocatorISB_EEE9SelectKeyESI_SK_E12expand_arrayEjN21dense_hash_map_traits17integral_constantIbLb0EEE
xDf:_ObjectManager_RegisterObject_m872610295
c5a:__Z22PrepareOptimizedPlanesPK5PlaneiPKN4math7_float4E
hQg:_RectOffset_t3387826427_marshal_pinvoke
Tkd:_Graphic_SetVerticesDirty_m1607014370
RY:__ZN11UnityEngine15CloudWebService17WebFileDownloaderINS0_20WebRequestRestClientENS0_23WebRequestRestHeaderMapEE10InitializeERKN4core12basic_stringIcNS5_20StringStorageDefaultIcEEEE
B8:__ZN17UniqueIDGenerator15CreatePureIndexEv
Coc:__Z59Register_UnityEngine_GUIStyle_Internal_GetCursorFlashOffsetv
ds:__ZN11UnityEngine9Animation28GenericAnimationBindingCache15DidReloadDomainEv
sCe:_AppDomain_InternalGetProcessGuid_m1278588156
gqd:_InputField_MoveRight_m386206014
pEd:_HashValues_get_Count_m234926373
lZf:__Z116RuntimeInvoker_Boolean_t3825574718_RuntimeObject_Int32_t2071877448_RuntimeObject_Int32_t2071877448_Int32_t2071877448PFvvEPK10MethodInfoPvPS4_
Zhe:_BinaryReader_ReadBoolean_m2892291883
k2i:__ZN15dense_hashtableINSt3__24pairIK10KeyWrapperIPK22Il2CppGenericParameterEP11Il2CppClassEES6_N6il2cpp5utils11PointerHashIS4_EEN14dense_hash_mapIS6_S9_SE_NS6_14EqualsComparerINS0_8equal_toIS5_EEEENS0_9allocatorISA_EEE9SelectKeyESJ_SL_E14squash_deletedEv
uAb:__ZNSt3__26__treeINS_12__value_typeIN4core12basic_stringIcNS2_20StringStorageDefaultIcEEEE4PPtrI6ObjectEEENS_19__map_value_compareIS6_SA_NS_4lessIS6_EELb1EEE13stl_allocatorISA_L18MemLabelIdentifier51ELi16EEE7destroyEPNS_11__tree_nodeISA_PvEE
zcg:__Z139RuntimeInvoker_Void_t1841601450_IntPtr_t_Rect_t3681755626_RuntimeObject_SByte_t454417549_SByte_t454417549_SByte_t454417549_SByte_t454417549PFvvEPK10MethodInfoPvPS4_
Cgh:__ZL66DSASignatureDeformatter_t2187578719_CustomAttributesCacheGeneratorP21CustomAttributesCache
jkc:__Z14GUIClipTextureP9Texture2DPhiiii
fmi:_InternalEnumerator_1_Dispose_m1064404287_AdjustorThunk
mJa:__ZNSt3__26vectorI27ComputeShaderBuiltinSamplerNS_9allocatorIS1_EEE21__push_back_slow_pathIKS1_EEvRT_
Mif:_TlsServerCertificate_validateCertificates_m1988583701
Gbg:__Z78RuntimeInvoker_Boolean_t3825574718_PlayableHandleU26_t4210769902_RuntimeObjectPFvvEPK10MethodInfoPvPS4_
b8g:__ZL61DllImportAttribute_t3000813225_CustomAttributesCacheGeneratorP21CustomAttributesCache
NXf:__Z66RuntimeInvoker_Int32_t2071877448_RuntimeObject_Int32U26_t455636984PFvvEPK10MethodInfoPvPS4_
cZi:__ZL25UnresolvedVirtualCall_143P12Il2CppObjectaaPK10MethodInfo
B0:__ZNK9Transform18TransformDirectionERK8Vector3f
PSa:__ZNK17ArchiveFileSystem12GetAssetGUIDERK13FileEntryData
QWb:__ZNSt3__26vectorIN9ShaderLab20SerializedSubProgram15MatrixParameterENS_9allocatorIS3_EEE21__push_back_slow_pathIKS3_EEvRT_
YCg:_GUILayoutEntry_SetHorizontal_m1828181654
A$j:_emscripten_glClearStencil__wrapper
W2g:_EqualityComparer_1_get_Default_m1852501307_gshared
w8i:__ZN15dense_hashtableINSt3__24pairIK10KeyWrapperIPK11Il2CppClassEPKcEES6_N6il2cpp5utils11PointerHashIS3_EEN14dense_hash_mapIS6_S9_SE_NS6_14EqualsComparerINS0_8equal_toIS5_EEEENS0_9allocatorISA_EEE9SelectKeyESJ_SL_E12resize_deltaEjj
yQj:__ZNK10__cxxabiv120__si_class_type_info27has_unambiguous_public_baseEPNS_19__dynamic_cast_infoEPvi
_be:_NumberFormatInfo_get_PercentNegativePattern_m1162448153
v9g:__ZL56SyncHashtable_t1343674558_CustomAttributesCacheGeneratorP21CustomAttributesCache
gUj:_glTexSubImage3D__wrapper
Qvf:_FactoryCache_Add_m2602974721
dHa:__Z30AddDefaultStreamsToMeshBuffersR9GfxDeviceR11MeshBuffersj17ShaderChannelMaskS3_
z7:__ZL16GetInterfaceImpl18UnityInterfaceGUID
jce:_RegionInfo_construct_internal_region_from_name_m3316088619
n3i:__ZN6il2cpp2vmL17SetupFieldOffsetsENS0_15FieldLayoutKindEP11Il2CppClassjRKNSt3__26vectorIjNS4_9allocatorIjEEEE
nXe:_Collection_1_GetEnumerator_m2816357893_gshared
qwh:__ZL105RectTransform_t3349966182_CustomAttributesCacheGenerator_RectTransform_INTERNAL_get_anchorMin_m3180545469P21CustomAttributesCache
RHe:_List_1_System_Collections_IList_get_Item_m936612973_gshared
ZCj:__ZN6il2cpp6icalls8mscorlib6System15MonoCustomAttrs27GetCustomAttributesInternalEP12Il2CppObjectP20Il2CppReflectionTypeb
AKc:_UNITY_TT_Set_MM_Blend
HDf:_ObjectReader_ReadAssembly_m869834280
Flf:_SslStreamBase_resetBuffer_m3028042362
o7e:_ReadOnlyCollection_1_System_Collections_IList_get_Item_m1831743662_gshared
D0e:_Collection_1_IsSynchronized_m971497175_gshared
kbd:_ExecuteEvents_Execute_m1617536317
KWh:_Text_get_cachedTextGeneratorForLayout_m1357670532
EK:__ZL31InitializeAudioScriptingClassesv
ZXa:__Z14SortGUIByDepthP10GUIElementS0_
Xee:_NumberFormatter_NumberToString_m126384393
_Xj:_emscripten_glVertexAttrib4fv__wrapper
F7:__ZN13RuntimeStaticI13dynamic_arrayIPK31TransferFunctionScriptingTraitsLj4EELb0EE16StaticInitializeEPv
Zxf:_LogicalCallContext__ctor_m3173272863
UB:__ZN12_GLOBAL__N_120ProcessRootMotionMixER33AnimationPlayableEvaluationOutputR35AnimationPlayableEvaluationConstantR32AnimationPlayableEvaluationInputS1_f
fpe:_MonoCustomAttrs__cctor_m2608447972
Kee:_Int32_FindSign_m3803672540
vSg:_Enumerator_System_Collections_IEnumerator_Reset_m70453843_AdjustorThunk
gFg:_GUISkin_get_scrollView_m2941173958
qgg:__Z95RuntimeInvoker_Void_t1841601450_ObjectU5BU5DU26_t3223402458_Int32_t2071877448_Int32_t2071877448PFvvEPK10MethodInfoPvPS4_
dfa:__ZNK20LocalFileSystemPosix21GetAvailableDiskSpaceEPKcRy
xda:__ZNSt3__26__treeIiNS_4lessIiEENS_9allocatorIiEEE7destroyEPNS_11__tree_nodeIiPvEE
iOi:_Predicate_1__ctor_m2995226103_gshared
Eef:_CipherSuite_InitializeCipher_m229247572
MAa:__ZNK9GfxDevice14GetWorldMatrixEv
Lzg:_MonoProperty_GetGetMethod_m1100580870
m_g:_Dictionary_2__ctor_m1950568359_gshared
UBj:__ZN15dense_hashtableINSt3__24pairIK10KeyWrapperIPK19Il2CppGenericMethodEP10MethodInfoEES6_N6il2cpp8metadata23Il2CppGenericMethodHashEN14dense_hash_mapIS6_S9_SD_NS6_14EqualsComparerINSC_26Il2CppGenericMethodCompareEEENS0_9allocatorISA_EEE9SelectKeyESH_SJ_E13set_empty_keyERKSA_
q7a:__Z19scripting_array_new17ScriptingClassPtrjj
vP:__ZN11SoundHandle13CreateChannelEb
g1f:__Z90RuntimeInvoker_Void_t1841601450_IntPtr_t_Int32_t2071877448_RuntimeObject_Int32_t2071877448PFvvEPK10MethodInfoPvPS4_
aqb:__ZN14SafeBinaryRead21TransferSTLStyleArrayI13dynamic_arrayI12LightmapDataLj4EEEEvRT_17TransferMetaFlags
MCe:_ArgumentException__ctor_m3312963299
aUb:__ZNSt3__26vectorIN9ShaderLab20SerializedSubProgram16TextureParameterENS_9allocatorIS3_EEE6assignIPS3_EENS_9enable_ifIXaasr21__is_forward_iteratorIT_EE5valuesr16is_constructibleIS3_NS_15iterator_traitsISA_E9referenceEEE5valueEvE4typeESA_SA_
p6e:_ReadOnlyCollection_1_get_Item_m1696267180_gshared
a7i:__ZN13Il2CppHashMapIN6il2cpp5utils13dynamic_arrayIPK10Il2CppTypeLj4EEEPFvvENS0_8metadata19Il2CppSignatureHashENS9_22Il2CppSignatureCompareENSt3__29allocatorINSC_4pairIK10KeyWrapperIS6_ES8_EEEEEC2EjRKSA_RKSB_
C0i:_U3CCreateWhereIteratorU3Ec__Iterator1D_1_MoveNext_m3533253043_gshared
Vlj:__ZN15dense_hashtableINSt3__24pairIK10KeyWrapperIPK22Il2CppGenericParameterEPK24MonoGenericParameterInfoEES6_N6il2cpp5utils11PointerHashIS4_EEN14dense_hash_mapIS6_SA_SF_NS6_14EqualsComparerINS0_8equal_toIS5_EEEENS0_9allocatorISB_EEE9SelectKeyESK_SM_E15set_deleted_keyERKSB_
Zyh:__ZL113AnimatorControllerPlayable_t1744083903_CustomAttributesCacheGenerator_AnimatorControllerPlayable_Play_m1490151611P21CustomAttributesCache
xoi:_InternalEnumerator_1_System_Collections_IEnumerator_Reset_m2726857860_AdjustorThunk
FYb:__ZN6prcoreL11inner_clearILj2EEEvPhjjj
JBh:__ZL124GUILayoutUtility_t996096873_CustomAttributesCacheGenerator_GUILayoutUtility_INTERNAL_CALL_Internal_GetWindowRect_m3236664463P21CustomAttributesCache
tvf:_X509SubjectKeyIdentifierExtension__ctor_m3887138480
kEe:_Enumerator_System_Collections_IEnumerator_get_Current_m2853089017_AdjustorThunk
Ng:_emscripten_exit_fullscreen
eod:_InputField_get_mesh_m3276583786
Mei:_GCHandle_Free_m1639542352_AdjustorThunk
whf:_Context_set_ClientRandom_m631392719
Vyj:__ZN6il2cpp6icalls8mscorlib6System6String19InternalAllocateStrEi
fvc:__Z29Transfer_Blittable_ArrayFieldI8JSONRead11QuaternionfEvRT_R9ArrayInfoRK23StaticTransferFieldInfo
afh:__ZL65SoapParameterAttribute_t2780084514_CustomAttributesCacheGeneratorP21CustomAttributesCache
Gea:__ZN20LocalFileSystemPosix8SetFlagsER13FileEntryDatajj
pcc:__Z45Register_UnityEngine_Camera_get_targetDisplayv
e2b:__ZNK24RendererAnimationBinding15GenerateBindingERKN4core12basic_stringIcNS0_20StringStorageDefaultIcEEEEbRN11UnityEngine9Animation14GenericBindingE
Pkb:__Z15GetFlareManagerv
xZb:__ZN15ApplicationInfo24GetApplicationIdentifierEv
$5e:_ReadOnlyCollection_1_System_Collections_IList_Contains_m927375828_gshared
Igb:__ZN9Behaviour8TransferI18StreamedBinaryReadILb0EEEEvRT_
_xi:_Enumerator_System_Collections_IEnumerator_get_Current_m1429268283
y2e:_ReadOnlyCollection_1_System_Collections_Generic_ICollectionU3CTU3E_Clear_m388357963_gshared
OMj:___toread
CY:__ZN19CloudServiceHandler10QueueEventEPN11UnityEngine15CloudWebService14CloudEventInfoE
$Qj:___cxa_is_pointer_type
Y6c:_String_Concat_m56707527
WB:__ZN7mecanim9animation16EvaluateAvatarDXEPKNS0_14AvatarConstantEPKNS0_11AvatarInputEPNS0_12AvatarMemoryEPNS0_15AvatarWorkspaceEPNS0_12AvatarOutputE
sKa:__ZN4gles20DestroyRenderSurfaceEP7ApiGLESP17RenderSurfaceGLES
jEe:_Enumerator_System_Collections_IEnumerator_get_Current_m2853089017_gshared
Uic:__Z34Transform_CUSTOM_SetAsFirstSiblingP12Il2CppObject
Pgj:__ZNK15dense_hashtableINSt3__24pairIK10KeyWrapperINS1_IPK14Il2CppAssemblyP11Il2CppClassEEEjEES9_17ReflectionMapHashIS8_EN14dense_hash_mapIS9_jSD_NS9_14EqualsComparerINS0_8equal_toIS8_EEEENS0_9allocatorISB_EEE9SelectKeyESI_SK_E10test_emptyEj
tGe:_Enumerator_get_Current_m827571811_AdjustorThunk
bAh:__ZL62Font_t4239498691_CustomAttributesCacheGenerator_textureRebuiltP21CustomAttributesCache
ooa:__ZN17PersistentManager40GlobalToLocalSerializedFileIndexInternalERK26SerializedObjectIdentifier
SV:__ZN11UnityEngine15CloudWebService17SessionEventQueue14ParseEventDataERKN4core12basic_stringIcNS2_20StringStorageDefaultIcEEEE
W8c:_BaseEventData_get_selectedObject_m3551206992
yte:_SimpleCollator_CompareOrdinal_m2176988387
IEh:__ZL47Rect_t3681755626_CustomAttributesCacheGeneratorP21CustomAttributesCache
nTd:_CCGregorianCalendar_GetYear_m1289900195
Vee:_Int16_ToString_m2592645088
pFa:__ZN13TranslateGLES4InitERK12GraphicsCaps16GfxDeviceLevelGL
tRb:__Z29Transfer_Blittable_ArrayFieldI18StreamedBinaryReadILb0EE10ColorRGBAfEvRT_R9ArrayInfoRK23StaticTransferFieldInfo
LT:__Z60AudioClipPlayable_CUSTOM_INTERNAL_CALL_GetPauseDelayInternalR9HPlayable
eFf:_SerializationInfoEnumerator_Reset_m2206466680
vWj:_emscripten_glGetShaderPrecisionFormat__wrapper
wBh:__ZL78Event_t3028476042_CustomAttributesCacheGenerator_Event_get_keyCode_m3364681288P21CustomAttributesCache
IVi:_GenericEqualityComparer_1_Equals_m1934771410_gshared
G9g:__ZL57DebuggingModes_t2073970606_CustomAttributesCacheGeneratorP21CustomAttributesCache
fKj:__ZN6il2cpp5utils9Exception26FormatInvalidCastExceptionEPK11Il2CppClassS4_
mZe:_Collection_1_System_Collections_IList_get_IsFixedSize_m993584401_gshared
gBb:__ZNSt3__26vectorIN30RuntimeInitializeOnLoadManager15ClassMethodInfoE13stl_allocatorIS2_L18MemLabelIdentifier12ELi16EEE8__appendEj
l0b:__ZN13ProduceHelperI10TagManagerLb0EE7ProduceE18MemLabelIdentifier18ObjectCreationMode
IKj:__ZN6il2cpp2os6Memory12AlignedAllocEjj
Xri:_InternalEnumerator_1__ctor_m691972083_gshared
zEj:__ZN6il2cpp8metadataL7CompareEPK10Il2CppTypeS3_
qIb:__Z18Transfer_BlittableI17RemapPPtrTransferLb0E11ColorRGBA32EvRK29SerializationCommandArgumentsR31RuntimeSerializationCommandInfo
krg:_TypeBuilder_get_is_created_m736553860
vBg:_GameObject_set_layer_m2712461877
jdf:_RSAManaged__ctor_m1370411656
QPb:__Z18Transfer_BlittableI18StreamedBinaryReadILb0EELb1E10ColorRGBAfEvRK29SerializationCommandArgumentsR31RuntimeSerializationCommandInfo
Ynb:__ZN12CubemapArray23VirtualRedirectTransferER17RemapPPtrTransfer
r9b:__ZL27GetComponentsImplementationILb0ELi0EEbR10GameObjectbRK17CompareParametersRK39GetComponentsImplementation_ReturnValue
Z3:__Z21CreateMonoScriptCacheRKN4core12basic_stringIcNS_20StringStorageDefaultIcEEEE17ScriptingClassPtr22InitScriptingCacheTypeP6Objecti
vCb:__ZN9Scripting36IsSystemCollectionsGenericDictionaryE17ScriptingClassPtr
FRh:_Raycast3DCallback_EndInvoke_m3234280377
qcg:__Z34RuntimeInvoker_KeyCode_t2283395152PFvvEPK10MethodInfoPvPS4_
Hhd:_ColorTweenCallback__ctor_m3619686788
z5:__ZL16ReadTypeTreeImplILb0EEbR8TypeTreeRK16TypeTreeIteratorRPKhS6_i
Lgc:__Z28PlayableOutputValidityChecksRK15HPlayableOutput
Px:__ZN27AnimationLayerMixerPlayable16SetLayerMaskCopyEjRKN7mecanim6bitsetILj70EEEPKNS0_8skeleton12SkeletonMaskE
vH:__Z104Register_UnityEngine_Animations_AnimatorControllerPlayable_INTERNAL_CALL_GetNextAnimatorClipInfoInternalv
Lmb:__ZNK22BuiltinResourceManager21GetResourceInstanceIDEPKN5Unity4TypeERKN4core12basic_stringIcNS4_20StringStorageDefaultIcEEEE
fDa:__ZN9GfxDevice15BeginFrameStatsEv
xdc:__Z42Register_UnityEngine_RectOffset_set_bottomv
sAd:_ArrayListWrapper_IndexOf_m3574835167
Emc:__Z28GUIStyleState_CUSTOM_CleanupP12Il2CppObject
IF:__Z92Register_UnityEngine_Animations_AnimationClipPlayable_INTERNAL_CALL_GetAnimationClipInternalv
y_a:__ZN28LightProbeProxyVolumeContext8CopyFromERKS_
bLe:_List_1_Remove_m2660527978_gshared
yfd:_U3COnFinishSubmitU3Ec__Iterator0_System_Collections_Generic_IEnumeratorU3CobjectU3E_get_Current_m1823105495
NHg:_GUIUtility_TakeCapture_m3115231813
V6a:__ZN23TransformChangeDispatch32QueueTransformChangeIfHasChangedER18TransformHierarchy
B0c:_SymmetricAlgorithm_get_FeedbackSize_m544664262
s3a:__ZN18DeferredRenderLoop15RenderFinalPassEP13RenderTextureS1_
tKa:__ZN7ApiGLES18DeleteRenderbufferERj
hJa:__ZL23ProgramUniformMatrix4fvPK7ApiGLESjiihPKv
Uza:__ZN7ApiGLES13CreateTextureEjj14GraphicsFormatiiiii
Afg:__Z41RuntimeInvoker_SelectionState_t3187567897PFvvEPK10MethodInfoPvPS4_
wsi:_InternalEnumerator_1_MoveNext_m3629145604_gshared
KTb:__ZN9ShaderLab20SerializedSubProgram15MatrixParameter8TransferI14SafeBinaryReadEEvRT_
TXf:__Z51RuntimeInvoker_Int32_t2071877448_Single_t2076509932PFvvEPK10MethodInfoPvPS4_
Hee:_Int32_Parse_m124693431
t9b:__ZL27GetComponentsImplementationILb0ELi1EEbR10GameObjectbRK17CompareParametersRK39GetComponentsImplementation_ReturnValue
CJc:_Round_Down_To_Grid
gMf:_UTF8Decoder__ctor_m1460357288
gka:__ZN13RenderTexture7ReleaseEv
Kwb:__ZN10MeshFilter23VirtualRedirectTransferER14SafeBinaryRead
LGd:_Convert_ToByte_m1201588964
Uwb:__ZN12MeshRenderer17MainThreadCleanupEv
pbc:__Z36AsyncOperation_Get_Custom_PropIsDoneP12Il2CppObject
$Ma:__ZN22CreateGpuProgramOutput12CreateParamsEv
FFf:_RuntimeMethodHandle_GetHashCode_m2682236001_AdjustorThunk
Vjg:__Z54RuntimeInvoker_Void_t1841601450_UILineInfo_t3621277874PFvvEPK10MethodInfoPvPS4_
yfj:__ZNSt3__26vectorIiNS_9allocatorIiEEE21__push_back_slow_pathIiEEvOT_
Deg:__Z45RuntimeInvoker_HorizontalWrapMode_t2027154177PFvvEPK10MethodInfoPvPS4_
hFa:__ZNK14GfxContextGLES13GetDefaultFBOEv
BWd:_Array_InternalArray__ICollection_Remove_TisSByte_t454417549_m2474211570_gshared
z2c:_Evidence_get_IsSynchronized_m1427392003
Nga:__ZN14GraphicsHelper5ClearE13GfxClearFlagsRK10ColorRGBAffjR17ShaderPassContext
r6b:__Z13GetImagePixelI10ColorRGBAfET_PKhii13TextureFormat15TextureWrapModeS5_ii
Mdj:_il2cpp_class_is_enum
Vmf:_AuthorityKeyIdentifierExtension_get_Identifier_m3535568551
pma:__ZNSt3__23mapIN9ShaderLab16FastPropertyNameEN18UnityPropertySheet11UnityTexEnvENS_4lessIS2_EENS_9allocatorINS_4pairIKS2_S4_EEEEEixERS9_
Vza:__ZNK13TranslateGLES25GetTextureTargetDimensionEj
Tsh:__ZL93Input_t1785128008_CustomAttributesCacheGenerator_Input_INTERNAL_get_mousePosition_m2302165941P21CustomAttributesCache
M2d:_Array_InternalArray__set_Item_TisByte_t3683104436_m1694926640_gshared
RZe:_Collection_1_System_Collections_IList_Contains_m1897568526_gshared
ztg:_FieldBuilder_get_FieldType_m2267463269
Cud:_SimpleEnumerator_Clone_m3032847657
Nyi:_PatternCompiler_EmitInfo_m597931026
Aaf:_ModulusRing_Multiply_m3113924743
kic:__Z47Texture2D_CUSTOM_INTERNAL_CALL_GetPixelBilinearP12Il2CppObjectffR10ColorRGBAf
gOc:__ZZN2UI6Canvas15InitializeClassEvEN39FunctorImpl_1413kCanvasHierarchyChanged4CallEPviR11MessageData
jhf:_Context_get_ServerSettings_m225713600
Mi:_emscripten_glVertexAttrib4f
H9f:__Z40RuntimeInvoker_PlayableOutput_t988259697PFvvEPK10MethodInfoPvPS4_
bPi:_InvokableCall_1_remove_Delegate_m3576859071_gshared
c2e:_ReadOnlyCollection_1_System_Collections_IEnumerable_GetEnumerator_m531171980_gshared
yWb:__ZNSt3__26vectorIN20GpuProgramParameters14ConstantBufferENS_9allocatorIS2_EEE8__appendEj
s5d:_Array_Sort_TisUILineInfo_t3621277874_m3105833015_gshared
Pqe:_MonoType_GetGenericArguments_m2708198481
dZa:__ZN11HaloManager21ReleaseGeometryJobMemEP25DynamicVBOGeometryJobData
XHe:_List_1_AddEnumerable_m2489692396_gshared
Heg:__Z51RuntimeInvoker_Color_t2020392075_Single_t2076509932PFvvEPK10MethodInfoPvPS4_
Vzh:__ZL93TextGenerator_t647235000_CustomAttributesCacheGenerator_TextGenerator_Dispose_cpp_m1755131202P21CustomAttributesCache
INi:_WaitForSecondsRealtime__ctor_m1734539010
zMf:_WaitHandle__ctor_m1256161634
$w:__ZN7mecanim12statemachine24CreateStateMachineMemoryEPKNS0_20StateMachineConstantERNS_6memory9AllocatorE
SVg:_Enumerator_get_Current_m419581838_AdjustorThunk
kDa:__ZN9GfxDevice18SetGlobalDepthBiasEff
Gii:_Identity_get_ChannelSink_m3989446673
$aj:__ZN6il2cpp6icalls8mscorlib6System8MonoType12get_AssemblyEP20Il2CppReflectionType
ukd:_FontData_get_richText_m2013560754
K3c:_SecurityException_get_PermissionType_m3543350822
Zi:_emscripten_glGetPointerv
LB:__ZN8Animator22ApplyBuiltinRootMotionEv
Hvj:__ZN15dense_hashtableI10KeyWrapperIP18Il2CppGenericClassES3_N6il2cpp8metadata22Il2CppGenericClassHashEN14dense_hash_setIS3_S6_NS3_14EqualsComparerINS5_25Il2CppGenericClassCompareEEENSt3__29allocatorIS3_EEE8IdentityESA_SD_E5clearEv
fWd:_Array_InternalArray__ICollection_Remove_TisKeyValuePair_2_t3716250094_m2566517826_gshared
rtj:__ZN30dense_hashtable_const_iteratorINSt3__24pairIK10KeyWrapperIP14Il2CppIUnknownEjEES5_N6il2cpp5utils11PointerHashIS3_EEN14dense_hash_mapIS5_jSB_NS5_14EqualsComparerINS0_8equal_toIS4_EEEENS0_9allocatorIS7_EEE9SelectKeyESG_SI_EppEv
Xrb:__ZN8Renderer23VirtualRedirectTransferER14SafeBinaryRead
osg:_DerivedType_get_UnderlyingSystemType_m3904230233
dcd:_PointerEventData_get_rawPointerPress_m448871540
GXa:__Z27ConvertSubMeshesToTrianglesR13dynamic_arrayI7SubMeshLj4EERS_ItLj2EE
i3i:__ZN6il2cpp2vmL15GetBitmapNoInitEP11Il2CppClassPjRjj
Xeb:__ZL13MotionHandleriPK27EmscriptenDeviceMotionEventPv
Xtf:_X509Certificate2Collection__ctor_m819526826
lK:__ZN12AudioManager5ResetEv
bog:__Z75RuntimeInvoker_RuntimeObject_Single_t2076509932_RuntimeObject_RuntimeObjectPFvvEPK10MethodInfoPvPS4_
Nbf:_KeyBuilder_Key_m3814433741
NCe:_ArgumentException__ctor_m158205422
KZd:_Array_compare_TisVector3_t2243707580_m3709184876_gshared
Jmd:_HorizontalLayoutGroup_SetLayoutHorizontal_m3237355818
vB:__ZN7mecanim5human14RetargetToTDoFEPKNS0_5HumanEPNS0_9HumanPoseEPNS_8skeleton13SkeletonPoseTIN4math4trsXEEESB_
Ilj:__ZNK15dense_hashtableINSt3__24pairIK10KeyWrapperIPK14Il2CppAssemblyEPK22Il2CppMonoAssemblyNameEES6_N6il2cpp5utils11PointerHashIS4_EEN14dense_hash_mapIS6_SA_SF_NS6_14EqualsComparerINS0_8equal_toIS5_EEEENS0_9allocatorISB_EEE9SelectKeyESK_SM_E10test_emptyEj
bBj:__ZN6il2cpp6icalls8mscorlib6System11Environment20GetWindowsFolderPathEi
UMh:__ZL60AspectRatioFitter_t3114550109_CustomAttributesCacheGeneratorP21CustomAttributesCache
Lv:__ZN7mecanim5human18HumanPoseBlendNodeERNS0_9HumanPoseEPS1_f
sFc:_UNITY_FT_RoundFix
HWb:__ZN9ShaderLab20SerializedSubProgram15AddTextureParamEPKcii16TextureDimension
cV:__ZN23CloudWebServicesManager23VirtualRedirectTransferER17RemapPPtrTransfer
mWe:__ZN21InterfaceFuncInvoker1Ib40CustomAttributeTypedArgument_t1498197914E6InvokeEjP11Il2CppClassP12Il2CppObjectS0_
OQ:__ZNK18AudioMixerPlayable11DerivesFromE17ScriptingClassPtr
OCi:_Uri_get_Parser_m2250631932
Wwb:__ZNK12MeshRenderer22GetTypeVirtualInternalEv
Ebi:_Event_GetHashCode_m2214628668
l9f:__Z36RuntimeInvoker_HideFlags_t1434274199PFvvEPK10MethodInfoPvPS4_
Mkd:_Graphic_set_color_m646149893
i$g:_Dictionary_2_System_Collections_ICollection_get_IsSynchronized_m960517203_gshared
_Nj:_write
Ima:__ZN14SafeBinaryRead19TransferSTLStyleMapINSt3__23mapIN4core12basic_stringIcNS3_20StringStorageDefaultIcEEEES7_NS1_4lessIS7_EE13stl_allocatorINS1_4pairIKS7_S7_EEL18MemLabelIdentifier1ELi16EEEEEEvRT_17TransferMetaFlags
hRf:_Type_MakeByRefType_m1323101575
MNc:__ZN2UI6Canvas27UpdateEventIndexesRecursiveERi
YV:__ZN11UnityEngine15CloudWebService16SessionContainer21PrepareDataErrorEventERN4core12basic_stringIcNS2_20StringStorageDefaultIcEEEE
tBc:_UNITY_FT_Outline_New
SBj:__ZNSt3__218uninitialized_copyIPNS_4pairIK10KeyWrapperIPK19Il2CppGenericMethodEP10MethodInfoEESB_EET0_T_SD_SC_
CBh:__ZL85GUI_t4082743951_CustomAttributesCacheGenerator_GUI_set_nextScrollStepTime_m2724006954P21CustomAttributesCache
zMb:__Z19TransferField_ArrayI19StreamedBinaryWriteILb0EE27Converter_SimpleNativeClassI8GUIStyleEEvRK23StaticTransferFieldInfoR31RuntimeSerializationCommandInfoRT0_
Rph:__ZL101AssetBundleRequest_t2674559435_CustomAttributesCacheGenerator_AssetBundleRequest_get_asset_m624603186P21CustomAttributesCache
Sda:__ZNK13ScreenManager12GetIsFocusedEv
q2h:_AnimatorControllerPlayable_CrossFade_m1077061813_AdjustorThunk
aCf:_RemotingServices_RegisterInternalChannels_m1827304423
MFg:_GUIStyle_get_onNormal_m1675201777
zr:__ZL32CleanupAnimationScriptingClassesv
Hsc:__Z35Transfer_Blittable_FixedBufferFieldI8JSONReadiEvRK29SerializationCommandArgumentsR31RuntimeSerializationCommandInfo
eaj:__ZNSt3__213__vector_baseIN6il2cpp2os19SocketHandleWrapperENS_9allocatorIS3_EEED2Ev
cwe:_ASN1_get_Length_m3359111015
QOh:__ZL143U3CBootU3Ec__Iterator0_t1191820930_CustomAttributesCacheGenerator_U3CBootU3Ec__Iterator0_System_Collections_IEnumerator_get_Current_m3640049541P21CustomAttributesCache
aFg:_GUISkin_get_verticalScrollbarThumb_m649633186
Y8f:__Z66RuntimeInvoker_InternalShaderChannel_t3331827198_Int32_t2071877448PFvvEPK10MethodInfoPvPS4_
KHg:_GUIStyleState_Cleanup_m705006206
W5f:__Z77RuntimeInvoker_RuntimeObject_Int32_t2071877448_RuntimeObject_SByte_t454417549PFvvEPK10MethodInfoPvPS4_
lc:invoke_viiffi
Iv:__ZN7mecanim18ValueArrayBlendEndILb0EEEvPKNS_10ValueArrayERKNS_14ValueArrayMaskERKNS_16ValueArrayWeightERS1_
Fbb:__ZN13sorted_vectorINSt3__24pairIN4core12basic_stringIcNS2_20StringStorageDefaultIcEEEEPK17MessageIdentifierEEN10vector_mapIS6_S9_NS0_4lessIS6_EENS0_9allocatorISA_EEE13value_compareESF_E10insert_oneERKSA_
KB:__ZNSt3__227__insertion_sort_incompleteIRPFbPKN8Animator11AnimatorJobES4_EPS4_EEbT0_S9_T_
uNf:_Thread_GetCachedCurrentUICulture_m5590127
P9f:__Z36RuntimeInvoker_Matrix4x4_t2933234003PFvvEPK10MethodInfoPvPS4_
Vnb:__ZNK12CubemapArray20GetRuntimeMemorySizeEv
PMi:_Vector3_Dot_m3161182818
tgi:_CrossAppDomainSink_get_TargetDomainId_m775204051
AUb:__Z14resize_trimmedINSt3__26vectorIN9ShaderLab18SerializedPropertyENS0_9allocatorIS3_EEEEEvRT_j
rZi:__ZL25UnresolvedVirtualCall_158P12Il2CppObject18Color32_t874517518PK10MethodInfo
ARe:_List_1_CheckMatch_m4018158235_gshared
$te:_Context_t2636657155_marshal_pinvoke_back
e8i:__ZN6il2cpp2vm13MetadataCache38GetMethodInfoFromMethodDefinitionIndexEi
Uwd:_Byte_System_IConvertible_ToDateTime_m1583041031
agc:__Z39MonoBehaviour_CUSTOM_GetScriptClassNameP12Il2CppObject
stb:__ZN10VertexData8TransferI24GenerateTypeTreeTransferEEvRT_
kBh:__ZL98CanvasRenderer_t261436805_CustomAttributesCacheGenerator_CanvasRenderer_get_absoluteDepth_m4243141P21CustomAttributesCache
xBj:__ZN13Il2CppHashMapIPK19Il2CppGenericMethodP10MethodInfoN6il2cpp8metadata23Il2CppGenericMethodHashENS6_26Il2CppGenericMethodCompareENSt3__29allocatorINS9_4pairIK10KeyWrapperIS2_ES4_EEEEEC2EjRKS7_RKS8_
Vze:_EncryptedData_get_EncryptionAlgorithm_m1301274243
mwh:__ZL68DrivenTransformProperties_t2488747555_CustomAttributesCacheGeneratorP21CustomAttributesCache
G4a:__ZL10CullLightsRK22SceneCullingParametersR11CullResults
Sjd:_Dropdown__cctor_m264401557
Vtd:_Array_IndexOf_m2819632474
cxi:_Comparer_1__cctor_m3996541505_gshared
Ww:__ZN7mecanim12statemachine20GetBlendTreeConstantERKNS0_13StateConstantEi
g5b:__Z40GetTemporaryCachePathApplicationSpecificv
tBa:__ZN9GfxDevice16EndAsyncJobFrameEv
Rnd:_Image_get_minWidth_m1809071077
ekj:__ZNK15dense_hashtableINSt3__24pairIK10KeyWrapperINS1_IPK12PropertyInfoP11Il2CppClassEEEjEES9_17ReflectionMapHashIS8_EN14dense_hash_mapIS9_jSD_NS9_14EqualsComparerINS0_8equal_toIS8_EEEENS0_9allocatorISB_EEE9SelectKeyESI_SK_E10test_emptyERK30dense_hashtable_const_iteratorISB_S9_SD_SM_SI_SK_E
nCc:_UNITY_tt_face_load_hhea
lii:_ContextAttribute_IsNewContextOK_m2186905629
kci:_PersistentCall__ctor_m2079279187
jGd:_Convert_ToBase64String_m1936815455
Sk:___syscall3
Vk:___syscall6
NCa:__ZN9GfxDevice15GetNextCPUFenceEv
Xk:___syscall4
Fmh:__ZL49Random_t1044426839_CustomAttributesCacheGeneratorP21CustomAttributesCache
$Od:_Decimal_ToString_m759431975
I_e:_Collection_1_System_Collections_IList_get_IsFixedSize_m2204750039_gshared
GYi:__ZL25UnresolvedVirtualCall_119P12Il2CppObjectiaPK10MethodInfo
xfd:_ColorBlock_get_fadeDuration_m987725262
fLh:__ZL195U3CMouseDragOutsideRectU3Ec__Iterator1_t2599668326_CustomAttributesCacheGenerator_U3CMouseDragOutsideRectU3Ec__Iterator1_System_Collections_Generic_IEnumeratorU3CobjectU3E_get_Current_m2602955272P21CustomAttributesCache
Z7f:__Z86RuntimeInvoker_Void_t1841601450_RuntimeObject_Vector3U26_t425862308_RayU26_t3651946800PFvvEPK10MethodInfoPvPS4_
UGf:_CryptographicException__ctor_m2415891459
ILe:_List_1_AddCollection_m3266731889_gshared
F9b:__ZN9Scripting25BroadcastScriptingMessageER10GameObjectPKc18ScriptingObjectPtr
ll:_emscripten_glShaderBinary
hXe:_Collection_1_System_Collections_IList_set_Item_m150887383_gshared
f4d:_Array_qsort_TisVector2_t2243707579_TisVector2_t2243707579_m3308480721_gshared
jX:__ZN15DownloadHandler19OnFinishReceiveDataEv
C7h:_Camera_INTERNAL_CALL_RaycastTry_m1030092423
clf:_SslStreamBase_Dispose_m747909841
xpi:_InternalEnumerator_1_Dispose_m4038440306_AdjustorThunk
_4f:__Z21RuntimeInvoker_Guid_tPFvvEPK10MethodInfoPvPS4_
Onf:_DictionaryNodeEnumerator_get_DictionaryNode_m3521889822
_t:__ZN7mecanim5human19MaskHasLeftFootGoalERKNS_6bitsetILj70EEE
Big:__Z101RuntimeInvoker_Int32_t2071877448_RuntimeObject_Color32_t874517518_Int32_t2071877448_Int32_t2071877448PFvvEPK10MethodInfoPvPS4_
GKg:_Mesh_get_colors32_m4153271224
hRc:__Z58Register_UnityEngine_Canvas_GetETC1SupportedCanvasMaterialv
MOb:__ZN17AnimationCurveTplIfE8TransferI18StreamedBinaryReadILb1EEEEvRT_
jNd:_DateTimeOffset_GetHashCode_m3312197462_AdjustorThunk
cTc:__ZN18UnityConnectClientD2Ev
qqf:_ServicePoint_set_UseNagleAlgorithm_m2618011464
cdj:_il2cpp_set_data_dir
JCi:_Uri_get_IsUnc_m2111738174
Clh:__ZL79Convert_t2607082565_CustomAttributesCacheGenerator_Convert_ToUInt64_m1691869628P21CustomAttributesCache
cib:__ZN16LevelGameManager23VirtualRedirectTransferER19StreamedBinaryWriteILb0EE
ntb:__Z32TransferEnumWithNameForceIntSizeI14SafeBinaryRead16GfxPrimitiveTypeEvRT_RT0_PKc17TransferMetaFlags
Mvi:_DefaultComparer__ctor_m1961329658_gshared
Vvg:_ParameterBuilder_get_Attributes_m2421099277
Jgg:__Z66RuntimeInvoker_Void_t1841601450_ObjectU26_t597476745_RuntimeObjectPFvvEPK10MethodInfoPvPS4_
zKi:_TouchScreenKeyboard_get_done_m406461410
CIi:_DataUtility_INTERNAL_CALL_GetPadding_m1621366113
tjj:__ZN15dense_hashtableINSt3__24pairIK10KeyWrapperINS1_IPK11Il2CppImageP11Il2CppClassEEEjEES9_17ReflectionMapHashIS8_EN14dense_hash_mapIS9_jSD_NS9_14EqualsComparerINS0_8equal_toIS8_EEEENS0_9allocatorISB_EEE9SelectKeyESI_SK_E5clearEv
TZi:__ZL25UnresolvedVirtualCall_186P12Il2CppObject20TimeSpan_t3430258949PK10MethodInfo
nwg:_TypeBuilder_IsValueTypeImpl_m1499671481
nSc:__ZN11UnityEngine15PlatformWrapper30GetGraphicsDriverLibraryStringEv
GTg:_Enumerator_VerifyState_m262343092_AdjustorThunk
cMi:_Vector2_ToString_m775491729
iMe:_List_1_get_Count_m1752597149_gshared
Vcf:_EncryptedPrivateKeyInfo_Decode_m1706190306
RPb:__Z18Transfer_BlittableI18StreamedBinaryReadILb0EELb0E4AABBEvRK29SerializationCommandArgumentsR31RuntimeSerializationCommandInfo
zD:__ZN16MecanimAnimation24DeleteAnimatedPropertiesERP26IAnimatedPropertyEvaluator
g2f:__Z42RuntimeInvoker_CspProviderFlags_t105264000PFvvEPK10MethodInfoPvPS4_
qKd:_Convert_ToUInt16_m1665900934
b0i:_Converter_2_BeginInvoke_m898151494_gshared
gce:_RegionInfo__ctor_m2058831971
fVa:__Z14DrawGUITextureRK5RectTIfEP7Texture11ColorRGBA32P8Materiali
RWh:_Text_get_supportRichText_m3291105891
TQg:_RectTransform_GetParentSize_m1571597933
yA:__ZN9BlobWrite8TransferI22OffsetPtrArrayTransferIKN4math7_float4EEEEvRT_PKc17TransferMetaFlags
u7e:_ReadOnlyCollection_1_get_Count_m336636247_gshared
Dja:__ZN15TextureSettings8TransferI24GenerateTypeTreeTransferEEvRT_
Xxi:_MatchCollection_GetEnumerator_m3516985966
tsc:__ZN9JSONWrite8TransferI4AABBEEvRT_PKc17TransferMetaFlags
uJf:_UTF7Encoding__ctor_m2365939916
QQa:__ZN25MultiBlocksMemoryFileData9SetLengthEy
lJi:_TextGenerationSettings_Equals_m3944651893_AdjustorThunk
vai:_DelegatePInvokeWrapper_StateChanged_t2480912210
KPh:_MatEntry__ctor_m3650167335
hSi:_ListPool_1_U3Cs_ListPoolU3Em__0_m441310157_gshared
Dob:__ZNK9Texture2D20GetRuntimeMemorySizeEv
nRf:_TypeInitializationException__ctor_m2993591639
N2g:_EqualityComparer_1__ctor_m3788663378_gshared
tm:_emscripten_glUniform2iv
wgh:__ZL46DES_t1353513560_CustomAttributesCacheGeneratorP21CustomAttributesCache
gee:_Int16_System_IConvertible_ToInt64_m733340257
$Jg:_Matrix4x4_ToString_m1982554457_AdjustorThunk
Nyc:_UNITY_FT_Outline_Transform
sFg:_SkinChangedDelegate_BeginInvoke_m4259161711
eic:__Z60Register_UnityEngine_Sprites_DataUtility_Internal_GetMinSizev
B3i:__ZN6il2cpp2vm5Class10GetMethodsEP11Il2CppClassPPv
LVc:__ZNK25UnityWebRequestJavaScript17GetUploadProgressEv
r0a:__Z30AddDefaultStreamsToMeshBuffersR9GfxDeviceR11MeshBuffersRK16DrawBuffersRange17ShaderChannelMaskS6_
tig:__Z86RuntimeInvoker_Int32_t2071877448_Vector2_t2243707579_Vector2_t2243707579_RuntimeObjectPFvvEPK10MethodInfoPvPS4_
N2c:_Hash_GetObjectData_m315532943
YJa:__ZN7ApiGLES17DeleteFramebufferERN2gl6HandleILNS0_10ObjectTypeE9EEES3_
dMa:__ZN15UniformTFMethod13MapBoneBufferEj
ggf:_RecordProtocol_SendAlert_m2816808523
OMc:__ZN2UI14CanvasRendererD2Ev
Gyf:_MethodCall_get_LogicalCallContext_m3769562079
Vpj:__ZN6il2cpp6icalls8mscorlib6System5Array8SetValueEP11Il2CppArrayP12Il2CppObjectS5_
jne:_SynchronizedReader_Read_m1399666181
lyg:_MonoEvent_get_Name_m2796714646
Nfa:__Z9SetupArgviPPKc
Fjg:__Z53RuntimeInvoker_Void_t1841601450_LabelData_t3712112744PFvvEPK10MethodInfoPvPS4_
RYd:_Array_InternalArray__IEnumerable_GetEnumerator_TisHitInfo_t1761367055_m2486283755_gshared
scd:_PointerEventData_set_worldNormal_m2025727441
nhf:_Context_get_SentConnectionEnd_m3114190867
Ngb:__ZN12ImmediatePtrI10GameObjectE8TransferI19StreamedBinaryWriteILb0EEEEvRT_
Znb:__ZN12CubemapArray23VirtualRedirectTransferER24GenerateTypeTreeTransfer
RWi:__ZL24UnresolvedVirtualCall_22P12Il2CppObjectS0_iS0_S0_S0_PK10MethodInfo
d6:__ZN12FileAccessor4OpenER15FileSystemEntry14FilePermission16FileAutoBehavior
C3e:_ReadOnlyCollection_1__ctor_m2364452928_gshared
gAj:__ZN6il2cpp2os9Directory6CreateERKNSt3__212basic_stringIcNS2_11char_traitsIcEENS2_9allocatorIcEEEEPi
X2h:_AnimatorControllerPlayable_Play_m1490151611_AdjustorThunk
Ena:__ZN4PPtrI6ShaderE8TransferI18StreamedBinaryReadILb0EEEEvRT_
U6a:__ZN23TransformChangeDispatch32QueueTransformChangeIfHasChangedERK15TransformAccess
Xbd:_PointerEventData_set_clickTime_m3931922487
GX:__ZNSt3__24listIP19CloudServiceHandler13stl_allocatorIS2_L18MemLabelIdentifier86ELi16EEE6removeERKS2_
wCg:_WindowFunction__ctor_m977095815
gae:_NumberFormatter_AppendNonNegativeNumber_m629862866
roa:__ZNSt3__26vectorINS_4pairIN9ShaderLab16FastPropertyNameEN18UnityPropertySheet11UnityTexEnvEEENS_9allocatorIS6_EEE21__push_back_slow_pathIKS6_EEvRT_
cTa:__ZN15ArchiveReadFile5WriteEyPKvPy
Gdi:_ResourceInfo__ctor_m2401359321_AdjustorThunk
BAj:__ZN6il2cpp2os26LibraryNamePrefixAndSuffixC2EPKcS3_
pDd:_Hashtable__ctor_m392789568
YMf:_Mutex_CreateMutex_internal_m2352956576
sLf:_UTF7Encoding__cctor_m4192443836
Q9h:_Component_SendMessage_m2241432133
knc:__Z31GUIStyle_CUSTOM_SetFontInternalP12Il2CppObjectS0_
B:tempValue
edb:__Z29StdTemplateConversionFunctionIaiEbPvR14SafeBinaryRead
sLj:__ZN6il2cpp8metadata24Il2CppGenericContextHash4HashEPK20Il2CppGenericContext
kee:_Int16_System_IConvertible_ToSingle_m3277935657
h2:__Z29scripting_class_from_fullnamePKcS0_S0_
Lrh:__ZL97GameObject_t1756533147_CustomAttributesCacheGenerator_GameObject_GetComponentInParent_m1235194528P21CustomAttributesCache
DRh:_Raycast3DCallback_Invoke_m2271859924
ux:__ZN26AnimatorControllerPlayable18DeallocateBindingsEv
b3h:_AnimatorControllerPlayable_HasState_m3003093532
MP:__ZN11AudioSource19CreateOpenALRolloffEfff
yBh:__ZL83Event_t3028476042_CustomAttributesCacheGenerator_Event_set_displayIndex_m3631666901P21CustomAttributesCache
aDc:_UNITY_FT_Stream_ReadAt
bvh:__ZL111Object_t1021602117_CustomAttributesCacheGenerator_Object_DestroyImmediate_m3563317232____allowDestroyingAssets1P21CustomAttributesCache
KZf:__Z38RuntimeInvoker_MemberTypes_t3343038963PFvvEPK10MethodInfoPvPS4_
iSg:_Enumerator_get_CurrentKey_m2387752419_AdjustorThunk
mGg:_GUIStyle_get_lineHeight_m2132859383
IH:__Z87Register_UnityEngine_Animations_AnimatorControllerPlayable_INTERNAL_CALL_GetFloatStringv
p7i:__ZN15dense_hashtableINSt3__24pairIK10KeyWrapperIN6il2cpp5utils13dynamic_arrayIPK10Il2CppTypeLj4EEEEPFvvEEESA_NS3_8metadata19Il2CppSignatureHashEN14dense_hash_mapISA_SD_SG_NSA_14EqualsComparerINSF_22Il2CppSignatureCompareEEENS0_9allocatorISE_EEE9SelectKeyESK_SM_E9set_valueEPSE_RKSE_
Gci:_UnityEvent_FindMethod_Impl_m3303953986
tRf:_UInt16_System_IConvertible_ToBoolean_m887616848
gqh:__ZL120ScriptableObject_t1975622470_CustomAttributesCacheGenerator_ScriptableObject_Internal_CreateScriptableObject_m1778903390P21CustomAttributesCache
NS:__ZN11AudioModule22CreateAudioClipFromWWWEP10IWWWStreamPKcbbi
iKf:_StringBuilder_set_Length_m3039225444
Nfg:__Z37RuntimeInvoker_AspectMode_t1166448724PFvvEPK10MethodInfoPvPS4_
B_e:_Collection_1_System_Collections_IList_Contains_m3870109702_gshared
JVd:_Array_InternalArray__ICollection_Contains_TisRaycastResult_t21186376_m3188614988_gshared
$Kd:_CultureAwareComparer_GetHashCode_m3681260951
KOc:__Z13RegisterClassIN2UI11CanvasGroupEEvv
MRi:_U3CStartU3Ec__Iterator0__ctor_m951808111_gshared
HYb:__ZN6prcoreL11inner_clearILj4EEEvPhjjj
vf:_emscripten_glClear
MRh:_Selectable__ctor_m1440593935
TYi:__ZL25UnresolvedVirtualCall_132P12Il2CppObject17Color_t2020392075faaaPK10MethodInfo
eaa:__ZNK8Playable6HandleEv
YQj:___cxa_guard_abort
Gqg:_CustomAttributeTypedArgument_t1498197914_marshal_pinvoke_back
m4:__ZN14MessageHandler28MessageIDToMessageIdentifierEi
fpf:_HttpRequestCreator_Create_m3607509610
RBh:__ZL50GUISkin_t1436893342_CustomAttributesCacheGeneratorP21CustomAttributesCache
Ptb:__ZNK11SpriteAtlas20GetRuntimeRenderDataEPK6Sprite
lYi:__ZL24UnresolvedVirtualCall_98P12Il2CppObject8IntPtr_tPK10MethodInfo
BSe:_List_1_Shift_m3824049528_gshared
ICf:_ArrayFixupRecord__ctor_m3659990982
zhf:_Context_get_RandomCS_m3946020109
K5g:__ZL72IntPtr_t_CustomAttributesCacheGenerator_IntPtr_op_Inequality_m3044532593P21CustomAttributesCache
cjd:_Dropdown_get_onValueChanged_m3334401942
QIj:__ZN6il2cpp2vm10WaitHandle19NewManualResetEventEb
ELi:_UISystemProfilerApi_EndSample_m2059427490
V4e:_ReadOnlyCollection_1_System_Collections_IList_Contains_m3707723158_gshared
qVf:_Version_GetHashCode_m880841176
lv:__ZN7mecanim14ValueArrayCopyILb0EEEvPKNS_10ValueArrayEPS1_
qG:__Z51Register_UnityEngine_Animator_get_hasBoundPlayablesv
T0i:_Nullable_1_ToString_m1238126148_AdjustorThunk
Md:emscriptenWebGLGetUniform
Co:FUNCTION_TABLE_iiiiiiiiiii
Sva:__Z32TransferEnumWithNameForceIntSizeI14SafeBinaryRead13TextureFormatEvRT_RT0_PKc17TransferMetaFlags
HLh:__ZL86Scrollbar_t3248359358_CustomAttributesCacheGenerator_Scrollbar_ClickRepeat_m3403943364P21CustomAttributesCache
n6a:__ZL10CleanUpJobP20CullingGroupsJobData
Eyd:_Char_CompareTo_m3044885427_AdjustorThunk
kje:_FileStream_GetSecureFileName_m508045384
q0a:__Z20IsRunningNativeTestsv
yri:_InternalEnumerator_1_System_Collections_IEnumerator_get_Current_m2035754659_AdjustorThunk
Jwb:__ZN10MeshFilter23VirtualRedirectTransferER24GenerateTypeTreeTransfer
YUa:__ZN13RenderManager15BatchModeUpdateEv
t1i:_Predicate_1_EndInvoke_m973058386_gshared
dth:__ZL52LayerMask_t3188175821_CustomAttributesCacheGeneratorP21CustomAttributesCache
iXe:_Collection_1_Add_m3985367602_gshared
Wsb:__ZN14SafeBinaryRead21TransferSTLStyleArrayI13dynamic_arrayI8Vector2fLj4EEEEvRT_17TransferMetaFlags
noa:__ZN17PersistentManager51InstanceIDToLocalSerializedObjectIdentifierInternalEiR31LocalSerializedObjectIdentifier
HAg:_StrongNameKeyPair_System_Runtime_Serialization_IDeserializationCallback_OnDeserialization_m2330221363
eIc:_UNITY_FT_Create_Class_cff_services
Kvi:_DefaultComparer__ctor_m1661558765_gshared
WCg:_GUILayoutEntry_CalcWidth_m2520096159
pd:_glVertexAttribIPointer
KUf:_UnhandledExceptionEventHandler_EndInvoke_m2207457167
WXg:_Dictionary_2_System_Collections_ICollection_get_IsSynchronized_m304009368_gshared
QXc:_HMAC_set_HashName_m457235014
_6b:__ZNK6Sprite10GetPaddingE20SpriteRenderDataMode
UUd:_Array_InternalArray__ICollection_Contains_TisTableRange_t2011406615_m605506746_gshared
qYg:_Dictionary_2_Add_m1296007576_gshared
_Jd:_Decimal_op_Explicit_m729046406
cHf:_CryptoConfig_CreateFromName_m2169102076
kld:_Graphic_OnEnable_m2900261811
fHf:_CryptographicUnexpectedOperationException__ctor_m3552441227
oAd:_ArrayListWrapper_Clear_m321161741
kqd:_InputField_LineDownCharacterPosition_m2690468785
$Cc:_UNITY_ft_glyphslot_alloc_bitmap
w5d:_Array_Sort_TisVector2_t2243707579_TisVector2_t2243707579_m2582252549_gshared
tTf:_UInt64_System_IConvertible_ToDouble_m2828923873
d6i:__ZN15dense_hashtableI10KeyWrapperIPK17Il2CppGenericInstES4_N6il2cpp8metadata21Il2CppGenericInstHashEN14dense_hash_setIS4_S7_NS4_14EqualsComparerINS6_24Il2CppGenericInstCompareEEENSt3__29allocatorIS4_EEE8IdentityESB_SE_E16reset_thresholdsEv
q$b:__ZZN2UI13RectTransform15InitializeClassEvEN31FunctorImpl_62kTransformChanged4CallEPviR11MessageData
zNe:_List_1_System_Collections_IList_set_Item_m1129584681_gshared
aNf:_SendOrPostCallback__ctor_m107067079
vEc:_ft_raster1_render
hhc:__Z57Register_UnityEngine_RectTransform_INTERNAL_set_anchorMaxv
tIe:_List_1_set_Capacity_m491101164_gshared
IPj:__ZNKSt3__221__basic_string_commonILb1EE20__throw_length_errorEv
GKf:_StringBuilder_Insert_m1733097906
fxi:_Comparer_1__ctor_m1157133632_gshared
Wlf:_SslStreamBase_get_HashStrength_m480059173
z9e:_Comparison_1_EndInvoke_m2678763282_gshared
AWg:_ValueCollection_System_Collections_Generic_ICollectionU3CTValueU3E_Clear_m3271993638_gshared
Y6f:__Z35RuntimeInvoker_Position_t3781184359PFvvEPK10MethodInfoPvPS4_
WFd:_Enumerator_MoveNext_m1419609883
uL:__ZN4FMOD7Channel19setReverbPropertiesEPK29FMOD_REVERB_CHANNELPROPERTIES
M3:__ZN13MonoBehaviour22GetScriptFullClassNameEv
tej:_il2cpp_object_get_class
Yah:__ZL111DerivedType_t1016359113_CustomAttributesCacheGenerator_DerivedType_MakeGenericType_m742223168____typeArguments0P21CustomAttributesCache
xMi:_Vector2__cctor_m3670745621
q7e:_ReadOnlyCollection_1_Contains_m1816350632_gshared
ppf:_ServicePointManager_FindServicePoint_m3137356168
PZi:__ZL25UnresolvedVirtualCall_182P12Il2CppObject19Vector3_t2243707580S1_PK10MethodInfo
Dua:__ZN20SphericalHarmonicsL211AddWeightedERKS_f
aIh:__ZL106PointerEventData_t1599784723_CustomAttributesCacheGenerator_PointerEventData_set_pressPosition_m2094137883P21CustomAttributesCache
Kcd:_PointerInputModule_GetPointerData_m1695674453
j2f:__Z90RuntimeInvoker_Void_t1841601450_RuntimeObject_RuntimeObject_RuntimeObject_SByte_t454417549PFvvEPK10MethodInfoPvPS4_
_Ib:__Z19TransferField_ArrayI17RemapPPtrTransfer27Converter_SimpleNativeClassI8GUIStyleEEvRK23StaticTransferFieldInfoR31RuntimeSerializationCommandInfoRT0_
h1:__ZL22StaticInitializeShaderPv
WKd:_Convert_ToUInt64_m345450801
W0i:_Predicate_1_BeginInvoke_m2559992383_gshared
upc:__ZN9JSONWrite8TransferI10ColorRGBAfEEvRT_PKc17TransferMetaFlags
Eai:_Debug_Log_m920475918
FPe:_List_1_Find_m1270109362_gshared
g4:__Z25scripting_method_get_name18ScriptingMethodPtr
qhc:__Z35Register_UnityEngine_Resources_Loadv
zHb:__Z19TransferField_ArrayI14SafeBinaryRead16Converter_StringEvRK23StaticTransferFieldInfoR31RuntimeSerializationCommandInfoRT0_
cPj:_rename
bHj:_GC_exit_check
fre:_NotSupportedException__ctor_m3232764727
Fof:_TypeConverterAttribute_Equals_m2330345916
FCh:__ZL86GUIStyle_t1799908754_CustomAttributesCacheGenerator_GUIStyle_get_alignment_m3513439031P21CustomAttributesCache
w6f:__Z90RuntimeInvoker_Boolean_t3825574718_Int32_t2071877448_Int32U26_t455636984_Int32_t2071877448PFvvEPK10MethodInfoPvPS4_
M2:__Z20UnlockObjectCreationv
y8f:__Z54RuntimeInvoker_Int32_t2071877448_LayerMask_t3188175821PFvvEPK10MethodInfoPvPS4_
m$i:_Hacker_Start_m3377866405
Mie:_MonoIO_CreateDirectory_m379525469
DZd:__ZN21InterfaceFuncInvoker2Ii22UILineInfo_t3621277874S0_E6InvokeEjP11Il2CppClassP12Il2CppObjectS0_S0_
pA:__ZN9BlobWrite8TransferI22OffsetPtrArrayTransferI9OffsetPtrIN7mecanim12statemachine18StateMachineMemoryEEEEEvRT_PKc17TransferMetaFlags
CAc:_UNITY_ft_smooth_renderer_class_pic_free
jQe:_List_1_System_Collections_IList_Remove_m3763718607_gshared
J6h:_Bounds_get_center_m129401026
cR:__ZN19AudioPlayableOutput22OnConnectionHashChangeEv
S5c:_String_Concat_m2000667605
P2i:__ZN24dense_hashtable_iteratorINSt3__24pairIK10KeyWrapperIPK22Il2CppGenericParameterEP11Il2CppClassEES6_N6il2cpp5utils11PointerHashIS4_EEN14dense_hash_mapIS6_S9_SE_NS6_14EqualsComparerINS0_8equal_toIS5_EEEENS0_9allocatorISA_EEE9SelectKeyESJ_SL_E30advance_past_empty_and_deletedEv
baj:__ZN6il2cpp2os19SocketHandleWrapperC2ERKS1_
pCj:__ZN6il2cpp2vm6String8NewUtf16EPKDsi
Fzj:__ZN6il2cpp2os10ThreadImpl12QueueUserAPCEPFvPvES2_
DI:__Z32TransferEnumWithNameForceIntSizeI14SafeBinaryReadN10SampleClip17CompressionFormatEEvRT_RT0_PKc17TransferMetaFlags
VSc:__ZN22BaseUnityConnectClient10QueueEventERN11UnityEngine15CloudWebService17CloudServiceEventEPKcjb
tfg:__Z71RuntimeInvoker_Bounds_t3033363703_RuntimeObject_Matrix4x4U26_t266301477PFvvEPK10MethodInfoPvPS4_
m9d:_ExecuteEvents_GetEventHandler_TisRuntimeObject_m3333041576_gshared
DNe:__ZN23InterfaceActionInvoker2IP28UICharInfoU5BU5D_t2749705857iE6InvokeEjP11Il2CppClassP12Il2CppObjectS1_i
Ysh:__ZL81Input_t1785128008_CustomAttributesCacheGenerator_Input_get_touchCount_m2050827666P21CustomAttributesCache
Lbj:__ZNSt3__26__treeIP11Il2CppClassNS_4lessIS2_EENS_9allocatorIS2_EEE16__insert_node_atEPNS_16__tree_node_baseIPvEERSB_SB_
$$c:_SHA384Managed_unpackWord_m2501009050
WJc:_UNITY_FT_Hypot
ivd:_BitConverter_ToInt64_m1329623425
Z$b:__ZN8RendererC2E12RendererType18MemLabelIdentifier18ObjectCreationMode
eih:__ZL95ASCIIEncoding_t3022927988_CustomAttributesCacheGenerator_ASCIIEncoding_GetByteCount_m1396020051P21CustomAttributesCache
Gdj:_il2cpp_class_is_abstract
Ff:_emscripten_glGetError
ylj:__ZN15dense_hashtableINSt3__24pairIK10KeyWrapperIPK14Il2CppAssemblyEPK22Il2CppMonoAssemblyNameEES6_N6il2cpp5utils11PointerHashIS4_EEN14dense_hash_mapIS6_SA_SF_NS6_14EqualsComparerINS0_8equal_toIS5_EEEENS0_9allocatorISB_EEE9SelectKeyESK_SM_E14squash_deletedEv
LWf:__Z70RuntimeInvoker_Boolean_t3825574718_RuntimeObject_UInt64U26_t1611942494PFvvEPK10MethodInfoPvPS4_
hM:__Z14FMOD_FILE_SeekPvjS_
Jyf:_MethodCall_get_Properties_m1893707917
f6g:__ZL72Enum_t2459695545_CustomAttributesCacheGenerator_Enum_ToObject_m604645223P21CustomAttributesCache
LTg:_ShimEnumerator_get_Entry_m2387156530_gshared
w6g:__ZL82RuntimeArray_CustomAttributesCacheGenerator_Array_SetValue_m2421438042____indices1P21CustomAttributesCache
P7i:__ZN14dense_hash_mapI10KeyWrapperIN6il2cpp5utils13dynamic_arrayIPK10Il2CppTypeLj4EEEEPFvvENS1_8metadata19Il2CppSignatureHashENS8_14EqualsComparerINSB_22Il2CppSignatureCompareEEENSt3__29allocatorINSG_4pairIKS8_SA_EEEEEC2EjRKSC_RKSF_
M7a:__ZNK13RenderTexture32CalculateNeedsInvertedProjectionEv
jfb:__ZN10systeminfo18GetOperatingSystemEv
Nf:emscriptenWebGLGet
cQg:_Rect_GetHashCode_m559954498_AdjustorThunk
n6:__Z19CanReplaceComponentRN5Unity9ComponentEPKNS_4TypeEPN4core12basic_stringIcNS5_20StringStorageDefaultIcEEEE
v7g:__ZL77RuntimeArray_CustomAttributesCacheGenerator_Array_ConstrainedCopy_m1922927602P21CustomAttributesCache
h1b:__ZN12CubemapArray11InitTextureEiii13TextureFormatb
yOe:_List_1_GrowIfNeeded_m2433342921_gshared
PPa:__ZNK15Lz4Decompressor20DecompressStreamInitEPPv
W6i:__ZNSt3__27__sort4IRN6il2cpp5utils11collections13ArrayValueMapIPK10Il2CppType17Il2CppInteropData26InteropDataToTypeConverterNS1_8metadata14Il2CppTypeLessENSA_26Il2CppTypeEqualityComparerEE12SortComparerEPS8_EEjT0_SH_SH_SH_T_
MWe:_Collection_1_set_Item_m3803272710_gshared
LKg:_Mesh_SetUVs_m841280343
wzg:_MonoMethodInfo_t3646562144_marshal_pinvoke_cleanup
Hsf:_X509Certificate2_get_SignatureAlgorithm_m3069898012
epf:_HttpRequestCreator__ctor_m2513916021
qge:_Int64_System_IConvertible_ToSingle_m1678482180
YGg:_GUIStyle_INTERNAL_CALL_Internal_CalcSizeWithConstraints_m1203344891
YA:__ZN7mecanim5human13HumanFixTwistEPKNS0_5HumanEPNS_8skeleton13SkeletonPoseTIN4math4trsXEEES9_iiRKf
$0a:__ZL24AssignProjectorQueuesJobP30AssignProjectorQueuesJobHeader
MOf:_TimeSpan_get_Hours_m3804628138
tkd:_FontData_set_alignByGeometry_m2819509290
uwj:__ZN14dense_hash_mapI10KeyWrapperIP12Il2CppObjectEN6il2cpp2gc9CachedCCWENS4_5utils11PointerHashIS1_EENS3_14EqualsComparerINSt3__28equal_toIS2_EEEENSB_9allocatorINSB_4pairIKS3_S6_EEEEEC2EjRKS9_RKSE_
ezi:_Regex__ctor_m3250610064
v7i:__ZN15dense_hashtableINSt3__24pairIK10KeyWrapperIN6il2cpp5utils13dynamic_arrayIPK10Il2CppTypeLj4EEEEPFvvEEESA_NS3_8metadata19Il2CppSignatureHashEN14dense_hash_mapISA_SD_SG_NSA_14EqualsComparerINSF_22Il2CppSignatureCompareEEENS0_9allocatorISE_EEE9SelectKeyESK_SM_E4swapERSP_
EWb:__ZN9ShaderLab20SerializedSubProgram14SetConstBufferEPKci
RCe:_ArgumentNullException__ctor_m911049464
Pxg:_TargetParameterCountException__ctor_m2760108938
iAf:_SoapAttribute_SetReflectionObject_m2774156012
kTi:_Check_Source_m3385315029
sPi:_InvokableCall_4_Find_m1467690987_gshared
$8e:_Comparison_1_Invoke_m345024424_gshared
vGc:_cf2_getStdVW
b6e:_ReadOnlyCollection_1_System_Collections_IList_Insert_m3936197025_gshared
BSd:_EventHandler_BeginInvoke_m3027583606
b$:__Z40DebugStringToFilePostprocessedStacktraceRK21DebugStringToFileData
ouc:__Z29Transfer_Blittable_ArrayFieldI8JSONReadjEvRT_R9ArrayInfoRK23StaticTransferFieldInfo
NIi:_StateMachineBehaviour_OnStateEnter_m1095276890
aMg:_Object_GetInstanceID_m1920497914
dii:_ContextAttribute__ctor_m4006843177
_qi:_InternalEnumerator_1_get_Current_m314017974_AdjustorThunk
sg:__setLetterbox
ske:_MemoryStream__ctor_m1043059966
Doa:__ZNSt3__26__treeINS_12__value_typeIN9ShaderLab16FastPropertyNameEfEENS_19__map_value_compareIS3_S4_NS_4lessIS3_EELb1EEENS_9allocatorIS4_EEE12__find_equalIS3_EERPNS_16__tree_node_baseIPvEENS_21__tree_const_iteratorIS4_PNS_11__tree_nodeIS4_SE_EEiEESH_RKT_
IJi:_TextGenerator_Populate_Internal_m1817393161
f9g:__ZL57CollectionBase_t1101587467_CustomAttributesCacheGeneratorP21CustomAttributesCache
Lzf:__ZN21InterfaceFuncInvoker3IP12Il2CppObjectP6Type_t28StreamingContext_t1417235061PS1_E6InvokeEjP11Il2CppClassS1_S3_S4_S5_
Dvb:__ZNSt3__26vectorI17BlendShapeChannelNS_9allocatorIS1_EEE6assignINS_11__wrap_iterIPS1_EEEENS_9enable_ifIXaasr21__is_forward_iteratorIT_EE5valuesr16is_constructibleIS1_NS_15iterator_traitsISA_E9referenceEEE5valueEvE4typeESA_SA_
trd:_LayoutElement_set_preferredWidth_m3072758716
oQi:_UnityEvent_1_AddListener_m1708363187_gshared
qrf:_AsnEncodedData_ToString_m724151831
wVa:__ZN11TimeManager11GetRealtimeEv
HVe:_Collection_1_System_Collections_IList_get_IsFixedSize_m2408637569_gshared
kMf:_UTF8Encoding_GetByteCount_m1469571127
$Vc:__ZN20UnityWebRequestProtoI19TransportJavaScript16AtomicRefCounter14RedirectHelper14ResponseHelper15DownloadHandler13UploadHandler12HeaderHelper14AsyncOperationE26Job_ExecuteUnityWebRequestEPS8_
uM:__ZN29AudioEffectInternalDefinitionC2EP26UnityAudioEffectDefinitionb
Zxg:_MonoMethodInfo_GetDeclaringType_m4186531677
IAf:_SoapTypeAttribute_SetReflectionObject_m1566293812
I0g:_DefaultComparer__ctor_m418731767_gshared
$C:__ZN4PPtrI6AvatarE8TransferI18StreamedBinaryReadILb0EEEEvRT_
OVi:_Enumerator_System_Collections_IEnumerator_Reset_m2573763156_AdjustorThunk
eCf:_RemotingServices_CreateClientProxy_m1631035355
ZTf:_UInt64_ToString_m2892887310
SCh:__ZL88GUIStyle_t1799908754_CustomAttributesCacheGenerator_GUIStyle_set_fixedHeight_m1517737608P21CustomAttributesCache
xva:_stbir_resize
EBj:__ZN15dense_hashtableINSt3__24pairIK10KeyWrapperIPK19Il2CppGenericMethodEP10MethodInfoEES6_N6il2cpp8metadata23Il2CppGenericMethodHashEN14dense_hash_mapIS6_S9_SD_NS6_14EqualsComparerINSC_26Il2CppGenericMethodCompareEEENS0_9allocatorISA_EEE9SelectKeyESH_SJ_EC2ERKSM_j
_jj:__ZN15dense_hashtableINSt3__24pairIK10KeyWrapperINS1_IPK12PropertyInfoP11Il2CppClassEEEjEES9_17ReflectionMapHashIS8_EN14dense_hash_mapIS9_jSD_NS9_14EqualsComparerINS0_8equal_toIS8_EEEENS0_9allocatorISB_EEE9SelectKeyESI_SK_E5clearEv
Pwb:__ZN4PPtrI4MeshE8TransferI14SafeBinaryReadEEvRT_
oQa:__Z37ReadDirectoryInfo_UnityWebAndUnityRawR12FileAccessorRKN20ArchiveStorageHeader6HeaderERNS1_13DirectoryInfoE
pYd:_Array_InternalArray__IEnumerable_GetEnumerator_TisInt64_t909078037_m1219751804_gshared
O0:__ZNSt3__26__treeINS_12__value_typeIPKciEENS_19__map_value_compareIS3_S4_15compare_tstringIS3_ELb1EEENS_9allocatorIS4_EEE7destroyEPNS_11__tree_nodeIS4_PvEE
Z7g:__ZL96RuntimeTypeHandle_t2330101084_CustomAttributesCacheGenerator_RuntimeTypeHandle_Equals_m452760426P21CustomAttributesCache
N$g:_Dictionary_2_ToTValue_m1381983709_gshared
Zqe:_MulticastDelegate_KPM_m1592985119
Z9f:__Z64RuntimeInvoker_Playable_t1896841784_AudioClipPlayable_t192218916PFvvEPK10MethodInfoPvPS4_
m1e:_Collection_1_ConvertItem_m3941916604_gshared
j_a:__ZN20DynamicPropertySheet14SetValueQueuedEN9ShaderLab16FastPropertyNameEN19ShaderPropertySheet12PropertyTypeEjNS2_8SetFlagsE
xNc:__ZN2UI6Canvas26MarkAllNestedCanvasesDirtyEv
Ftj:__ZN6il2cpp2vm12ReboxIfBoxedEP14Il2CppIUnknownP11Il2CppClass
gOe:_List_1__ctor_m2766376432_gshared
zdb:__ZN25PathNamePersistentManagerD2Ev
F2:__ZN17PersistentManager48IntegrateObjectAndUnlockIntegrationMutexInternalEi
L6e:_ReadOnlyCollection_1_System_Collections_IList_get_IsReadOnly_m3872065502_gshared
Abh:__ZL112TypeBuilder_t3308873219_CustomAttributesCacheGenerator_TypeBuilder_MakeGenericType_m4282022646____typeArguments0P21CustomAttributesCache
qda:__ZZ29InitializeSortingGroupManagerPvEN44PostLateUpdateSortingGroupsUpdateRegistrator7ForwardEv
tp:__ZN6Object12SetHideFlagsENS_9HideFlagsE
yWj:_emscripten_glGetFramebufferAttachmentParameteriv__wrapper
EVa:__ZN13RendererScene15InitializeUmbraEv
G3h:_AnimatorTransitionInfo_IsName_m2561957738_AdjustorThunk
nua:__Z28CalculateGlobalMatrixInverse23TransformAccessReadOnly
yrc:__ZN4PPtrI6ObjectE8TransferI9JSONWriteEEvRT_
g8g:__ZL60SecurityAttribute_t2016950496_CustomAttributesCacheGeneratorP21CustomAttributesCache
tvb:__ZN13dynamic_arrayI12BoneWeights4Lj16EE18resize_initializedEjRKS0_12ResizePolicy
Fcd:_PointerEventData_ToString_m1218584363
$xd:_Char_System_IConvertible_ToChar_m1489061093_AdjustorThunk
ALf:_UTF7Encoding_GetCharCount_m2589913583
nGh:__ZL117RenderPipelineManager_t984453155_CustomAttributesCacheGenerator_RenderPipelineManager_set_currentPipeline_m3825706412P21CustomAttributesCache
J3:__ZN13MonoBehaviour19ReleaseMonoInstanceEv
jle:_MemoryStream_CalculateNewCapacity_m3533542025
qLj:__ZN6il2cpp6icalls8mscorlib6System6Object7GetTypeEP12Il2CppObject
_Ch:__ZL88GUIStyle_t1799908754_CustomAttributesCacheGenerator_GUIStyle_GetFontInternal_m3509743324P21CustomAttributesCache
lPf:_TimeSpan_Equals_m4102942751_AdjustorThunk
zWg:_ValueCollection_System_Collections_Generic_ICollectionU3CTValueU3E_Add_m1903672223_gshared
aWc:__ZN12HeaderHelper14SetUnvalidatedERKN4core12basic_stringIcNS0_20StringStorageDefaultIcEEEES6_b
PI:__ZN4FMOD6SoundI7releaseEv
B6g:__ZL70RuntimeArray_CustomAttributesCacheGenerator_Array_SetValue_m1489959987P21CustomAttributesCache
edd:_MouseButtonEventData__ctor_m618518000
cRa:__ZN10MemoryFile9SetLengthEy
jSf:_UInt16_ToString_m2038947049_AdjustorThunk
G1h:_AnimatorControllerPlayable_GetNextAnimatorClipInfoInternal_m1102604948
gqb:__ZN14SafeBinaryRead21TransferSTLStyleArrayI13dynamic_arrayI7Hash128Lj8EEEEvRT_17TransferMetaFlags
LCb:__Z28scripting_class_is_interface17ScriptingClassPtr
Hh:_glTexStorage2D
sWb:__ZNK9ShaderLab10SubProgram14EnsureCompiledEv
OVf:__Z79RuntimeInvoker_Boolean_t3825574718_RuntimeObject_RuntimeObject_SByte_t454417549PFvvEPK10MethodInfoPvPS4_
AEf:_ObjectManager_RecordFixup_m3572285566
Y9g:__ZL55DaylightTime_t3800227331_CustomAttributesCacheGeneratorP21CustomAttributesCache
TEd:_SortedList_InitTable_m460350503
Y3:__Z18BuildScriptClassId17ScriptingClassPtr
Sni:_InternalEnumerator_1_get_Current_m4279678504_AdjustorThunk
Mq:__ZNK16LevelGameManager7GetNameEv
JVe:_Collection_1_System_Collections_IList_get_Item_m2415649949_gshared
N1b:__ZN8Renderer28HandleParentHierarchyChangesEPK23TransformAccessReadOnlyj
Nug:_ILTokenInfo_t149559338_marshal_pinvoke_cleanup
nfa:__ZL31DeleteLastPathNameComponentImplRKN4core12basic_stringIcNS_20StringStorageDefaultIcEEEEPKc
OZb:__Z13RegisterClassI18DelayedCallManagerEvv
fTc:__ZN18UnityConnectClient15GetCloudServiceEv
mJb:__Z18Transfer_BlittableI24GenerateTypeTreeTransferLb0EiEvRK29SerializationCommandArgumentsR31RuntimeSerializationCommandInfo
FCb:__ZL28SerializationCommandGroupForRK31TransferFunctionScriptingTraits17ScriptingClassPtr17ScriptingFieldPtrRK20CoreScriptingClasses
Eib:__ZN10TagManager32RegisterDefaultTagsAndLayerMasksEv
$Ri:_TweenRunner_1_StopTween_m2135918118_gshared
zXg:_ValueCollection_get_Count_m4142113966_gshared
LNg:_PlayableHandle_SetDuration_m1990009798_AdjustorThunk
C8i:__ZN15dense_hashtableINSt3__24pairIK10KeyWrapperIPKcEP11Il2CppClassEES5_N6il2cpp5utils11StringUtils12StringHasherIS4_EEN14dense_hash_mapIS5_S8_SE_NS5_14EqualsComparerINSB_13VmStringUtils21CaseSensitiveComparerEEENS0_9allocatorIS9_EEE9SelectKeyESJ_SL_E15insert_noresizeERKS9_
hNf:_SynchronizationLockException__ctor_m549086841
wwh:__ZL105RectTransform_t3349966182_CustomAttributesCacheGenerator_RectTransform_INTERNAL_get_sizeDelta_m3975625099P21CustomAttributesCache
Mzd:_ArrayList_InsertRange_m1478230997
oFa:__ZN4gles8InitCapsEP7ApiGLESP12GraphicsCapsR16GfxDeviceLevelGL
bpa:__ZN6prcore14BlitImageFloatERK14ImageReferenceRS0_NS0_8BlitModeE
Fud:_Swapper_EndInvoke_m677693941
Hwa:__Z24CalculateVertexLightDataRK15SharedLightDataR14GfxVertexLight
WJg:_Matrix4x4_Equals_m1321236479_AdjustorThunk
pi:_glEnable
msa:__ZN15dense_hashtableINSt3__24pairIKiiEEi21InstanceIDHashFunctorN14dense_hash_mapIiiS4_NS0_8equal_toIiEE13stl_allocatorIS3_L18MemLabelIdentifier1ELi16EEE9SelectKeyES7_SA_E12maybe_shrinkEv
iYa:__ZNK25CameraStackRenderingState21GetImageEffectTextureEb
zFf:_RuntimeMethodHandle__ctor_m2437574937_AdjustorThunk
q6g:__ZL72RuntimeArray_CustomAttributesCacheGenerator_Array_get_Length_m1498215565P21CustomAttributesCache
iqc:__Z35Transfer_Blittable_FixedBufferFieldI9JSONWriteiEvRK29SerializationCommandArgumentsR31RuntimeSerializationCommandInfo
Xvh:__ZL99Transform_t3275118058_CustomAttributesCacheGenerator_Transform_INTERNAL_get_localPosition_m94028171P21CustomAttributesCache
KRf:_UInt16_System_IConvertible_ToInt64_m2835280558_AdjustorThunk
COg:_Quaternion_GetHashCode_m2270520528_AdjustorThunk
Cph:__ZL53g_UnityEngine_Assembly_CustomAttributesCacheGeneratorP21CustomAttributesCache
_Ni:_Predicate_1_BeginInvoke_m3926587117_gshared
nAb:__ZNSt3__26vectorI4PPtrI6ObjectE13stl_allocatorIS3_L18MemLabelIdentifier51ELi16EEE6assignINS_11__wrap_iterIPS3_EEEENS_9enable_ifIXaasr21__is_forward_iteratorIT_EE5valuesr16is_constructibleIS3_NS_15iterator_traitsISD_E9referenceEEE5valueEvE4typeESD_SD_
mx:__ZN26AnimatorControllerPlayable17ProcessRootMotionEP35AnimationPlayableEvaluationConstantP32AnimationPlayableEvaluationInputP33AnimationPlayableEvaluationOutput
mLe:_List_1_get_Item_m1231764300_gshared
eWf:__Z94RuntimeInvoker_Boolean_t3825574718_Int32_t2071877448_SByte_t454417549_ExceptionU26_t1467204777PFvvEPK10MethodInfoPvPS4_
vid:_DefaultControls_CreateToggle_m1568873127
XRe:_List_1__cctor_m1022807427_gshared
V8g:__ZL63KeyNotFoundException_t1722175009_CustomAttributesCacheGeneratorP21CustomAttributesCache
x$g:_Dictionary_2_InitArrays_m2270022740_gshared
wGd:_Convert_ToBoolean_m2188088811
PRc:__ZN11UnityEngine7Connect15DeviceInfoEvent16CollectExtraInfoEv
Nag:__Z50RuntimeInvoker_AnimationOffsetPlayable_t1019600543PFvvEPK10MethodInfoPvPS4_
RKf:_UnicodeEncoding_GetChars_m3765282346
ehe:_IntPtr__ctor_m4104029105
Gfh:__ZL114BinaryFormatter_t1866979105_CustomAttributesCacheGenerator_BinaryFormatter_get_DefaultSurrogateSelector_m219714691P21CustomAttributesCache
ksi:_InternalEnumerator_1_System_Collections_IEnumerator_get_Current_m771161214_AdjustorThunk
Xpe:_MonoType_get_attributes_m1493788675
fPj:_atol
TIj:__ZN6il2cpp6icalls8mscorlib6System10Reflection9FieldInfo25internal_from_handle_typeE12Il2CppIntPtrS5_
TId:_Convert_ToDouble_m4236754739
$kf:_SslClientStream_get_PrivateKeyCertSelectionDelegate_m3715949545
x5i:__ZN15dense_hashtableINSt3__24pairIK10KeyWrapperIPKcEP11Il2CppClassEES5_N6il2cpp5utils11StringUtils12StringHasherIS4_EEN14dense_hash_mapIS5_S8_SE_NS5_14EqualsComparerINSB_13VmStringUtils21CaseSensitiveComparerEEENS0_9allocatorIS9_EEE9SelectKeyESJ_SL_EC2EjRKSE_RKSJ_RKSN_
Ljd:_Dropdown_CreateItem_m2702141380
X7e:_ReadOnlyCollection_1_IndexOf_m224962127_gshared
C9g:__ZL48Stack_t1043988394_CustomAttributesCacheGeneratorP21CustomAttributesCache
Ho:FUNCTION_TABLE_viifi
Io:FUNCTION_TABLE_viiff
eU:__Z75AudioPlayableGraphExtensions_CUSTOM_INTERNAL_CALL_InternalCreateAudioOutputR14HPlayableGraphP12Il2CppStringP15HPlayableOutput
Vhg:__Z59RuntimeInvoker_Boolean_t3825574718_ResourceInfo_t3933049236PFvvEPK10MethodInfoPvPS4_
iyg:_MonoEvent_GetAddMethod_m4289563120
I7g:__ZL37Type_t_CustomAttributesCacheGeneratorP21CustomAttributesCache
jKc:_UNITY_tt_face_free_hdmx
Inj:__ZN15dense_hashtableINSt3__24pairIK10KeyWrapperINS1_IP11Il2CppClassjEEES4_EES6_N6il2cpp8metadata14ArrayClassHashEN14dense_hash_mapIS6_S4_SB_NS6_14EqualsComparerINSA_17ArrayClassCompareEEENS0_9allocatorIS8_EEE9SelectKeyESF_SH_E5clearEv
W4i:__ZNSt3__218uninitialized_copyIPNS_4pairIK10KeyWrapperIPK11Il2CppClassEPKcEESB_EET0_T_SD_SC_
gfj:__ZN6il2cpp2vm14TypeNameParser5ParseEb
rRh:_ReflectionMethodsCache__ctor_m1835220
a9g:__ZL71SynchronizedArrayListWrapper_t3317806524_CustomAttributesCacheGeneratorP21CustomAttributesCache
lVc:__ZN23UnityPurchasingSettingsC2Ev
fRd:_Double_ToString_m1864290157
GQj:__ZNSt9bad_allocD0Ev
b3f:__Z50RuntimeInvoker_Int64_t909078037_Double_t4078015681PFvvEPK10MethodInfoPvPS4_
K8:__ZNSt3__26__treeINS_12__value_typeI18VertexChannelsInfo16MeshVertexFormatEENS_19__map_value_compareIS2_S4_NS_4lessIS2_EELb1EEE13stl_allocatorIS4_L18MemLabelIdentifier16ELi16EEE12__find_equalIS2_EERPNS_16__tree_node_baseIPvEENS_21__tree_const_iteratorIS4_PNS_11__tree_nodeIS4_SF_EEiEESI_RKT_
vuj:__ZNK24NamespaceAndNamePairHashclERKNSt3__24pairIPKcS3_EE
Dva:__ZL37stbir__resample_horizontal_downsampleP11stbir__infoiPf
KXe:__ZN21InterfaceFuncInvoker1Ib18Color32_t874517518E6InvokeEjP11Il2CppClassP12Il2CppObjectS0_
Ksa:__ZNK5Unity9Component38MarkGameObjectAndComponentDependenciesER27GarbageCollectorThreadState
q$:__ZL16OutOfMemoryErrorjj18MemLabelIdentifieriPKc
hgf:_RecordProtocol_SendRecord_m132002114
uR:__ZNK7Texture21GetShadowSamplingModeEv
x4:__ZNK11TypeManager15ClassNameToRTTIEPKcb
fea:__ZN13ScreenManager21OnWindowRegainedFocusEv
CQb:__Z18Transfer_BlittableI18StreamedBinaryReadILb0EELb1EdEvRK29SerializationCommandArgumentsR31RuntimeSerializationCommandInfo
g8h:_WillRenderCanvases_BeginInvoke_m1914028027
ade:_Guid__ctor_m2599802704
Kje:_FileStream_get_CanRead_m4148920720
VWc:__ZN13RuntimeStaticINSt3__26vectorIPN5physx15PxVehicleWheelsENS0_9allocatorIS4_EEEELb0EE13StaticDestroyEPv
Slg:__Z31RuntimeInvoker_Link_t2723257478PFvvEPK10MethodInfoPvPS4_
THa:__ZN4crnd12symbol_codec32decode_receive_static_data_modelERNS_25static_huffman_data_modelE
l$b:__ZN18ScriptingArguments8AddFloatEf
vbe:_GregorianCalendar_set_CalendarType_m2438362222
Rhd:_FloatTween_get_targetValue_m2120061648_AdjustorThunk
LZf:__Z44RuntimeInvoker_RuntimeTypeHandle_t2330101084PFvvEPK10MethodInfoPvPS4_
UVd:_Array_InternalArray__ICollection_Contains_TisVector2_t2243707579_m3625698589_gshared
arc:__Z18Transfer_BlittableI9JSONWriteLb0EaEvRK29SerializationCommandArgumentsR31RuntimeSerializationCommandInfo
WVf:__Z45RuntimeInvoker_SByte_t454417549_RuntimeObjectPFvvEPK10MethodInfoPvPS4_
sV:__ZN11UnityEngine15CloudWebService14DataDispatcher34OnSessionContainerArchivedAndReadyERNS0_16SessionContainerE
ece:_NumberFormatInfo_GetFormat_m3247563525
_jh:__ZL77Convert_t2607082565_CustomAttributesCacheGenerator_Convert_ToByte_m2303223565P21CustomAttributesCache
uLb:__Z18Transfer_BlittableI19StreamedBinaryWriteILb0EELb0E8Vector3fEvRK29SerializationCommandArgumentsR31RuntimeSerializationCommandInfo
qCg:_RectOffset__ctor_m2227510254
DSb:__ZN14SafeBinaryRead19TransferSTLStyleMapINSt3__23mapIN4core12basic_stringIcNS3_20StringStorageDefaultIcEEEEiNS1_4lessIS7_EENS1_9allocatorINS1_4pairIKS7_iEEEEEEEEvRT_17TransferMetaFlags
qjj:__ZN15dense_hashtableINSt3__24pairIK10KeyWrapperINS1_IPK11Il2CppImageP11Il2CppClassEEEjEES9_17ReflectionMapHashIS8_EN14dense_hash_mapIS9_jSD_NS9_14EqualsComparerINS0_8equal_toIS8_EEEENS0_9allocatorISB_EEE9SelectKeyESI_SK_ED2Ev
SBc:_gray_move_to
gIf:_DSAParameters_t1872138834_marshal_pinvoke
O7f:__Z37RuntimeInvoker_ContentType_t859870085PFvvEPK10MethodInfoPvPS4_
I0e:_Collection_1_System_Collections_IEnumerable_GetEnumerator_m4174600764_gshared
jji:_ConstructionCall_InitDictionary_m4046452035
kkj:__ZN6il2cpp2vm10Reflection14GetEventObjectEP11Il2CppClassPK9EventInfo
qgf:_TlsStream_Write_m2271546135
X8b:__Z30RegisterValidateMethodCallbackiPF18ScriptingMethodPtrS_17ScriptingClassPtrP6ObjectEPKc
Hfa:__ZN20LocalFileSystemPosixD0Ev
kzh:__ZL133AnimatorControllerPlayable_t1744083903_CustomAttributesCacheGenerator_AnimatorControllerPlayable_INTERNAL_CALL_GetFloatID_m1278007428P21CustomAttributesCache
dUd:_CultureInfo_ConstructInternalLocaleFromCurrentLocale_m1342751405
WJf:_Latin1Encoding_GetString_m3553289597
oDc:_tt_cmap_init
Ja:invoke_viidi
GSg:_Enumerator_get_Current_m1020413567_AdjustorThunk
LIe:_List_1_System_Collections_IList_get_IsFixedSize_m1122077912_gshared
cwj:__ZN15dense_hashtableI10KeyWrapperIP18Il2CppGenericClassES3_N6il2cpp8metadata22Il2CppGenericClassHashEN14dense_hash_setIS3_S6_NS3_14EqualsComparerINS5_25Il2CppGenericClassCompareEEENSt3__29allocatorIS3_EEE8IdentityESA_SD_E12maybe_shrinkEv
R_b:__ZN9TextAssetC2E18MemLabelIdentifier18ObjectCreationMode
bbi:_Display_RecreateDisplayList_m3412638488
Ujj:__ZN15dense_hashtableINSt3__24pairIK10KeyWrapperINS1_IPK12PropertyInfoP11Il2CppClassEEEjEES9_17ReflectionMapHashIS8_EN14dense_hash_mapIS9_jSD_NS9_14EqualsComparerINS0_8equal_toIS8_EEEENS0_9allocatorISB_EEE9SelectKeyESI_SK_E8min_sizeEjj
Blh:__ZL79Convert_t2607082565_CustomAttributesCacheGenerator_Convert_ToUInt64_m2215781574P21CustomAttributesCache
c0j:_emscripten_glCheckFramebufferStatus__wrapper
Uoj:__ZNK15dense_hashtableINSt3__24pairIK10KeyWrapperIP11Il2CppClassES4_EES5_N6il2cpp8metadata16SZArrayClassHashEN14dense_hash_mapIS5_S4_SA_NS5_14EqualsComparerINS9_19SZArrayClassCompareEEENS0_9allocatorIS7_EEE9SelectKeyESE_SG_E12test_deletedEj
Itc:__Z18Transfer_BlittableI8JSONReadLb0EdEvRK29SerializationCommandArgumentsR31RuntimeSerializationCommandInfo
phg:__Z83RuntimeInvoker_Boolean_t3825574718_NavigationU26_t3929175072_Navigation_t1571958496PFvvEPK10MethodInfoPvPS4_
$Ne:_List_1_TrimExcess_m2004514756_gshared
BNf:_Thread_ClrState_m822263449
Mte:_SimpleCollator_LastIndexOfOrdinalIgnoreCase_m550798345
paj:__ZN6il2cpp2vm21ThreadPoolCompartment13QueueWorkItemEP17Il2CppAsyncResult
NAa:__ZNK9GfxDevice13GetViewMatrixEv
Wsa:__ZN17RemapPPtrTransferC2E24TransferInstructionFlagsb
s5:__ZN8TypeTree8BlobReadERPKhS1_ib
SYg:_Dictionary_2_System_Collections_Generic_ICollectionU3CSystem_Collections_Generic_KeyValuePairU3CTKeyU2CTValueU3EU3E_Remove_m3080541539_gshared
fta:__ZN18LoadSceneOperation23GetAllowSceneActivationEv
Z_h:_AnimationPlayableOutput_op_Implicit_m1147972631
Bjb:__ZN6CameraD0Ev
lve:_ModulusRing_Multiply_m386339435
xba:__ZN31CanvasBatchIntermediateRenderer16StaticInitializeEPv
bmd:_GraphicRaycaster_U3CRaycastU3Em__0_m3971200721
v4e:_ReadOnlyCollection_1_System_Collections_IList_RemoveAt_m3004588099_gshared
yw:__ZN7mecanim12AndValueMaskILb0EEEvPKNS_14ValueArrayMaskEPS1_
zId:_Decimal_op_Implicit_m4246329390
TCe:_ArgumentNullException__ctor_m2252076819
j9a:__ZN10GameObjectC2E18MemLabelIdentifier18ObjectCreationMode
UAc:_raccess_guess_apple_double
Djg:__Z70RuntimeInvoker_Void_t1841601450_CustomAttributeNamedArgument_t94157543PFvvEPK10MethodInfoPvPS4_
_pe:_MonoType_GetAttributeFlagsImpl_m250699879
Bsg:_TypeBuilder_get_FullName_m1626507516
YDf:_SerializationInfo__ctor_m4016423422
PIa:__ZL18ProgramUniform1uivPK7ApiGLESjiihPKv
s1b:__ZN14Texture2DArray13RebuildMipMapEv
w4i:__ZN13Il2CppHashSetIPK17Il2CppGenericInstN6il2cpp8metadata21Il2CppGenericInstHashENS4_24Il2CppGenericInstCompareENSt3__29allocatorI10KeyWrapperIS2_EEEEC2EjRKS5_RKS6_
yWe:_Collection_1_Clear_m2734620236_gshared
OAj:__ZN6il2cpp2gc16GarbageCollector14RemoveWeakLinkEPPv
FWb:__ZN9ShaderLab20SerializedSubProgram14AddVectorParamEPKcii15ShaderParamTypei
uKe:_List_1_System_Collections_Generic_IEnumerableU3CTU3E_GetEnumerator_m3123730956_gshared
fPc:__ZN2UI14CanvasRenderer12CleanupClassEv
c7e:_ReadOnlyCollection_1_System_Collections_IEnumerable_GetEnumerator_m1734360860_gshared
k1g:_DefaultComparer__ctor_m1052417779_gshared
G3c:_SystemException__ctor_m2688248668
Sdi:_ResourceSet_ReadResources_m1669023823
aBe:_PKCS12_RemoveCertificate_m1590055870
Gpj:__ZN6il2cpp2vm6Thread7SetNameEP12Il2CppThreadP12Il2CppString
dbh:__ZL117GenericTypeParameterBuilder_t1370236603_CustomAttributesCacheGenerator_GenericTypeParameterBuilder_Equals_m2498927509P21CustomAttributesCache
zga:__ZN13ScreenManager18SetAllowCursorLockEb
MW:__ZN11UnityEngine15CloudWebService10RestClientINS0_23WebRequestRestHeaderMapEE16SetRequestHeaderERKN4core12basic_stringIcNS4_20StringStorageDefaultIcEEEESA_
dBb:__ZN30RuntimeInitializeOnLoadManager15ClassMethodInfo8TransferI14SafeBinaryReadEEvRT_
aNh:__ZL73CanvasScaler_t2574720772_CustomAttributesCacheGenerator_m_ScreenMatchModeP21CustomAttributesCache
kT:__ZL22InitializeModule_Audiov
veb:__ZN16MemoryFileSystem8IsLockedERK13FileEntryData
_Li:_Vector2_get_Item_m2792130561_AdjustorThunk
Rxg:_MonoCMethod_Invoke_m931478014
EXf:__Z86RuntimeInvoker_Int32_t2071877448_Int16_t4041245914_Int32_t2071877448_Int32_t2071877448PFvvEPK10MethodInfoPvPS4_
Zdi:_SatelliteContractVersionAttribute__ctor_m2605651717
Yk:_emscripten_glBindRenderbuffer
Ymc:__Z32GUIStyle_Set_Custom_PropClippingP12Il2CppObjecti
k8c:_DecoderExceptionFallbackBuffer_GetNextChar_m1727394816
YGj:_GC_dirty_init
Rtd:_Array_Copy_m1969461849
qDf:_MessageFormatter_ReadMethodResponse_m4134629501
Bxj:__ZN6il2cpp2vm5Field14GetValueObjectEP9FieldInfoP12Il2CppObject
zOc:__ZNK2UI6Canvas16GetTargetDisplayEv
U4h:_AudioClipPlayable_Equals_m2497502457_AdjustorThunk
sSi:_ListPool_1__cctor_m709904475_gshared
nSd:_Environment_get_OSVersion_m1247315981
g9:__ZN6Object17FindObjectsOfTypeEPKN5Unity4TypeER13dynamic_arrayIPS_Lj4EEb
v5b:__ZNSt3__26vectorINS_4pairIiiEE13stl_allocatorIS2_L18MemLabelIdentifier1ELi16EEE21__push_back_slow_pathIKS2_EEvRT_
Bvf:_Capture_get_Length_m1952322390
Jrc:__ZN9JSONWrite8TransferI4PPtrI9Texture2DEEEvRT_PKc17TransferMetaFlags
cCb:__ZN13MonoBehaviour17RemoveFromManagerEv
akb:__ZN12ImageFilters14AddImageFilterERK11ImageFilter
oPc:__ZL23RegisterModuleICalls_UIv
Gsb:__ZL11DecodeValuePPKcS0_
kUg:_ShimEnumerator_MoveNext_m2013866013_gshared
c_:__ZN13MemoryManagerC2Ev
MLa:__ZN12SkinMeshInfo10DeallocateEPS_
fLi:_Transform_SetParent_m1963830867
Hxh:__ZL66AnimationOffsetPlayable_t1019600543_CustomAttributesCacheGeneratorP21CustomAttributesCache
pTa:__ZN20ArchiveStorageReader28AcquireAndPrefillUnusedBlockEjPNS_11CacheResultE
l1b:__Z12NHxRoughnessIA4_tEvP9Texture2DPT_iiii
oKi:_Touch_get_phase_m196706494_AdjustorThunk
gzf:_MethodDictionary_get_SyncRoot_m673971424
H9:__ZN18AsyncUploadManagerD2Ev
tYb:__ZN9Transform5ResetEv
fLb:__Z22TransferField_NonArrayI24GenerateTypeTreeTransfer16Converter_StringEvRK23StaticTransferFieldInfoR31RuntimeSerializationCommandInfoRT0_
fDc:_UNITY_FT_CMap_New
O5h:_AudioMixerPlayable_Equals_m3014217409_AdjustorThunk
lpf:_HttpWebRequest_System_Runtime_Serialization_ISerializable_GetObjectData_m3671622902
pga:__Z17MainLoopKeepalivePv
Pxi:_MatchCollection__ctor_m1944681790
tYc:_HMACSHA512__ctor_m1667460019
f6a:__Z24ScheduleCullingAllGroupsR8JobFenceRK22SceneCullingParameters4PPtrI6CameraERK13CullingOutputRK13dynamic_arrayIP12CullingGroupLj4EERKS_
ZMj:_printf_core
S0c:_ToBase64Transform_get_OutputBlockSize_m949275583
Oqe:_MonoType_ToString_m473949831
r5a:__Z14CalcHullBoundsPK8Vector3fPKhhRK5PlaneRK10Matrix4x4fR10MinMaxAABB
qBf:_RealProxy__ctor_m2147093603
jPg:_RaycastHit2D_get_point_m442317739_AdjustorThunk
vQ:__ZNK14SoundHandleAPI12GetFrequencyEv
$Pe:_List_1__ctor_m3511181530_gshared
e_a:__Z19SetupLODFadeKeywordR17ShaderPassContexti
G4e:_ReadOnlyCollection_1_get_Count_m2180604490_gshared
PLb:__Z18Transfer_BlittableI19StreamedBinaryWriteILb0EELb0E5RectTIfEEvRK29SerializationCommandArgumentsR31RuntimeSerializationCommandInfo
CFj:_GC_set_fl_marks
fLa:__ZL25CheckCopyTextureArgumentsRK7ApiGLESP11GLESTextureS3_
A9:__ZN13dynamic_arrayI26EnlightenSystemInformationLj8EE6insertEPS0_PKS0_S4_
LCc:_tt_name_entry_ascii_from_utf16
$qe:_MulticastNotSupportedException__ctor_m2164514827
uLd:_DateTime_System_IConvertible_ToChar_m2489529194_AdjustorThunk
KKb:__Z29Transfer_Blittable_ArrayFieldI24GenerateTypeTreeTransferyEvRT_R9ArrayInfoRK23StaticTransferFieldInfo
ML:__ZN4FMOD7SystemI9playSoundE17FMOD_CHANNELINDEXPNS_5SoundEbPPNS_7ChannelE
D4h:_AttributeHelperEngine_GetRequiredComponents_m120894667
L6g:__ZL74RuntimeArray_CustomAttributesCacheGenerator_Array_BinarySearch_m1368352453P21CustomAttributesCache
HZ:__GLOBAL__sub_I_runtime_graphics_mesh2_lump_cpp
fRg:_RectTransformUtility_PixelAdjustRect_m93024038
Jkh:__ZL78Convert_t2607082565_CustomAttributesCacheGenerator_Convert_ToSByte_m1183867428P21CustomAttributesCache
xw:__ZN27AnimationLayerMixerPlayable17LayerMixerProcessEP35AnimationPlayableEvaluationConstantP32AnimationPlayableEvaluationInputP33AnimationPlayableEvaluationOutputM17AnimationPlayableFvS1_S3_S5_EMS_FvS1_S3_S5_ESA_MS_FvS5_S1_S3_S5_ifE
dfj:__ZN6il2cpp2os4File4ReadEPNS0_10FileHandleEPciPi
oK:__ZN12AudioManager23VirtualRedirectTransferER18StreamedBinaryReadILb0EE
oHe:_List_1_Remove_m2616693989_gshared
sPj:_realloc
$ic:__Z57Register_UnityEngine_Transform_INTERNAL_get_localRotationv
c2f:__Z65RuntimeInvoker_Void_t1841601450_RuntimeObject_DateTime_t693205669PFvvEPK10MethodInfoPvPS4_
bQf:_Type_get_IsInterface_m3583817465
SAb:__ZN30RuntimeInitializeOnLoadManager23VirtualRedirectTransferER17RemapPPtrTransfer
qTj:dynCall_viif
Byg:_MonoField_get_DeclaringType_m1591666235
eli:_InternalEnumerator_1__ctor_m2111763266_AdjustorThunk
Wxf:_Enumerator_MoveNext_m4234629003
wHc:_cf2_hint_lock
yIb:__ZL26Transfer_SimpleNativeClassI17RemapPPtrTransfer8GradientLb0EEvRK29SerializationCommandArgumentsR31RuntimeSerializationCommandInfo
z6g:__ZL69RuntimeArray_CustomAttributesCacheGenerator_Array_GetValue_m518505780P21CustomAttributesCache
i4f:__Z52RuntimeInvoker_UInt64_t2909196914_Single_t2076509932PFvvEPK10MethodInfoPvPS4_
eig:__Z59RuntimeInvoker_Boolean_t3825574718_RaycastHit2D_t4063908774PFvvEPK10MethodInfoPvPS4_
Pkh:__ZL78Convert_t2607082565_CustomAttributesCacheGenerator_Convert_ToSByte_m1880147062P21CustomAttributesCache
Ype:_MonoType_GetDefaultConstructor_m925465120
PQf:_Type_IsArrayImpl_m3073208555
uX:__ZN13UploadHandlerD2Ev
IRj:dynCall_viiiiiffi
Hc:_emscripten_glBlendFuncSeparate
bug:_GenericTypeParameterBuilder_IsPrimitiveImpl_m1198748291
Q1:__Z20scripting_string_newPKc
whc:__Z43Material_CUSTOM_Internal_CreateWithMaterialP12Il2CppObjectS0_
Fie:_Directory_GetCurrentDirectory_m44486537
kFh:__ZL56UnityEventBase_t828812576_CustomAttributesCacheGeneratorP21CustomAttributesCache
bUe:_Collection_1_System_Collections_ICollection_CopyTo_m1047946700_gshared
IJd:_Convert_ToInt64_m4057339019
Hpj:__ZN6il2cpp2vm6Thread13MemoryBarrierEv
roj:__ZNSt3__218uninitialized_copyIPNS_4pairIK10KeyWrapperIP11Il2CppClassES4_EES8_EET0_T_SA_S9_
GB:__ZNSt3__26__sortIRPFbPKN8Animator11AnimatorJobES4_EPS4_EEvT0_S9_T_
EJ:__ZN17AudioCustomFilterD2Ev
UH:__Z91Register_UnityEngine_Animations_AnimatorControllerPlayable_INTERNAL_CALL_ResetTriggerStringv
AYb:__ZN9Transform16ResetReplacementEv
Blc:__ZNK8GUIStyle13GetLineHeightEv
pKa:__ZN18GfxFramebufferGLES18ReleaseFramebufferEP17RenderSurfaceBaseP14GfxContextGLES
shi:_Context_GetDynamicPropertyCollection_m1987747444
Ksf:_X509Certificate2_get_Version_m1927399907
j3b:__ZN13ProduceHelperI6CameraLb0EE7ProduceE18MemLabelIdentifier18ObjectCreationMode
Jnd:_Image_RadialCut_m3229543088
SY:__ZN19CloudServiceHandler34HandleSaveFileWebRequestPlayerLoopEv
Ox:__ZN7mecanim21ValueArrayReverseCopyEPKNS_18ValueArrayConstantEPKNS_10ValueArrayES2_PS3_PKi
pJ:__Z31GetParentSampleClipFromInstancePN11SoundHandle8InstanceE
s$b:__ZNK28RectTransformPropertyBinding13GetFloatValueERKN11UnityEngine9Animation10BoundCurveE
h8a:__ZN6Camera22StandaloneCustomRenderENS_10RenderFlagEP6ShaderRKN4core12basic_stringIcNS3_20StringStorageDefaultIcEEEEPNS_21PerformRenderFunctionE
NLj:__ZN6il2cpp2os16ThreadLocalValue8GetValueEPPv
J8i:__ZN6il2cpp2vm13MetadataCache14GetGenericInstEPKPK10Il2CppTypej
T$c:_SHA384Managed_Initialize_m712692291
$li:_InternalEnumerator_1__ctor_m2688327768_gshared
Ufi:_ChannelInfo__ctor_m2502026239
Rb:invoke_iiidii
edh:__ZL60CallingConvention_t3354538265_CustomAttributesCacheGeneratorP21CustomAttributesCache
rjc:__Z52Object_CUSTOM_GetOffsetOfInstanceIDInCPlusPlusObjectv
NR:__ZN9AudioClip15InitializeClassEv
mp:setThrew
d1b:__ZL21BuildEmptyCubeTexturePKci11ColorRGBA3217TextureColorSpace
GSb:__ZN14SafeBinaryRead21TransferSTLStyleArrayINSt3__26vectorIN9ShaderLab20SerializedSubProgramENS1_9allocatorIS4_EEEEEEvRT_17TransferMetaFlags
Kdd:_StandaloneInputModule_set_cancelButton_m2642677329
Psc:__Z15Transfer_StringI8JSONReadLb1EEvRK29SerializationCommandArgumentsR31RuntimeSerializationCommandInfo
xqa:__ZN6prcoreL17RemapGenericFloatI17TexFormatRGBFloat15TexFormatRGHalfEEvPKNS_9InnerInfoE
w$a:__Z25DoForwardShaderRenderLoopR17RenderLoopContextR13dynamic_arrayI16RenderObjectDataLj4EERK11CullResultsbbbN6Camera10RenderFlagE
D8d:_GameObject_GetComponent_TisRuntimeObject_m2812611596_gshared
jCc:_sfnt_load_face
jAe:_PKCS12_GetSymmetricAlgorithm_m1812022677
QLf:_UTF8Encoding_GetByteCount_m2372933408
phi:_Context_get_NeedsContextSink_m1907794755
aCc:_UNITY_ft_service_list_lookup
Mbf:_ARC4Managed_GenerateKey_m716135508
rIb:__Z18Transfer_BlittableI17RemapPPtrTransferLb1E11ColorRGBA32EvRK29SerializationCommandArgumentsR31RuntimeSerializationCommandInfo
elc:__ZN5IMGUI21SelectReceivingWindowER8GUIStateb
$E:__ZNK26AnimatorControllerPlayable17ValidateGoToStateERiS0_
Rri:_InternalEnumerator_1_get_Current_m3179981210_gshared
Nfb:__ZN13BaseAllocator13TryDeallocateEPv
YMb:__Z29Transfer_Blittable_ArrayFieldI19StreamedBinaryWriteILb0EEfEvRT_R9ArrayInfoRK23StaticTransferFieldInfo
Btd:_Array_CreateInstance_m1054139389
pEg:_GUIStyleState_GetGUIStyleState_m2816150617
Emi:_InternalEnumerator_1__ctor_m967618647_AdjustorThunk
deb:__ZN16MemoryFileSystem5WriteER13FileEntryDatayPvPy
Kdg:__Z74RuntimeInvoker_Vector4_t2243707581_Vector4_t2243707581_Vector4_t2243707581PFvvEPK10MethodInfoPvPS4_
MYg:_Dictionary_2_System_Collections_ICollection_get_IsSynchronized_m1738433079_gshared
jkb:__ZNSt3__26vectorIN12FlareManager10FlareEntryENS_9allocatorIS2_EEE21__push_back_slow_pathIKS2_EEvRT_
bqg:_Default_check_arguments_with_score_m1714931543
tXc:_SHA1_Create_m4086509717
GQi:_UnityEvent_1_GetDelegate_m3098147632_gshared
Aig:__Z111RuntimeInvoker_Int32_t2071877448_RuntimeObject_AnimatorClipInfo_t3905751349_Int32_t2071877448_Int32_t2071877448PFvvEPK10MethodInfoPvPS4_
kzg:_MonoMethodInfo_GetMethodInfo_m3298558752
$J:__ZN13AudioListener17RemoveFromManagerEv
Bd:_glAttachShader
Pjd:_Dropdown_SetAlpha_m2769981009
_Ya:__ZNK6Camera19GetProjectionMatrixEv
g1i:_Predicate_1_BeginInvoke_m1856151290_gshared
fQd:_StackTrace__ctor_m2404985356
G3:__Z38PreallocateObjectFromPersistentManagerib
ILd:_DateTime_System_IConvertible_ToSingle_m3927769066
Rxf:_CostDelegate__ctor_m80452417
JZ:__GLOBAL__sub_I_runtime_interfaces_lump_cpp
Kob:__ZNK9Texture2D20GetUnscaledTextureIDEv
TJd:_Convert_ToSByte_m883113940
fZj:_glFenceSync__wrapper
KSd:_Exception_get_Message_m173095527
XH:__Z103Register_UnityEngine_Animations_AnimatorControllerPlayable_INTERNAL_CALL_IsParameterControlledByCurveIDv
sTe:_Queue_1_Peek_m1463479953_gshared
i5h:_AudioClipPlayable_INTERNAL_CALL_GetStartDelayInternal_m3715907549
zKh:__ZL53InputField_t1631627530_CustomAttributesCacheGeneratorP21CustomAttributesCache
ofd:_ButtonClickedEvent__ctor_m938038541
sRb:__ZN18StreamedBinaryReadILb0EE21TransferSTLStyleArrayI13dynamic_arrayI4AABBLj4EEEEvRT_17TransferMetaFlags
K2f:__Z119RuntimeInvoker_Int32_t2071877448_RuntimeObject_Int32_t2071877448_Int32_t2071877448_CharU26_t1894467670_SByte_t454417549PFvvEPK10MethodInfoPvPS4_
ERf:_UInt16_System_IConvertible_ToDouble_m4100549304_AdjustorThunk
Jta:__Z29ClearRepeatingLogMessageStatev
x4c:_Single_System_IConvertible_ToInt16_m962677079
W8:__ZN21EnlightenSceneMappingaSERKS_
O$e:_Collection_1_SetItem_m546457615_gshared
dMj:__ZNK6il2cpp8metadata21Il2CppGenericInstHashclEPK17Il2CppGenericInst
L4c:_Single_System_IConvertible_ToUInt32_m2447833283
ePa:__ZN7ApiGLESD2Ev
U9a:__ZN9Transform47ClearTransformHierarchyAndApplyToSerializedDataEv
mqi:_InternalEnumerator_1_get_Current_m4083613828_AdjustorThunk
zZc:_RijndaelManaged_GenerateKey_m3366247933
lie:_BinaryReader_ReadUInt64_m1893783375
_6h:_Bounds_op_Equality_m2161830280
Fdb:__ZN17PersistentManager9AddStreamEv
JTj:dynCall_fidi
phj:__ZN15dense_hashtableINSt3__24pairIK10KeyWrapperINS1_IPK9FieldInfoP11Il2CppClassEEEjEES9_17ReflectionMapHashIS8_EN14dense_hash_mapIS9_jSD_NS9_14EqualsComparerINS0_8equal_toIS8_EEEENS0_9allocatorISB_EEE9SelectKeyESI_SK_E12resize_deltaEjj
Xnc:__Z47Register_UnityEngine_GUIStyle_set_imagePositionv
ync:__Z49GUIStyle_CUSTOM_INTERNAL_CALL_Internal_DrawCursor13Il2Cpp_IntPtrRK5RectTIfEP12Il2CppObjectiRK10ColorRGBAf
eTh:_ScrollRect_set_movementType_m3292965850
Sjh:__ZL59AttributeTargets_t1984597432_CustomAttributesCacheGeneratorP21CustomAttributesCache
rQg:_RectTransform_set_anchorMin_m4247668187
YX:__ZN11UnityEngine15CloudWebService14RestDownloaderD2Ev
Acb:__Z29StdTemplateConversionFunctionIjhEbPvR14SafeBinaryRead
iZi:__ZL25UnresolvedVirtualCall_149P12Il2CppObject23SpriteState_t1353336012S1_PK10MethodInfo
YGe:_List_1_GrowIfNeeded_m2986672263_gshared
Cki:_ArrayReadOnlyList_1_Remove_m2325516426_gshared
CDd:_Hashtable_get_Count_m830088216
S8b:__ZNK13MonoBehaviour13GetScriptTypeEv
ria:__ZN13RenderTexture12SetDimensionE16TextureDimension
CHi:_ScriptableObject_CreateInstance_m3921674852
qe:_SDL_FreeRW
Aye:_PKCS1_OS2IP_m1273945439
t$c:_SHA1Internal_FillBuff_m891541953
jnh:__ZL62ResolveEventHandler_t3842432458_CustomAttributesCacheGeneratorP21CustomAttributesCache
SPc:__Z34CanvasRenderer_Get_Custom_PropCullP12Il2CppObject
eki:_ArrayReadOnlyList_1_get_IsReadOnly_m2717922212_gshared
BP:__ZN20SoundChannelInstance8getDelayE14FMOD_DELAYTYPEPjS1_
MJj:__ZNSt3__26__treeINS_12__value_typeIPvxEENS_19__map_value_compareIS2_S3_NS_4lessIS2_EELb1EEENS_9allocatorIS3_EEE12__find_equalIS2_EERPNS_16__tree_node_baseIS2_EESF_RKT_
Ood:_InputField_set_customCaretColor_m3534590098
oTh:_ScrollRect_set_viewport_m323693490
ehh:__ZL66RijndaelManagedTransform_t135163252_CustomAttributesCacheGeneratorP21CustomAttributesCache
Cae:_NumberFormatter_FormatExponential_m3975285307
yxc:__ZNSt3__26vectorIN20TextRenderingPrivate8FontImpl13CharacterInfoE13stl_allocatorIS3_L18MemLabelIdentifier1ELi16EEE8__appendEj
v:tempBigInt
ye:_emscripten_glVertexAttrib1fv
kTb:__ZNSt3__26vectorIN9ShaderLab20SerializedSubProgram12UAVParameterENS_9allocatorIS3_EEE7reserveEj
CYh:_AnimationCurve_Init_m1486386337
I9h:_Component_GetComponents_m3712441745
ypd:_InputField_get_selectionAnchorPosition_m466595604
pjh:__ZL99Thread_t241561612_CustomAttributesCacheGenerator_Thread_t241561612____ExecutionContext_PropertyInfoP21CustomAttributesCache
s8c:_DecoderReplacementFallback_get_DefaultString_m3399348550
kQi:_UnityAction_4_Invoke_m3312096275_gshared
mOh:__ZL111LayoutUtility_t4076838048_CustomAttributesCacheGenerator_LayoutUtility_U3CGetPreferredHeightU3Em__5_m1524880643P21CustomAttributesCache
Xij:__ZN24dense_hashtable_iteratorINSt3__24pairIK10KeyWrapperINS1_IPK10MethodInfoP11Il2CppClassEEEjEES9_17ReflectionMapHashIS8_EN14dense_hash_mapIS9_jSD_NS9_14EqualsComparerINS0_8equal_toIS8_EEEENS0_9allocatorISB_EEE9SelectKeyESI_SK_E30advance_past_empty_and_deletedEv
YQg:_RectTransformUtility_ScreenPointToRay_m1842507230
v7a:__ZN16ReflectionProbes16UpdateSampleDataEv
gEb:__ZN14SafeBinaryRead21TransferSTLStyleArrayI10vector_setI4PPtrI10MonoScriptENSt3__24lessIS4_EE13stl_allocatorIS4_L18MemLabelIdentifier76ELi16EEEEEvRT_17TransferMetaFlags
lfi:_SafeHandle_Finalize_m1839546519
oub:__ZN14Texture2DArray5ResetEv
uuc:__ZN8JSONRead21TransferSTLStyleArrayINSt3__26vectorI10RectOffset13stl_allocatorIS3_L18MemLabelIdentifier1ELi16EEEEEEvRT_S5_17TransferMetaFlags
fui:_InternalEnumerator_1_MoveNext_m252820768_AdjustorThunk
_hi:_Context_AllocateNamedDataSlot_m3200404053
d2f:__Z64RuntimeInvoker_Void_t1841601450_RuntimeObject_Single_t2076509932PFvvEPK10MethodInfoPvPS4_
Irf:_X509EnhancedKeyUsageExtension_Decode_m3866320499
yae:_NumberFormatter_AppendIntegerStringWithGroupSeparator_m1401773574
LQe:_List_1_Remove_m1237648310_gshared
mef:_CipherSuite_get_ServerHMAC_m3566778727
I9g:__ZL64DebuggerBrowsableState_t944457511_CustomAttributesCacheGeneratorP21CustomAttributesCache
Ve:_JS_Sound_Play
Ynd:_Image_IsRaycastLocationValid_m864962354
T_f:__Z181RuntimeInvoker_Void_t1841601450_RuntimeObject_Int32_t2071877448_Int32_t2071877448_RuntimeObject_Int32_t2071877448_Int32_t2071877448_RuntimeObject_Int32_t2071877448_Int32_t2071877448PFvvEPK10MethodInfoPvPS4_
hSb:__ZN9ShaderLab16SerializedShader8TransferI14SafeBinaryReadEEvRT_
txa:__ZN5Mutex7TryLockEv
_A:__ZN7mecanim8skeleton13SkeletonAlignEPKNS0_8SkeletonERKN4math7_float4ES7_i
Y1b:__ZN19ShaderPropertySheet16SetVectorIndexedEN9ShaderLab16FastPropertyNameEifRK8Vector4fNS_8SetFlagsE
Fq:__ZN14SafeBinaryRead21TransferSTLStyleArrayIN4core12basic_stringIcNS1_20StringStorageDefaultIcEEEEEEvRT_17TransferMetaFlags
MBf:_RemotingConfiguration_RegisterWellKnownServiceType_m2491506630
psh:__ZL89Screen_t786852042_CustomAttributesCacheGenerator_Screen_t786852042____height_PropertyInfoP21CustomAttributesCache
$dh:__ZL55_TypeBuilder_t2783404358_CustomAttributesCacheGeneratorP21CustomAttributesCache
j_i:__ZL25UnresolvedVirtualCall_204P12Il2CppObjectPK10MethodInfo
cdb:__Z29StdTemplateConversionFunctionIayEbPvR14SafeBinaryRead
wKe:_List_1_System_Collections_IEnumerable_GetEnumerator_m2923618987_gshared
tMe:_List_1_System_Collections_IList_IndexOf_m4061554721_gshared
zY:__ZN11UnityEngine15CloudWebService14DataDispatcher4StopEv
ZZh:_AnimationLayerMixerPlayable_SetLayerAdditive_m4206337590_AdjustorThunk
mTb:__ZNSt3__26vectorIN9ShaderLab20SerializedSubProgram12UAVParameterENS_9allocatorIS3_EEE8__appendEj
CWe:_Collection_1_GetEnumerator_m434271983_gshared
Qkj:__ZNK15dense_hashtableINSt3__24pairIK10KeyWrapperINS1_IPK9EventInfoP11Il2CppClassEEEjEES9_17ReflectionMapHashIS8_EN14dense_hash_mapIS9_jSD_NS9_14EqualsComparerINS0_8equal_toIS8_EEEENS0_9allocatorISB_EEE9SelectKeyESI_SK_E12test_deletedERK24dense_hashtable_iteratorISB_S9_SD_SM_SI_SK_E
B1c:_X509Certificate_ToString_m1582581274
aWg:_Enumerator_get_Current_m2986380627_gshared
bla:__ZN17ScriptingGCHandle7AcquireE18ScriptingObjectPtr25ScriptingGCHandleWeakness
$gi:_LifetimeServices_set_LeaseTime_m1487876644
nrg:_ConstructorBuilder_not_supported_m3687319507
wT:__ZN19AudioPlayableOutputC2EjP13PlayableGraph
F7g:__ZL48IList_t3321498491_CustomAttributesCacheGeneratorP21CustomAttributesCache
C4c:_Single_System_IConvertible_ToInt64_m3555853323_AdjustorThunk
ovi:_InternalEnumerator_1__ctor_m3901400705_AdjustorThunk
zSj:dynCall_iifiii
nva:__Z21HasAlphaTextureFormat13TextureFormat
tS:__ZN12AudioManager6UpdateEv
iva:__ZN14ImageReference9BlitImageERKS_NS_8BlitModeE
$yg:_MonoMethod_get_MethodHandle_m1882915015
zs:__ZN8Animator12AddToManagerEv
bch:__ZL93ConstructorInfo_t2851816542_CustomAttributesCacheGenerator_ConstructorInfo_Invoke_m2144827141P21CustomAttributesCache
TTg:_ShimEnumerator_get_Key_m1171725158_gshared
_Cb:__ZN23CachedSerializationDataD2Ev
$6a:__ZNK25CameraStackRenderingState31CalculateStereoCameraTargetTypeEv
ymb:__ZN14RenderSettings23VirtualRedirectTransferER14SafeBinaryRead
Nzj:__ZN6il2cpp2os10ThreadImpl15CurrentThreadIdEv
u$e:_Collection_1_System_Collections_IList_get_IsReadOnly_m4005091053_gshared
IVd:_Array_InternalArray__ICollection_Contains_TisColor32_t874517518_m2818328910_gshared
plb:__ZN17GlobalGameManager8TransferI17RemapPPtrTransferEEvRT_
ACe:_AppDomainInitializer_EndInvoke_m4003801172
n7g:__ZL66RuntimeArray_CustomAttributesCacheGenerator_Array_Sort_m2544329074P21CustomAttributesCache
iPg:_RaycastHit2D_get_point_m442317739
kmb:__ZN16LevelGameManager8TransferI18StreamedBinaryReadILb0EEEEvRT_
oKc:_UNITY_tt_face_load_fpgm
Lxb:__ZN12InputManagerD0Ev
YJj:__ZN6il2cpp6icalls8mscorlib6System11Diagnostics10StackTrace9get_traceEP15Il2CppExceptionib
hid:_DefaultControls_CreateUIObject_m2810394112
aGg:_GUIStyle_get_overflow_m1125058093
Iua:__ZNK16LightmapSettings14GetLightProbesEv
lTh:_ScrollRect_get_scrollSensitivity_m1160815603
LKf:_UnicodeEncoding_GetBytes_m1337660232
_Pb:__Z18Transfer_BlittableI18StreamedBinaryReadILb0EELb1EtEvRK29SerializationCommandArgumentsR31RuntimeSerializationCommandInfo
xPj:_posix_memalign
m2b:__ZN13ProduceHelperI12MeshRendererLb0EE7ProduceE18MemLabelIdentifier18ObjectCreationMode
PSe:_List_1_get_Count_m1249351212_gshared
mvi:_InternalEnumerator_1_get_Current_m747506907_AdjustorThunk
k7h:_Camera_get_eventMask_m4241372419
u2f:__Z38RuntimeInvoker_PaddingMode_t3032142640PFvvEPK10MethodInfoPvPS4_
Zkf:_SslClientStream_get_ClientCertSelectionDelegate_m2316959461
lBd:_SynchronizedArrayListWrapper_get_SyncRoot_m1466044127
L4:__ZNK15MonoScriptCache7ReleaseEv
l3i:__ZN6il2cpp2vm5Class13HasReferencesEP11Il2CppClass
ig:_glBindTexture
zWe:_Collection_1_ClearItems_m3585785594_gshared
NNj:_snprintf
rNh:__ZL84HorizontalOrVerticalLayoutGroup_t1968298610_CustomAttributesCacheGenerator_m_SpacingP21CustomAttributesCache
Jpg:_Binder__ctor_m1361613966
vpd:_InputField_set_caretPosition_m888572237
Eug:_ILGenerator__cctor_m3943061018
CAd:_ArrayListWrapper_Clone_m1506311066
Jbi:_Event_get_character_m3740896233
usa:__Z36scripting_liveness_calculation_begin17ScriptingClassPtriPFvPP12Il2CppObjectiPvES3_PFvvES7_
mSi:_ListPool_1_Get_m4215629480_gshared
aNa:__ZN16UniformCacheGLES6CreateERK20GpuProgramParameters
ZLf:_UTF8Encoding_Fallback_m811555654
MTf:_UInt64_CompareTo_m3513742483
c$d:_Array_InternalArray__IndexOf_TisPlayableBinding_t2498078091_m398853908_gshared
zHi:_ScriptableObject_t1975622470_marshal_pinvoke_cleanup
Zte:_SimpleCollator_MatchesForwardCore_m558011650
U4e:_ReadOnlyCollection_1_System_Collections_IList_Clear_m1918003010_gshared
RXf:__Z77RuntimeInvoker_Void_t1841601450_RuntimeObject_RuntimeObject_Int32_t2071877448PFvvEPK10MethodInfoPvPS4_
wWj:_emscripten_glGetProgramInfoLog__wrapper
DD:__ZN25AnimatedPropertyEvaluator29BindCurveToScriptingObjectPtrERKN13AnimationClip10FloatCurveEj18ScriptingObjectPtrb
fAh:__ZL94Font_t4239498691_CustomAttributesCacheGenerator_Font_InvokeTextureRebuilt_Internal_m2007522718P21CustomAttributesCache
bMf:_UTF8Encoding_InternalGetChars_m373801468
B6:__ZN17PersistentManager23DestroyFromFileInternalEi
pvh:__ZL98Object_t1021602117_CustomAttributesCacheGenerator_Object_DoesObjectWithInstanceIDExist_m2570795274P21CustomAttributesCache
LHi:_ScrollViewState__ctor_m535685782
cOd:_Decimal_System_IConvertible_ToChar_m2425091200_AdjustorThunk
I$a:__Z19SetupMotionMatricesR6CameraR18RPDataMotionVector
fSd:_Enum_ToString_m2112979707
vJi:_TextGenerator_ValidatedSettings_m1640214759
zfh:__ZL55SoapServices_t3397513225_CustomAttributesCacheGeneratorP21CustomAttributesCache
vzf:_MonoMethodMessage_get_MethodName_m3580519713
nC:__ZN26AnimatorControllerPlayable18PrepareForPlaybackERN7mecanim6memory9AllocatorE
oRd:_Enum_t2459695545_marshal_pinvoke_cleanup
WHi:_HitInfo_t1761367055_marshal_pinvoke_cleanup
VZd:_Array_FindLastIndex_TisRuntimeObject_m986818300_gshared
ULf:_UTF8Encoding_GetBytes_m4170182058
b9d:_Mesh_GetAllocArrayFromChannel_TisColor32_t874517518_m2030100417_gshared
Xla:__ZN22CreateGpuProgramOutputC2Ev
iBg:_Object__ctor_m197157284
puh:__ZL99SortingLayer_t221838959_CustomAttributesCacheGenerator_SortingLayer_GetLayerValueFromID_m4029056996P21CustomAttributesCache
Xke:_MemoryStream_InternalConstructor_m2423667240
mBi:_CapturingGroup_set_Index_m2175936006
qAf:_SoapMethodAttribute_SetReflectionObject_m3431595769
QVh:_Slider_set_maxValue_m2951480075
R2b:__ZN8GUILayer12CleanupClassEv
Jqd:_InputField_OnSubmit_m2856515494
k3i:__ZN6il2cpp2vm5Class4InitEP11Il2CppClass
ga:invoke_vidi
pAe:_DeriveBytes_Adjust_m105515328
ZNc:__ZN2UI14CanvasRenderer17SyncDirtyElementsER8JobFence
WPb:__Z18Transfer_BlittableI18StreamedBinaryReadILb0EELb0ExEvRK29SerializationCommandArgumentsR31RuntimeSerializationCommandInfo
_gd:_ColorBlock_op_Inequality_m1517672458
UCj:__ZN6il2cpp5utils11StringUtils15StringDuplicateEPKc
_xh:__ZL156AnimatorControllerPlayable_t1744083903_CustomAttributesCacheGenerator_AnimatorControllerPlayable_INTERNAL_CALL_GetAnimatorTransitionInfoInternal_m1417370130P21CustomAttributesCache
_8a:__Z15CanAddComponentR10GameObjectPKN5Unity4TypeE
ola:__ZNK9ShaderLab21ShaderRasterStateDesc16ToGfxRasterStateEPK19ShaderPropertySheetS3_R14GfxRasterState
R_:_tlsf_memalign
nHf:_CspParameters__ctor_m2480441577
ULj:__ZN6il2cpp2os9EventImplC2Ebb
Bhi:_DynamicPropertyCollection_NotifyMessage_m840388347
wCi:_Uri_ParseUri_m5711497
uD:__ZN4PPtrI13MonoBehaviourE8TransferI19StreamedBinaryWriteILb0EEEEvRT_
$7f:__Z98RuntimeInvoker_RuntimeObject_RuntimeObject_RayU26_t3651946800_Single_t2076509932_Int32_t2071877448PFvvEPK10MethodInfoPvPS4_
B$:__Z20IsMatrixBuiltinParamPKcPi
BXe:_Collection_1_CheckWritable_m2467777750_gshared
pLh:__ZL108MaskableGraphic_t540192618_CustomAttributesCacheGenerator_MaskableGraphic_ParentMaskStateChanged_m3643747340P21CustomAttributesCache
Mij:__ZN15dense_hashtableINSt3__24pairIK10KeyWrapperINS1_IPK10MethodInfoP11Il2CppClassEEEjEES9_17ReflectionMapHashIS8_EN14dense_hash_mapIS9_jSD_NS9_14EqualsComparerINS0_8equal_toIS8_EEEENS0_9allocatorISB_EEE9SelectKeyESI_SK_E16reset_thresholdsEv
F1b:__ZN8Renderer19PostInitializeClassEv
FKi:_TrackedReference_t1045890189_marshal_pinvoke_back
wli:_InternalEnumerator_1_get_Current_m1943362081_AdjustorThunk
TMi:_Vector3_get_sqrMagnitude_m1814096310_AdjustorThunk
gIj:__ZN6il2cpp6icalls8mscorlib6System8Delegate23CreateDelegate_internalEP20Il2CppReflectionTypeP12Il2CppObjectP22Il2CppReflectionMethodb
H6g:__ZL82RuntimeArray_CustomAttributesCacheGenerator_Array_GetValue_m1507415734____indices0P21CustomAttributesCache
Xpg:_Default_check_type_m2363631305
oCb:__ZN18DelayedCallManager18CancelCallDelayed2E4PPtrI6ObjectEPF15CallObjectStatePS1_PvES7_
nMe:_List_1__cctor_m911493842_gshared
Sfb:__ZN25ThreadsafeLinearAllocator10ReallocateEPvji
NEb:__Z18Transfer_BlittableI14SafeBinaryReadLb1E11QuaternionfEvRK29SerializationCommandArgumentsR31RuntimeSerializationCommandInfo
nda:__ZN18SpriteAtlasManagerD0Ev
e$d:_Array_InternalArray__IndexOf_TisRaycastHit2D_t4063908774_m3739817942_gshared
Kzg:_MonoProperty_GetAccessors_m3704698731
JHj:_GC_disable
wvb:__ZN10Matrix4x4f8TransferI14SafeBinaryReadEEvRT_
moe:_UnmanagedMemoryStream_ReadByte_m2501145010
ADf:_ObjectRecord_UnchainFixup_m3025030310
U6:__Z6AppendRKN4core12basic_stringIcNS_20StringStorageDefaultIcEEEEPKc
V5g:__ZL60MulticastDelegate_t3201952435_CustomAttributesCacheGeneratorP21CustomAttributesCache
tsa:__ZL14OnWorldStoppedv
kNb:__Z18Transfer_BlittableI18StreamedBinaryReadILb1EELb0E8Vector3fEvRK29SerializationCommandArgumentsR31RuntimeSerializationCommandInfo
_7f:__Z81RuntimeInvoker_RuntimeObject_Ray_t2469606224_Single_t2076509932_Int32_t2071877448PFvvEPK10MethodInfoPvPS4_
CAh:__ZL84Canvas_t209405766_CustomAttributesCacheGenerator_Canvas_get_sortingOrder_m3120854436P21CustomAttributesCache
sKh:__ZL61Image_t2042527209_CustomAttributesCacheGenerator_m_FillCenterP21CustomAttributesCache
cGa:__ZN7ApiGLES18ClearBufferSubDataEjN2gl12BufferTargetEll
qKi:_Touch_get_type_m3264731406_AdjustorThunk
dcc:__Z37Camera_Get_Custom_PropAllCamerasCountv
Jub:__ZN14Texture2DArray8TransferI18StreamedBinaryReadILb0EEEEvRT_
Qpj:__ZN6il2cpp6icalls8mscorlib6System5Array9GetLengthEP11Il2CppArrayi
a4a:__Z18ApplyOcclusionMaskR19ProbeOcclusionCacheRK17LightProbeContextRK10RenderNodeb
pke:_FileStreamAsyncResult__ctor_m1096228032
REc:_Split_Cubic
gb:invoke_fiiii
Ouh:__ZL78Time_t31991979_CustomAttributesCacheGenerator_Time_get_unscaledTime_m862335845P21CustomAttributesCache
ENd:_DBNull_System_IConvertible_ToSByte_m1228193074
gWe:_Collection_1__ctor_m2818834331_gshared
p8d:_Array_InternalArray__get_Item_TisUICharInfo_t3056636800_m3872982785_gshared
t6f:__Z68RuntimeInvoker_UInt16_t986882611_UInt16_t986882611_UInt16_t986882611PFvvEPK10MethodInfoPvPS4_
dPe:_List_1__ctor_m2168280176_gshared
V0h:_AnimatorControllerPlayable_INTERNAL_CALL_GetLayerIndexInternal_m2875146206
QKj:__ZN6il2cpp2vm14MetadataLoader16LoadMetadataFileEPKc
Pzj:__ZN6il2cpp2os10ThreadImpl22CreateForCurrentThreadEv
Jxh:__ZL136AnimationOffsetPlayable_t1019600543_CustomAttributesCacheGenerator_AnimationOffsetPlayable_INTERNAL_CALL_GetPositionInternal_m1117100583P21CustomAttributesCache
xZe:_Collection_1_Insert_m3041550124_gshared
Rje:_FileStream_FlushBuffer_m2594140542
qoc:__Z64Register_UnityEngine_GUIStyle_GetFontInternalDuringLoadingThreadv
T0e:_Collection_1_System_Collections_IList_get_Item_m1995028750_gshared
GDj:__ZN6il2cpp2vm8Profiler12GCHeapResizeEx
PTj:dynCall_viiifi
TJa:__ZN18GfxFramebufferGLES20ActiveContextChangedEPP17RenderSurfaceBaseS2_
PJa:__Z19PluginsRenderMarkeri
tvh:__ZL80Object_t1021602117_CustomAttributesCacheGenerator_Object_Instantiate_m2439155489P21CustomAttributesCache
cE:__ZN10HumanTrait18InitializeBoneNameEv
U$g:_DefaultComparer__ctor_m899694595_gshared
Y_h:_AnimationPlayableOutput_GetHandle_m1362491789_AdjustorThunk
gCi:__ZN23InterfaceActionInvoker1ItE6InvokeEjP11Il2CppClassP12Il2CppObjectt
nub:__ZN14Texture2DArray21AwakeFromLoadThreadedEv
WQb:__Z29Transfer_Blittable_ArrayFieldI18StreamedBinaryReadILb0EEyEvRT_R9ArrayInfoRK23StaticTransferFieldInfo
n2g:_EqualityComparer_1_get_Default_m875724809_gshared
pvj:__ZNSt3__214__split_bufferIN6il2cpp2vm5Image20EmbeddedResourceDataERNS_9allocatorIS4_EEEC2EjjS7_
Nmd:_HorizontalOrVerticalLayoutGroup_get_spacing_m2859152439
kdh:__ZL57DispIdAttribute_t607560947_CustomAttributesCacheGeneratorP21CustomAttributesCache
NJ:__ZN12AudioManager17RemoveAudioSourceEP11AudioSource
eYj:_emscripten_glBindProgramARB__wrapper
w7g:__ZL83RuntimeArray_CustomAttributesCacheGenerator_RuntimeArray____LongLength_PropertyInfoP21CustomAttributesCache
y2f:__Z151RuntimeInvoker_Int32_t2071877448_RuntimeObject_Int32_t2071877448_Int32_t2071877448_RuntimeObject_Int32_t2071877448_DecoderFallbackBufferU26_t3597875002PFvvEPK10MethodInfoPvPS4_
qai:_CullingGroup_Finalize_m3172731580
aKg:_Matrix4x4__cctor_m3092679229
e8d:_Array_InternalArray__get_Item_TisUInt64_t2909196914_m2580870875_gshared
Fnj:__ZN15dense_hashtableINSt3__24pairIK10KeyWrapperINS1_IP11Il2CppClassjEEES4_EES6_N6il2cpp8metadata14ArrayClassHashEN14dense_hash_mapIS6_S4_SB_NS6_14EqualsComparerINSA_17ArrayClassCompareEEENS0_9allocatorIS8_EEE9SelectKeyESF_SH_E4swapERSK_
mMf:_UTF8Decoder_GetChars_m3819660582
tU:__ZN5physx14PxLightCpuTask12addReferenceEv
Lqb:__ZN21EnlightenSceneMapping8TransferI19StreamedBinaryWriteILb0EEEEvRT_
Swj:__ZN6il2cpp2gc16GarbageCollector19InitializeFinalizerEv
Qx:__ZN7mecanim8skeleton18CreateSkeletonMaskEjPKNS0_19SkeletonMaskElementERNS_6memory9AllocatorE
d7g:__ZL66RuntimeArray_CustomAttributesCacheGenerator_Array_Sort_m4096942812P21CustomAttributesCache
Kkc:__ZN10GUIManager10DoGUIEventER10InputEventb
Tef:_Context_get_ClientWriteKey_m2235605337
MJb:__Z35Transfer_Blittable_FixedBufferFieldI24GenerateTypeTreeTransferxEvRK29SerializationCommandArgumentsR31RuntimeSerializationCommandInfo
C0:__Z20CalculateSqrDistanceRK8Vector3fRK4AABB
fyj:__ZN6il2cpp2vm12GenericClass8GetClassEP18Il2CppGenericClass
DN:__Z32AudioMixerDuckingProcessCallbackP21UnityAudioEffectStatePfS1_jii
Kqg:_CustomAttributeTypedArgument_GetHashCode_m999147081_AdjustorThunk
I0b:__ZN26CustomRenderTextureManagerD2Ev
Dec:__Z32Input_Get_Custom_PropInputStringv
_je:_FileStream_Read_m3880951166
tK:__ZN12AudioManager8TransferI24GenerateTypeTreeTransferEEvRT_
Yoa:__Z25GetBytesFromTextureFormat13TextureFormat
fva:__ZN9Texture3D19UnloadFromGfxDeviceEb
I4h:_AudioClipPlayable__ctor_m1273139759
bIb:__Z18Transfer_BlittableI17RemapPPtrTransferLb0EsEvRK29SerializationCommandArgumentsR31RuntimeSerializationCommandInfo
h6d:_Dictionary_2_Do_CopyTo_TisRuntimeObject_TisRuntimeObject_m2625001464_gshared
lmh:__ZL67Math_t2022911894_CustomAttributesCacheGenerator_Math_Min_m105057611P21CustomAttributesCache
wD:__ZN16MecanimAnimation25RegisterIAnimationBindingEPKN5Unity4TypeEiP17IAnimationBinding
H4:__Z32scripting_class_get_assemblyname17ScriptingClassPtr
DSc:__ZN11UnityEngine15PlatformWrapper15GetVRDeviceNameEv
pYg:_Dictionary_2_Resize_m2532139610_gshared
LIi:_StackTraceUtility__cctor_m1132099289
GQe:_List_1_IndexOf_m2019441835_gshared
hxh:__ZL85AudioClip_t1932558630_CustomAttributesCacheGenerator_AudioClip_get_length_m3881628918P21CustomAttributesCache
hPf:_TimeSpan_Equals_m2029123271_AdjustorThunk
g9i:__ZN6il2cpp2vm13MetadataCache23GetInvokerMethodPointerEPK10MethodInfoPK20Il2CppGenericContext
iOa:__ZN9GfxDevice21RegisterNativeTextureE9TextureIDi16TextureDimension
$Td:_CultureInfo__ctor_m456863818
jJj:__ZN6il2cpp6icalls8mscorlib6System10Reflection4Emit11TypeBuilder20create_generic_classEP27Il2CppReflectionTypeBuilder
Tbj:__ZNSt3__26vectorIPK10MethodInfoNS_9allocatorIS3_EEE26__swap_out_circular_bufferERNS_14__split_bufferIS3_RS5_EE
MFe:_Enumerator_MoveNext_m2504790928_gshared
FEg:_GUISkin_set_button_m412653849
Yi:_emscripten_glUniformMatrix4fv
jIi:_SliderState__ctor_m1096533539
fXb:__ZN12ScriptMapperD2Ev
jHh:__ZL85AxisEventData_t1524870173_CustomAttributesCacheGenerator_U3CmoveDirU3Ek__BackingFieldP21CustomAttributesCache
_Xc:_KeyedHashAlgorithm_Dispose_m1864300576
DEi:_X509Certificate_PEM_m49854707
Z1h:_AnimatorControllerPlayable_GetParameter_m4243058543_AdjustorThunk
QAe:_PKCS12_get_RNG_m3620550062
Lrf:_X509BasicConstraintsExtension__ctor_m3320418592
NDi:_ExtendedKeyUsageExtension_Decode_m901297139
jUb:__Z32TransferEnumWithNameForceIntSizeI14SafeBinaryRead7FogModeEvRT_RT0_PKc17TransferMetaFlags
tic:__Z52Register_UnityEngine_RenderTexture_Internal_GetWidthv
C8g:__ZL89SafeWaitHandle_t481461830_CustomAttributesCacheGenerator_SafeWaitHandle__ctor_m1710231470P21CustomAttributesCache
tGj:_GC_check_leaked
NVb:__ZN9ShaderLab20SerializedSubProgram16TextureParameter8TransferI19StreamedBinaryWriteILb0EEEEvRT_
I2d:_Array_InternalArray__Insert_TisVector4_t2243707581_m1643342708_gshared
lhb:__ZNK7Hash12812PackToUInt32Ev
yPh:_Mask_OnSiblingGraphicEnabledDisabled_m865494155
oof:_KeysCollection_System_Collections_ICollection_get_SyncRoot_m2289369147
HY:__ZN11UnityEngine15CloudWebService16SessionContainer8AddEventEPNS0_14CloudEventInfoE
cNa:__Z4TrimRKN4core12basic_stringIcNS_20StringStorageDefaultIcEEEES5_
YWh:_Text_set_resizeTextMaxSize_m4034967714
h8g:__ZL55GuidAttribute_t222072359_CustomAttributesCacheGeneratorP21CustomAttributesCache
SBg:_GUIStyle_SetDefaultFont_m2095841351
vqg:_CustomAttributeNamedArgument_Equals_m2691468532
d5g:__ZL74String_t_CustomAttributesCacheGenerator_String_Concat_m3881798623____args0P21CustomAttributesCache
rgh:__ZL103CryptoConfig_t896479599_CustomAttributesCacheGenerator_CryptoConfig_CreateFromName_m2169102076____args1P21CustomAttributesCache
etb:__ZN10VertexData8TransferI14SafeBinaryReadEEvRT_
GL:__ZN4FMOD8ChannelI8setDelayE14FMOD_DELAYTYPEjj
GFd:_Stack__ctor_m2410583781
YYf:__Z42RuntimeInvoker_UInt32_t2149682021_IntPtr_tPFvvEPK10MethodInfoPvPS4_
Vpg:_Default_GetBetterMethod_m4255740863
yrg:_ConstructorBuilder_GetILGenerator_m1731893569
rvj:__ZNSt3__214__split_bufferIN6il2cpp2vm5Image20EmbeddedResourceDataERNS_9allocatorIS4_EEED2Ev
N2:__ZL20SortItemByInstanceIDRKN18AwakeFromLoadQueue4ItemES2_
cwg:_TypeBuilder_create_runtime_class_m2719530260
w_c:_RNGCryptoServiceProvider_RngClose_m2921734810
eDh:__ZL85GUIStyle_t1799908754_CustomAttributesCacheGenerator_GUIStyle_set_richText_m1853532836P21CustomAttributesCache
iy:__ZNK34AnimationStateMachineMixerPlayable26GetInterruptedPosePlayableEv
kUc:__ZN20UnityConnectSettings8TransferI24GenerateTypeTreeTransferEEvRT_
BA:__ZN34BlobWriteTransferSTLStyleArrayImplI22OffsetPtrArrayTransferIbEEclERS1_17TransferMetaFlagsR9BlobWrite
vph:__ZL199U3CCreateWhereIteratorU3Ec__Iterator1D_1_t2523986802_CustomAttributesCacheGenerator_U3CCreateWhereIteratorU3Ec__Iterator1D_1_System_Collections_Generic_IEnumeratorU3CTSourceU3E_get_Current_m517722874P21CustomAttributesCache
_se:_SimpleCollator_IsHalfKana_m4255579023
dmf:_InternalAsyncResult_get_Count_m1291942796
eUe:_Collection_1_System_Collections_IList_Contains_m3365884450_gshared
QBj:__ZNK15dense_hashtableINSt3__24pairIK10KeyWrapperIPK19Il2CppGenericMethodEP10MethodInfoEES6_N6il2cpp8metadata23Il2CppGenericMethodHashEN14dense_hash_mapIS6_S9_SD_NS6_14EqualsComparerINSC_26Il2CppGenericMethodCompareEEENS0_9allocatorISA_EEE9SelectKeyESH_SJ_E10test_emptyERK30dense_hashtable_const_iteratorISA_S6_SD_SL_SH_SJ_E
WSa:__Z16FlaggedAsSkippedIN4core12basic_stringIcNS0_20StringStorageDefaultIcEEEEEbRK13FileEntryInfoRKT_19FileEnumerationFlag
N$e:_Collection_1_set_Item_m3440986310_gshared
M8:__ZL31InitializeRendererUpdateManagerPv
gfd:_BaseMeshEffect__ctor_m2843647600
ebf:_ASN1__ctor_m3688855288
N4f:__Z106RuntimeInvoker_RuntimeObject_Int16_t4041245914_RuntimeObject_BooleanU26_t3168250738_BooleanU26_t3168250738PFvvEPK10MethodInfoPvPS4_
lQ:__ZN13AudioPlayable22ClearFMODResourceCacheEPN4FMOD6SystemE
eS:__ZN13AudioListener12CleanupClassEv
Z$i:_Terminal_Awake_m2961603900
Kgf:_ClientSessionInfo_Dispose_m2571428025
Trd:_LayoutGroup_DelayedSetDirty_m4276695617
Wjf:_RecordProtocol_decryptRecordFragment_m2510859489
OCh:__ZL105GUIStyle_t1799908754_CustomAttributesCacheGenerator_GUIStyle_INTERNAL_set_Internal_clipOffset_m2024478897P21CustomAttributesCache
T9c:_BaseRaycaster_get_sortOrderPriority_m3340181311
Ayb:__ZN11TimeManager8TransferI19StreamedBinaryWriteILb0EEEEvRT_
Gke:_DelegatePInvokeWrapper_ReadDelegate_t3184826381
pph:__ZL91HashSet_1_t2624254809_CustomAttributesCacheGenerator_HashSet_1_OnDeserialization_m627602129P21CustomAttributesCache
QFc:_compare_uni_maps
__e:_Collection_1_get_Count_m804306016_gshared
sSc:__ZN11UnityEngine15PlatformWrapper27GetGraphicsCapsSupportFlagsEv
pMc:__ZNSt3__218__insertion_sort_3IRPFbPN2UI6CanvasES3_EPS3_EEvT0_S8_T_
v5g:__ZL80Decimal_t724701077_CustomAttributesCacheGenerator_Decimal_op_Explicit_m714968249P21CustomAttributesCache
VOd:_Decimal_Equals_m1115043331
VMb:__ZN12NativeBufferI16Converter_StringE15SetupForWritingER9ArrayInfo
Qdd:_StandaloneInputModule_DeactivateModule_m2952848884
zVj:___cxa_end_catch__wrapper
oGh:__ZL119RenderPipelineManager_t984453155_CustomAttributesCacheGenerator_RenderPipelineManager_CleanupRenderPipeline_m2242901458P21CustomAttributesCache
oXg:_ValueCollection_System_Collections_Generic_ICollectionU3CTValueU3E_Clear_m231380274_gshared
Uad:_Entry__ctor_m1176697586
kie:_BinaryReader_ReadUInt32_m1363572147
Gvh:__ZL119PlayableHandle_t213697122_CustomAttributesCacheGenerator_PlayableHandle_INTERNAL_CALL_SetInputCountInternal_m3510545880P21CustomAttributesCache
ulh:__ZL79Convert_t2607082565_CustomAttributesCacheGenerator_Convert_ToUInt32_m3391339025P21CustomAttributesCache
I8a:__ZN13MonoBehaviour22DoScriptRebuildWarningEv
fcc:__Z38Camera_CUSTOM_INTERNAL_CALL_RaycastTryP12Il2CppObjectRK3Rayfi
fXh:_Text_get_verticalOverflow_m3134063496
_1h:_AnimatorControllerPlayable_StringToHash_m2562221043
Gei:_GCHandle_get_Target_m2327042781
m3f:__Z50RuntimeInvoker_Char_t3454481338_Single_t2076509932PFvvEPK10MethodInfoPvPS4_
vZe:_Collection_1_GetEnumerator_m1417525918_gshared
kRj:_llvm_cttz_i32
esf:_PublicKey_DecodeDSA_m1169363495
Slc:__ZN11IMGUIModule25GetGUIStyleScriptingClassEv
OIc:_tt_get_interface
W4d:_Array_Sort_TisRuntimeObject_m143182644_gshared
XGf:_AsymmetricKeyExchangeFormatter__ctor_m3362140205
Oqj:__ZN6il2cpp5utils9PathUtils7CombineIcEENSt3__212basic_stringIT_NS3_11char_traitsIS5_EENS3_9allocatorIS5_EEEERKSA_SC_
fof:_NameObjectCollectionBase_BaseGet_m667273025
E1f:__Z104RuntimeInvoker_RuntimeObject_Byte_t3683104436_RuntimeObject_SByte_t454417549_RuntimeObject_RuntimeObjectPFvvEPK10MethodInfoPvPS4_
Esc:__ZN9JSONWrite8TransferI13dynamic_arrayIiLj4EEEEvRT_PKc17TransferMetaFlags
T1:__Z18ConvertUTF16toUTF8PPKtS0_PPhS2_15ConversionFlags
jBj:__ZN6il2cpp2os20PathErrnoToErrorCodeERKNSt3__212basic_stringIcNS1_11char_traitsIcEENS1_9allocatorIcEEEEi
xQf:_TypeLoadException__ctor_m1903359728
F1i:__ZL16my_g_bit_nth_msfj
mVg:_Transform_1_BeginInvoke_m3014766640_gshared
xYc:_KeySizes__ctor_m3526899007
joj:__ZN15dense_hashtableINSt3__24pairIK10KeyWrapperIP11Il2CppClassES4_EES5_N6il2cpp8metadata16SZArrayClassHashEN14dense_hash_mapIS5_S4_SA_NS5_14EqualsComparerINS9_19SZArrayClassCompareEEENS0_9allocatorIS7_EEE9SelectKeyESE_SG_E12expand_arrayEjN21dense_hash_map_traits17integral_constantIbLb0EEE
fee:_Int16_System_IConvertible_ToInt32_m191782913_AdjustorThunk
yLi:_SpriteAtlasManager__cctor_m1344469326
YEh:__ZL69ArgumentCache_t4810721_CustomAttributesCacheGenerator_m_FloatArgumentP21CustomAttributesCache
dVe:_Collection_1_CopyTo_m1578267616_gshared
qIf:_EncoderReplacementFallback__ctor_m2208438262
TYa:__Z23SetupStereoFlareElementP11FlareVertexRK8Vector2fS3_S3_RK11ColorRGBA32RK10Matrix4x4fRK8Vector3fb
Z5f:__Z91RuntimeInvoker_X509ChainStatusFlags_t480677120_RuntimeObject_RuntimeObject_SByte_t454417549PFvvEPK10MethodInfoPvPS4_
y3i:__ZN6il2cpp2vm5Class15GetInstanceSizeEPK11Il2CppClass
Fgg:__Z37RuntimeInvoker_Enumerator_t3806193287PFvvEPK10MethodInfoPvPS4_
sa:invoke_iiiifiiii
B$g:_Dictionary_2_CopyTo_m1495142643_gshared
Ovc:__ZN9rapidjson8internal6u64toaEyPc
mRi:_EventFunction_1_BeginInvoke_m3064802067_gshared
cmh:__ZL67IndexOutOfRangeException_t3527622107_CustomAttributesCacheGeneratorP21CustomAttributesCache
Snj:__ZNK15dense_hashtableINSt3__24pairIK10KeyWrapperINS1_IP11Il2CppClassjEEES4_EES6_N6il2cpp8metadata14ArrayClassHashEN14dense_hash_mapIS6_S4_SB_NS6_14EqualsComparerINSA_17ArrayClassCompareEEENS0_9allocatorIS8_EEE9SelectKeyESF_SH_E12test_deletedERK30dense_hashtable_const_iteratorIS8_S6_SB_SJ_SF_SH_E
Qie:_Directory_GetFiles_m4036267478
_F:__Z64AnimationOffsetPlayable_CUSTOM_INTERNAL_CALL_GetRotationInternalR9HPlayableR11Quaternionf
Jbe:_NumberFormatInfo_get_CurrencyNegativePattern_m3972163809
vKa:__ZL19BlitFramebufferImplRN4gles23BlitFramebufferDrawQuadER9GfxDevice9TextureIDRK8Vector4f
LHb:__Z18Transfer_BlittableI17RemapPPtrTransferLb0EhEvRK29SerializationCommandArgumentsR31RuntimeSerializationCommandInfo
Rhj:__ZN15dense_hashtableINSt3__24pairIK10KeyWrapperIPK10Il2CppTypeEjEES6_N6il2cpp8metadata14Il2CppTypeHashEN14dense_hash_mapIS6_jSB_NS6_14EqualsComparerINSA_26Il2CppTypeEqualityComparerEEENS0_9allocatorIS8_EEE9SelectKeyESF_SH_E4findERS7_
K8f:__Z83RuntimeInvoker_Void_t1841601450_QuaternionU26_t4187826802_QuaternionU26_t4187826802PFvvEPK10MethodInfoPvPS4_
H2e:_ReadOnlyCollection_1_System_Collections_IList_Add_m2333231354_gshared
nzc:_UNITY_FT_List_Add
Uvg:_OpCodes__cctor_m939885911
jG:__Z87Register_UnityEngine_Animations_AnimationPlayableOutput_INTERNAL_CALL_InternalGetTargetv
Ncf:_PKCS1_RSASP1_m1748738009
zkf:_RSASslSignatureDeformatter_SetHashAlgorithm_m4048969080
KMg:_PlayableHandle_CompareVersion_m276961171
GDi:_UriParser_InitializeAndValidate_m251943319
K0c:_SymmetricAlgorithm_set_Padding_m3081984460
jyb:__ZN9InputAxis8TransferI18StreamedBinaryReadILb0EEEEvRT_
fFf:_StreamingContext_t1417235061_marshal_pinvoke_back
Pzd:_ArrayList_RemoveAt_m2578928333
rFb:__Z18Transfer_BlittableI14SafeBinaryReadLb0EaEvRK29SerializationCommandArgumentsR31RuntimeSerializationCommandInfo
N1e:_ReadOnlyCollection_1_System_Collections_IList_set_Item_m1233322304_gshared
UDi:_GeneralNames_get_DNSNames_m2721668874
_2f:__Z76RuntimeInvoker_Boolean_t3825574718_TimeSpan_t3430258949_TimeSpan_t3430258949PFvvEPK10MethodInfoPvPS4_
tRd:_Enum_System_IConvertible_ToByte_m38374586
v1e:_ReadOnlyCollection_1_System_Collections_Generic_IListU3CTU3E_RemoveAt_m1592158292_gshared
vog:_PlatformNotSupportedException__ctor_m3301654967
IUj:_emscripten_glFrustum__wrapper
Gyh:__ZL126AnimatorControllerPlayable_t1744083903_CustomAttributesCacheGenerator_AnimatorControllerPlayable_CrossFadeInternal_m1115142950P21CustomAttributesCache
mkf:_ReceiveRecordAsyncResult_get_CompletedWithError_m2670396551
Umg:__Z37RuntimeInvoker_Enumerator_t2983962278PFvvEPK10MethodInfoPvPS4_
GOd:_Decimal_Equals_m1798565377
klb:__ZN17GlobalGameManager8TransferI24GenerateTypeTreeTransferEEvRT_
Ueg:__Z38RuntimeInvoker_ContentType_t1028629049PFvvEPK10MethodInfoPvPS4_
NKh:__ZL66InputField_t1631627530_CustomAttributesCacheGenerator_m_CaretColorP21CustomAttributesCache
Y6b:__ZNSt3__26vectorINS_4pairI11ShaderTagIDS2_EENS_9allocatorIS3_EEE6assignIPS3_EENS_9enable_ifIXaasr21__is_forward_iteratorIT_EE5valuesr16is_constructibleIS3_NS_15iterator_traitsISA_E9referenceEEE5valueEvE4typeESA_SA_
Ksg:_TypeBuilder_check_created_m2929267877
x5f:__Z121RuntimeInvoker_Int64_t909078037_Int32_t2071877448_Int32_t2071877448_Int32_t2071877448_Int32_t2071877448_Int32_t2071877448PFvvEPK10MethodInfoPvPS4_
LVa:__Z20SyncFenceCullResultsR11CullResults
TLa:__ZN15TextureTFMethod20IsBoneCountSupportedEi
bF:__ZN26AnimatorControllerPlayable9GotoStateEiifff
VEg:_GUISkin_set_horizontalScrollbarThumb_m2119687595
sXd:_PlayableHandle_IsPlayableOfType_TisAudioMixerPlayable_t1831808911_m1065481197_AdjustorThunk
xmb:__ZN14RenderSettings23VirtualRedirectTransferER24GenerateTypeTreeTransfer
HLd:_DateTime_System_IConvertible_ToSByte_m2575078084_AdjustorThunk
bJb:__Z22TransferField_NonArrayI17RemapPPtrTransfer27Converter_SimpleNativeClassI8GUIStyleEEvRK23StaticTransferFieldInfoR31RuntimeSerializationCommandInfoRT0_
A3h:_AnimatorStateInfo_IsTag_m1529621725_AdjustorThunk
L$b:__ZNK17AnimationCurveTplIfE20EvaluateWithoutCacheEfRf
ozj:__ZN6il2cpp2os6Thread12QueueUserAPCEPFvPvES2_
sma:__ZN19ShaderPropertySheet10SetTextureERK23FastTexturePropertyNameP7Texture
aYd:_Array_InternalArray__IEnumerable_GetEnumerator_TisDictionaryEntry_t3048875398_m3498834924_gshared
GHg:_GUIStyleState__ctor_m3611888666
OWe:_Collection_1_IsValidItem_m1304951912_gshared
y6b:__ZN4Mesh10SetNormalsEPK8Vector3fj
Azg:_PropertyInfo__ctor_m1808219471
VHd:_Convert_ToDateTime_m4161927553
Qsg:_TypeBuilder_GetConstructors_m774120094
BAh:__ZL87Canvas_t209405766_CustomAttributesCacheGenerator_Canvas_set_overrideSorting_m3982973573P21CustomAttributesCache
Er:__ZN17AnimationCurveTplIfE8TransferI14SafeBinaryReadEEvRT_
a0f:__Z75RuntimeInvoker_Boolean_t3825574718_RuntimeObject_MonoIOErrorU26_t1029615899PFvvEPK10MethodInfoPvPS4_
ZBi:_RegularExpression_set_GroupCount_m2991393456
_Sd:_Calendar_get_EraNames_m452820602
osb:__ZNSt3__26vectorIN15QualitySettings14QualitySettingENS_9allocatorIS2_EEE6assignIPS2_EENS_9enable_ifIXaasr21__is_forward_iteratorIT_EE5valuesr16is_constructibleIS2_NS_15iterator_traitsIS9_E9referenceEEE5valueEvE4typeES9_S9_
ahb:__ZNK5Unity9Component10GetEnabledEv
cXa:__ZNK19ShaderPropertySheet11HasPropertyERKN9ShaderLab16FastPropertyNameE
sLd:_DateTime_System_IConvertible_ToByte_m2670443498_AdjustorThunk
WZ:__GLOBAL__sub_I_runtime_utilities4_lump_cpp
Ndj:_il2cpp_class_get_image
V5:__Z16AsyncReadRequestP16AsyncReadCommand
Aoh:__ZL81BigInteger_t925946153_CustomAttributesCacheGenerator_BigInteger__ctor_m4013661868P21CustomAttributesCache
Eaf:_BigInteger_op_Addition_m1734797151
VKe:_List_1_CheckMatch_m1814522134_gshared
LVe:_Collection_1_System_Collections_IList_set_Item_m3488446830_gshared
jtg:_EnumBuilder_CreateNotSupportedException_m62763134
RVc:__ZNK12HeaderHelper3GetERKN4core12basic_stringIcNS0_20StringStorageDefaultIcEEEE
otf:_X509Chain_CheckRevocation_m2480313486
Joe:_Math_Log_m3371716878
eCg:_GUILayoutUtility_Layout_m3812180708
ayb:__ZN9InputAxis8TransferI14SafeBinaryReadEEvRT_
a3:__ZNK21ExecutionOrderManager30GetCustomAwakeFromLoadQueueForEPKN5Unity4TypeE
oVc:__Z27RegisterModule_UnityConnectv
uDd:_Hashtable__ctor_m4280223555
iAg:_ParameterInfo_get_IsRetval_m1881464570
R6h:_Bounds_get_size_m1728027642_AdjustorThunk
lBf:_RealProxy__ctor_m3041043303
S9d:_NumberFormatter_Init_m2654758994
iYc:_HMACSHA1__ctor_m1168389339
bth:__ZL100Input_t1785128008_CustomAttributesCacheGenerator_Input_INTERNAL_get_compositionCursorPos_m2426914348P21CustomAttributesCache
MF:__Z96Register_UnityEngine_Animations_AnimationClipPlayable_INTERNAL_CALL_SetRemoveStartOffsetInternalv
_M:__ZN10ObjectPoolIN4FMOD12ChannelGroupENS0_13ChannelGroupIEE7SetSizeEi
Tve:_PrimalityTest_BeginInvoke_m966469054
m5e:_ReadOnlyCollection_1_System_Collections_Generic_ICollectionU3CTU3E_Clear_m1785953911_gshared
wTf:_UInt64_System_IConvertible_ToInt16_m2797150165_AdjustorThunk
S7d:_Array_InternalArray__get_Item_TisLabelData_t3712112744_m863115768_gshared
Lfe:_Int32_Parse_m753946802
tJg:_Material_DisableKeyword_m1204728089
J_:__Z22ValidateTlsfAllocationPvjiS_
NQe:_List_1_RemoveAt_m2331128844_gshared
v$h:_AnimatorControllerPlayable_GetFloatString_m3678921564
Awg:_UnmanagedMarshal_ToMarshalAsAttribute_m3695569337
OGb:__Z14resize_trimmedINSt3__26vectorI17AnimationCurveTplIfE13stl_allocatorIS3_L18MemLabelIdentifier1ELi16EEEEEvRT_j
_6a:__ZN25CameraStackRenderingState19SetupLastEyeCamerasERK11CameraStack
Qac:__Z12GUIDToStringRK9UnityGUID
aXc:__GLOBAL__sub_I_runtime_vr_plugininterface_lump_cpp
qrd:_LayoutElement_get_minHeight_m2070403283
mJ:__ZN11SoundHandleC2ERKS_
zPh:_Mask_OnEnable_m501850981
Gcf:_RSASslSignatureFormatter__ctor_m2530528184
V7h:_Canvas_get_targetDisplay_m316548313
FG:__Z75AnimatorControllerPlayable_CUSTOM_INTERNAL_CALL_GetAnimatorClipInfoInternalR9HPlayableihP12Il2CppObject
yve:_BigInteger_op_Addition_m1196561843
Ecb:__Z29StdTemplateConversionFunctionItxEbPvR14SafeBinaryRead
fhi:_FormatterData__ctor_m3974986124
Cah:__ZL64FileNotFoundException_t4200667904_CustomAttributesCacheGeneratorP21CustomAttributesCache
IZc:_RijndaelManagedTransform_get_CanReuseTransform_m3735256596
RCd:_Comparer__cctor_m1327316974
Lie:_MonoIO_ExistsFile_m1421941572
RMd:_DateTime_op_GreaterThanOrEqual_m3818963848
Lza:__ZNSt3__26__treeINS_12__value_typeI18VertexChannelsInfoP17VertexDeclarationEENS_19__map_value_compareIS2_S5_NS_4lessIS2_EELb1EEE13stl_allocatorIS5_L18MemLabelIdentifier14ELi16EEE12__find_equalIS2_EERPNS_16__tree_node_baseIPvEENS_21__tree_const_iteratorIS5_PNS_11__tree_nodeIS5_SG_EEiEESJ_RKT_
Av:__ZN17AnimationPlayable18DeallocateBindingsEv
$9a:__ZN6Camera25StandaloneRenderToCubemapEP7TextureiPFvPK9SceneNodePK4AABBR9IndexListPvESA_j
kid:_DefaultControls_SetDefaultTextValues_m1707718380
jed:_TouchInputModule_UseFakeInput_m2112019004
kad:_EventSystem_get_baseEventDataCache_m4294741599
Cmb:__ZN14RenderSettings18TransferDeprecatedI14SafeBinaryReadEEvRT_
fDh:__ZL85GUIStyle_t1799908754_CustomAttributesCacheGenerator_GUIStyle_Internal_Draw_m694122665P21CustomAttributesCache
p$:__ZN12TLSAllocatorI14StackAllocatorE8AllocateEji
X3:__ZN16ScriptingManager18GetMonoScriptCacheEi
qZf:__Z62RuntimeInvoker_Void_t1841601450_RuntimeObject_Int64_t909078037PFvvEPK10MethodInfoPvPS4_
gDg:_GUIStyle_get_stretchHeight_m3396762700
F4i:__ZN15dense_hashtableINSt3__24pairIK10KeyWrapperIPK11Il2CppClassEPKcEES6_N6il2cpp5utils11PointerHashIS3_EEN14dense_hash_mapIS6_S9_SE_NS6_14EqualsComparerINS0_8equal_toIS5_EEEENS0_9allocatorISA_EEE9SelectKeyESJ_SL_E15set_deleted_keyERKSA_
rmd:_GridLayoutGroup_CalculateLayoutInputHorizontal_m2355123124
mph:__ZL84Locale_t4255929017_CustomAttributesCacheGenerator_Locale_GetText_m512920887____args1P21CustomAttributesCache
yFb:__Z18Transfer_BlittableI14SafeBinaryReadLb1EyEvRK29SerializationCommandArgumentsR31RuntimeSerializationCommandInfo
kGh:__ZL89U3CInvokeMessageIdSubscribersU3Ec__AnonStorey0_t1899782350_CustomAttributesCacheGeneratorP21CustomAttributesCache
ipc:__ZN8JSONRead8TransferIfEEvRT_PKc17TransferMetaFlagsb
Oji:_U3CGetEnumeratorU3Ec__Iterator0_Reset_m2980566576_gshared
cai:_Coroutine__ctor_m1253937571
e6e:_ReadOnlyCollection_1_System_Collections_ICollection_get_IsSynchronized_m4063596282_gshared
Evd:__ZN21InterfaceFuncInvoker2IP12Il2CppObjectP6Type_tS1_E6InvokeEjP11Il2CppClassS1_S3_S1_
XPj:__ZNSt3__212basic_stringIcNS_11char_traitsIcEENS_9allocatorIcEEE6appendEPKcj
ubh:__ZL54TypeBuilder_t3308873219_CustomAttributesCacheGeneratorP21CustomAttributesCache
Mqa:__ZN6prcoreL17RemapGenericFloatI18TexFormatARGBFloat17TexFormatRGBAHalfEEvPKNS_9InnerInfoE
mYe:_Collection_1_CheckWritable_m691269733_gshared
BO:__ZN11AudioSource21ApplyCachedParametersE12SoundChannel
Qmg:__Z54RuntimeInvoker_Void_t1841601450_IntPtr_t_RuntimeObjectPFvvEPK10MethodInfoPvPS4_
Ntg:_GenericTypeParameterBuilder_GetAttributeFlagsImpl_m3338182267
RU:__ZN13Simd4iFactoryIN6detail9FourTupleEEC2Eiiii
ene:_SynchronizedReader__ctor_m1408327515
_Gi:_X509Store_LoadCrl_m1146720614
Mig:__Z59RuntimeInvoker_Int32_t2071877448_KeyValuePair_2_t3749587448PFvvEPK10MethodInfoPvPS4_
e7e:_ReadOnlyCollection_1_System_Collections_IList_Clear_m1858417639_gshared
yEd:_Slot_t2022531261_marshal_pinvoke_cleanup
$3h:_LogCallback__ctor_m898185969
lqb:__ZN15SerializeTraitsI33EnlightenTerrainChunksInformationE8TransferI14SafeBinaryReadEEvRS0_RT_
q1i:_Predicate_1__ctor_m1567825400_gshared
V1b:__ZNK32RendererMaterialAnimationBinding9BindValueER6ObjectRKN11UnityEngine9Animation14GenericBindingERNS3_10BoundCurveE
lnb:__Z13GetIAnimationv
Jva:__ZL18stbir__support_onef
EJe:_List_1_System_Collections_IList_Remove_m2040310137_gshared
Oxi:_Match_get_Regex_m3526002767
Oah:__ZL49Stream_t3255436806_CustomAttributesCacheGeneratorP21CustomAttributesCache
qrc:__Z26Transfer_UnityEngineObjectI9JSONWriteLb0EEvRK29SerializationCommandArgumentsR31RuntimeSerializationCommandInfo
pha:__ZN9ShaderLab4Pass9ApplyPassEjPK19ShaderPropertySheetR17ShaderPassContextP6ShaderiPKNS_10GrabPassesEPNS_11SubProgramsE
rna:__ZNSt3__26vectorIN4core12basic_stringIcNS1_20StringStorageDefaultIcEEEE13stl_allocatorIS5_L18MemLabelIdentifier1ELi16EEE6assignINS_11__wrap_iterIPS5_EEEENS_9enable_ifIXaasr21__is_forward_iteratorIT_EE5valuesr16is_constructibleIS5_NS_15iterator_traitsISF_E9referenceEEE5valueEvE4typeESF_SF_
DSf:_UInt32_System_IConvertible_ToInt16_m2251335934_AdjustorThunk
kNc:__ZNSt3__27__sort5IRNS_6__lessIN2UI14DepthSortEntryES3_EEPS3_EEjT0_S7_S7_S7_S7_T_
ovd:_Boolean_System_IConvertible_ToType_m3990189691
Ajj:__ZNSt3__218uninitialized_copyIPNS_4pairIK10KeyWrapperINS1_IPK11Il2CppImageP11Il2CppClassEEEjEESC_EET0_T_SE_SD_
Ba:invoke_vdd
Cn:FUNCTION_TABLE_fiii
Jri:_InternalEnumerator_1_Dispose_m3838127340_AdjustorThunk
TQd:_Double_System_IConvertible_ToUInt32_m624993430
Fn:FUNCTION_TABLE_fiif
FHh:__ZL89PointerEventData_t1599784723_CustomAttributesCacheGenerator_U3CdraggingU3Ek__BackingFieldP21CustomAttributesCache
$Kc:__ZZ29InitializeTextRenderingModulevEN27cleanupAfterLoadRegistrator7ForwardEv
cOf:_Scheduler_Add_m376749205
ww:__ZN27AnimationLayerMixerPlayable24ProcessAnimationLayerMixEP33AnimationPlayableEvaluationOutputP35AnimationPlayableEvaluationConstantP32AnimationPlayableEvaluationInputS1_if
x6a:__Z29PluginsIssueRenderingExtEvent26UnityRenderingExtEventTypePv
zuj:__ZN15dense_hashtableINSt3__24pairIK10KeyWrapperINS1_IPKcS4_EEEiEES6_24NamespaceAndNamePairHashN14dense_hash_mapIS6_iS9_NS6_14EqualsComparerI26NamespaceAndNamePairEqualsEENS0_9allocatorIS8_EEE9SelectKeyESD_SF_E12resize_deltaEjj
Bti:_InternalEnumerator_1_Dispose_m3464626239_AdjustorThunk
V0b:__Z14RandomRotationP9Texture2DPhiiii
hCf:_SingleCallIdentity__ctor_m1512303454
lqi:_InternalEnumerator_1_MoveNext_m1594563423_AdjustorThunk
hte:_SimpleCollator_IsIgnorable_m2485013022
FAh:__ZL86Canvas_t209405766_CustomAttributesCacheGenerator_Canvas_get_sortingLayerID_m1396307660P21CustomAttributesCache
oOe:_List_1_System_Collections_IList_Insert_m2036969360_gshared
Tpd:_InputField_GetUnclampedCharacterLineFromPosition_m1912794077
s0h:_AnimatorControllerPlayable_SetTrigger_m2446912300
fke:_ReadDelegate__ctor_m885671467
oNd:_DateTimeOffset_ToString_m2121173678_AdjustorThunk
Xoh:__ZL50X509Crl_t1699034837_CustomAttributesCacheGeneratorP21CustomAttributesCache
l5f:__Z74RuntimeInvoker_RuntimeObject_RuntimeObject_Int16_t4041245914_RuntimeObjectPFvvEPK10MethodInfoPvPS4_
kj:_JS_WebRequest_SetResponseHandler
P_j:_glDeleteProgram__wrapper
mcc:__Z50Register_UnityEngine_Camera_INTERNAL_get_pixelRectv
Owh:__ZL119AudioClipPlayable_t192218916_CustomAttributesCacheGenerator_AudioClipPlayable_INTERNAL_CALL_GetClipInternal_m2079955679P21CustomAttributesCache
cqa:__ZN6prcoreL18BlitFloatToIntegerERK14ImageReferenceRS0_
sBe:_X509CertificateCollection_get_Item_m410866272
nDg:_Rect_get_yMax_m2915146103
jUi:_EqualityComparer_1_System_Collections_IEqualityComparer_Equals_m1705945391_gshared
m$b:__Z13GetIPhysics2Dv
aY:__ZN11UnityEngine15CloudWebService14RestDownloader17OnCompleteContentEv
Lmd:_LayoutGroup_SetChildAlongAxis_m1615929339
p5f:__Z75RuntimeInvoker_RuntimeObject_RuntimeObject_Double_t4078015681_RuntimeObjectPFvvEPK10MethodInfoPvPS4_
E4f:__Z200RuntimeInvoker_Boolean_t3825574718_RuntimeObject_RuntimeObject_RuntimeObject_Int32_t2071877448_DateTimeU26_t3448131235_SByte_t454417549_BooleanU26_t3168250738_SByte_t454417549_ExceptionU26_t1467204777PFvvEPK10MethodInfoPvPS4_
Ra:invoke_viffi
Qaa:__ZNSt3__26vectorI20ProcessCallbackGroupNS_9allocatorIS1_EEEC2ERKS4_
uy:__ZN17AnimationPlayable28UpdateInternalStateRecursiveILi1ELb0EEEvPK35AnimationPlayableEvaluationConstant
Ua:invoke_vifff
dli:_InternalEnumerator_1__ctor_m2111763266_gshared
Rec:__Z53Register_UnityEngine_Input_INTERNAL_get_mousePositionv
AZj:_glGetVertexAttribiv__wrapper
Ue:_emscripten_request_fullscreen
APg:_Rect_get_xMin_m1161102488
lPg:_RaycastHit2D_get_normal_m3768105386_AdjustorThunk
Jea:__ZN20LocalFileSystemWebGL6DeleteER13FileEntryDatab
sOd:_Decimal_System_IConvertible_ToUInt16_m1621568250
We:_emscripten_glDisableVertexAttribArray
rvh:__ZL79Object_t1021602117_CustomAttributesCacheGenerator_Object_Instantiate_m938141395P21CustomAttributesCache
Wm:FUNCTION_TABLE_iiiifiiii
ZOf:_TimeSpan_get_TotalMinutes_m1645177229_AdjustorThunk
rc:invoke_fifffi
cWg:_Enumerator__ctor_m3539306986_gshared
DGa:__ZN4gles23ClearCurrentFramebufferEP7ApiGLESbbbRK10ColorRGBAffi
Xw:__ZN7mecanim12statemachine20CreateStateWorkspaceEjjjRNS_6memory9AllocatorE
Hwe:__ZN21InterfaceFuncInvoker3IP22ByteU5BU5D_t3397334013S1_iiE6InvokeEjP11Il2CppClassP12Il2CppObjectS1_ii
cmi:_InternalEnumerator_1_System_Collections_IEnumerator_get_Current_m3680087284_gshared
ff:_emscripten_glDeleteObjectARB
sIa:__Z14DecompressDXT3iiiPKjPj
Wne:_UnexceptionalStreamReader_Read_m3839775235
sra:__ZN6prcoreL27StretchGenericFloatBilinearI18TexFormatARGBFloatEEvPKNS_9InnerInfoE
uic:__Z53Register_UnityEngine_RenderTexture_Internal_GetHeightv
O8d:_Dropdown_GetOrAddComponent_TisRuntimeObject_m2875934266_gshared
zBf:_RealProxy_SetTargetDomain_m3940877656
dra:__ZN6prcoreL17RemapGenericFloatI17TexFormatRGBAHalf18TexFormatARGBFloatEEvPKNS_9InnerInfoE
zRd:_Enum_System_IConvertible_ToInt32_m2459904362
ulc:__ZNK8GUIStyle21DrawWithTextSelectionER8GUIStateRK5RectTIfER10GUIContentbbbbbiiRK10ColorRGBAfSA_
s5f:__Z61RuntimeInvoker_RuntimeObject_Double_t4078015681_RuntimeObjectPFvvEPK10MethodInfoPvPS4_
O2f:__Z211RuntimeInvoker_Int32_t2071877448_RuntimeObject_Int32_t2071877448_Int32_t2071877448_Int32_t2071877448_Int32_t2071877448_RuntimeObject_DecoderFallbackBufferU26_t3597875002_ByteU5BU5DU26_t790777611_SByte_t454417549PFvvEPK10MethodInfoPvPS4_
Ilc:__Z14GetBuiltinSkini
Ddf:_ContentInfo__ctor_m3871771681
Hsi:_InternalEnumerator_1_MoveNext_m607849555_AdjustorThunk
dEd:_Enumerator__cctor_m298562758
NVi:_Enumerator_System_Collections_IEnumerator_Reset_m2573763156_gshared
zie:_DirectoryInfo_Initialize_m2216118894
p3c:_WindowsIdentity_Dispose_m2649088337
RXb:__ZN2UI13RectTransform23VirtualRedirectTransferER14SafeBinaryRead
OOi:_InvokableCall_1__ctor_m54675381_gshared
AVe:_Collection_1_System_Collections_IList_Contains_m323652826_gshared
SGe:_List_1_System_Collections_ICollection_get_SyncRoot_m3733894943_gshared
_Me:_List_1_Reverse_m302978607_gshared
tUb:__ZNSt3__26vectorIN9ShaderLab20SerializedSubProgramENS_9allocatorIS2_EEE6assignIPS2_EENS_9enable_ifIXaasr21__is_forward_iteratorIT_EE5valuesr16is_constructibleIS2_NS_15iterator_traitsIS9_E9referenceEEE5valueEvE4typeES9_S9_
ptc:__Z18Transfer_BlittableI8JSONReadLb0E8BitFieldEvRK29SerializationCommandArgumentsR31RuntimeSerializationCommandInfo
tCf:_SoapServices_RegisterInteropXmlType_m2949236705
rij:__ZNK15dense_hashtableINSt3__24pairIK10KeyWrapperIPK10Il2CppTypeEjEES6_N6il2cpp8metadata14Il2CppTypeHashEN14dense_hash_mapIS6_jSB_NS6_14EqualsComparerINSA_26Il2CppTypeEqualityComparerEEENS0_9allocatorIS8_EEE9SelectKeyESF_SH_E10test_emptyERK24dense_hashtable_iteratorIS8_S6_SB_SJ_SF_SH_E
fOb:__ZL17Transfer_GUIStyleI18StreamedBinaryReadILb1EELb0EEvRK29SerializationCommandArgumentsR31RuntimeSerializationCommandInfo
v7c:_String_CharCopy_m2550399897
w7f:__Z234RuntimeInvoker_RuntimeObject_Int16_t4041245914_RuntimeObject_Int32_t2071877448_Int32_t2071877448_Int32_t2071877448_SByte_t454417549_SByte_t454417549_SByte_t454417549_SByte_t454417549_Int16_t4041245914_SByte_t454417549_SByte_t454417549PFvvEPK10MethodInfoPvPS4_
CSb:__ZN9ShaderLab14SerializedPass8TransferI14SafeBinaryReadEEvRT_
Amc:__Z71Register_UnityEngine_GUILayoutUtility_INTERNAL_CALL_Internal_MoveWindowv
rS:__ZN12AudioManager16SetListenerPauseEb
Xqj:__ZN6il2cpp2vm9Exception25RaiseOutOfMemoryExceptionERKNS_5utils10StringViewIDsEE
bWe:_Collection_1_IsValidItem_m2254106115_gshared
Zsg:_TypeBuilder_GetEvent_m3876348075
mWh:_Slider_OnMove_m641164662
da:invoke_viiiiiiiiiii
yMj:___syscall_ret
fOf:_Scheduler__ctor_m3716265742
wye:_MACAlgorithm_Final_m4076939925
rfj:__ZNSt3__212basic_stringIcNS_11char_traitsIcEENS_9allocatorIcEEE6assignINS_11__wrap_iterIPKcEEEENS_9enable_ifIXaasr21__is_forward_iteratorIT_EE5valuesr38__libcpp_string_gets_noexcept_iteratorISC_EE5valueERS5_E4typeESC_SC_
ojf:_TlsServerKeyExchange_ProcessAsSsl3_m462106368
Ltb:__ZN11ChannelInfo8TransferI19StreamedBinaryWriteILb0EEEEvRT_
Kli:_InternalEnumerator_1_System_Collections_IEnumerator_get_Current_m3583252352_gshared
Asg:_EnumBuilder_get_FullName_m2818393911
Kaf:_BigInteger_op_RightShift_m852685747
dme:_StreamAsyncResult_get_Done_m2858832609
hec:__Z34Register_UnityEngine_Gradient_Initv
ESi:_ObjectPool_1_set_countAll_m1742773675_gshared
PEf:_SerializationEntry_get_Value_m1628109884_AdjustorThunk
J9c:_BaseInputModule_GetAxisEventData_m3903709281
f8d:_Array_InternalArray__get_Item_TisUriScheme_t1876590943_m1821482697_gshared
H9e:_BigInteger__ctor_m3239748086
eea:__ZN13ScreenManager23SetIsOrientationEnabledE18EnabledOrientationb
yXi:__ZL24UnresolvedVirtualCall_57P12Il2CppObjectiPK10MethodInfo
Wkh:__ZL79Convert_t2607082565_CustomAttributesCacheGenerator_Convert_ToUInt16_m1043031438P21CustomAttributesCache
Cw:__ZN7mecanim5human25HumanPoseAddOverrideLayerERNS0_9HumanPoseERKS1_fRKNS_6bitsetILj70EEE
F$b:__ZN13ProduceHelperI9TransformLb0EE7ProduceE18MemLabelIdentifier18ObjectCreationMode
roc:__Z45Register_UnityEngine_GUIStyle_GetFontInternalv
PYh:_AnimationEvent_set_floatParameter_m4139544688
l7f:__Z42RuntimeInvoker_AlertDescription_t844791462PFvvEPK10MethodInfoPvPS4_
tAi:_Alternation_get_Alternatives_m1445219249
f0g:_DefaultComparer_GetHashCode_m2506382068_gshared
P9h:_Component_SendMessageUpwards_m19741277
V3g:_EqualityComparer_1_System_Collections_IEqualityComparer_GetHashCode_m1012273405_gshared
u0d:_Array_InternalArray__ICollection_Add_TisHitInfo_t1761367055_m2956071622_gshared
dsi:_InternalEnumerator_1_MoveNext_m470170271_AdjustorThunk
u9a:__ZN10GameObject23VirtualRedirectTransferER18StreamedBinaryReadILb0EE
qEe:_Enumerator_get_Current_m2577424081_gshared
$ui:_InternalEnumerator_1_Dispose_m2270401482_AdjustorThunk
wg:_glFrontFace
oEf:_ObjectRecord_get_IsUnsolvedObjectReference_m2202692850
Rvf:_FactoryCache_Cleanup_m4130035987
Lhi:__ZN23InterfaceActionInvoker1IP18Context_t502196753E6InvokeEjP11Il2CppClassP12Il2CppObjectS1_
ME:__ZN26AnimatorControllerPlayable14SetLayerWeightEif
D_b:__ZN13ProduceHelperI19LowerResBlitTextureLb0EE7ProduceE18MemLabelIdentifier18ObjectCreationMode
O2a:__ZNSt3__26vectorI16ShadowCasterData13stl_allocatorIS1_L18MemLabelIdentifier2ELi16EEE21__push_back_slow_pathIKS1_EEvRT_
gXd:_PlayableHandle_IsPlayableOfType_TisAnimationClipPlayable_t4099382200_m682525715_AdjustorThunk
CPi:_UnityAction_1_Invoke_m1279802577_gshared
fTf:_UInt32_ToString_m1783596809
SKi:_Vector3_get_forward_m1201659139
MRe:_List_1_Sort_m269561757_gshared
iDh:__ZL110GUIStyle_t1799908754_CustomAttributesCacheGenerator_GUIStyle_INTERNAL_CALL_Internal_DrawPrefixLabel_m557487542P21CustomAttributesCache
ILc:__Z51Register_UnityEngine_TextGenerator_GetLinesInternalv
gWi:_HashSet_1_Init_m1258286688_gshared
YWe:_Collection_1_System_Collections_IList_Contains_m3345685421_gshared
N2e:_ReadOnlyCollection_1_System_Collections_IList_RemoveAt_m525136953_gshared
PZd:__ZN21InterfaceFuncInvoker1Ii19Vector4_t2243707581E6InvokeEjP11Il2CppClassP12Il2CppObjectS0_
uqa:__ZN6prcoreL17RemapGenericFloatI17TexFormatRGBFloat18TexFormatRGBAFloatEEvPKNS_9InnerInfoE
kTf:_UInt64_System_IConvertible_ToBoolean_m3012279573_AdjustorThunk
ZQf:_Type_get_IsGenericTypeDefinition_m2147901038
ERa:__ZN12HandlerChain10ToAbsoluteEPKc
gii:_ContextAttribute_Freeze_m4133346275
o9d:_GregorianCalendar__ctor_m3794576475
aTf:_UInt32_TryParse_m4283512434
_Yg:__ZN21InterfaceFuncInvoker2Ib8IntPtr_tS0_E6InvokeEjP11Il2CppClassP12Il2CppObjectS0_S0_
Ivj:__ZN15dense_hashtableI10KeyWrapperIP18Il2CppGenericClassES3_N6il2cpp8metadata22Il2CppGenericClassHashEN14dense_hash_setIS3_S6_NS3_14EqualsComparerINS5_25Il2CppGenericClassCompareEEENSt3__29allocatorIS3_EEE8IdentityESA_SD_E8min_sizeEjj
dJ:__ZN9AudioClip11CreateSoundEv
KTg:_ShimEnumerator_MoveNext_m3313047792_gshared
PWe:_Collection_1_ConvertItem_m2185647560_gshared
EPf:_TimeSpan_op_Inequality_m257547441
MMf:_ExecutionContext_GetObjectData_m1456913356
anj:__ZN14dense_hash_mapI10KeyWrapperINSt3__24pairIPK9FieldInfoP11Il2CppClassEEEj17ReflectionMapHashIS8_ENS9_14EqualsComparerINS1_8equal_toIS8_EEEENS1_9allocatorINS2_IKS9_jEEEEEC2EjRKSB_RKSF_
sLg:_Object_set_hideFlags_m2204253440
Cij:__ZNK15dense_hashtableINSt3__24pairIK10KeyWrapperINS1_IPK10MethodInfoP11Il2CppClassEEEjEES9_17ReflectionMapHashIS8_EN14dense_hash_mapIS9_jSD_NS9_14EqualsComparerINS0_8equal_toIS8_EEEENS0_9allocatorISB_EEE9SelectKeyESI_SK_E13find_positionERSA_
ssg:_EnumBuilder_get_Assembly_m4285228003
PDa:__ZN13GfxDeviceGLES20CreateComputeProgramEPKhj
QNg:_PlayableOutput__ctor_m3826671654
hbe:_DateTimeFormatInfo_get_RoundtripPattern_m562440017
MUc:__ZN11UnityEngine7Connect16PersistentValues13RestoreValuesER8JSONRead
kTa:__ZN20ArchiveStorageReader31TryToReadDirectoryFromBlockDataEyPKvj
h1g:_DefaultComparer__ctor_m3947565964_gshared
yQd:_Double_System_IConvertible_ToByte_m3004284950_AdjustorThunk
xCf:_TypeEntry_get_AssemblyName_m1762285107
Ktj:__ZN6il2cpp2vmL11GetIdentityEP14Il2CppIUnknown
Xxe:_SmallXmlParser_ReadCDATASection_m2558307107
cGj:_GC_push_gc_structures
Sed:_AspectRatioFitter_get_aspectRatio_m3023618874
ocj:__ZN6il2cpp6icalls8mscorlib6SystemL8IsPublicEPK9EventInfo
Pxf:_Enumerator__ctor_m3782962052
Alj:__ZN15dense_hashtableINSt3__24pairIK10KeyWrapperIPK14Il2CppAssemblyEPK22Il2CppMonoAssemblyNameEES6_N6il2cpp5utils11PointerHashIS4_EEN14dense_hash_mapIS6_SA_SF_NS6_14EqualsComparerINS0_8equal_toIS5_EEEENS0_9allocatorISB_EEE9SelectKeyESK_SM_E4swapERSP_
AFd:_Enumerator_get_Current_m1271212567
nDj:__ZThn4_N6il2cpp2vm13ComObjectBase18ReleaseMarshalDataEP13Il2CppIStream
fNa:__Z22GetShaderCachePathGLESv
Y3f:__Z51RuntimeInvoker_UInt16_t986882611_Double_t4078015681PFvvEPK10MethodInfoPvPS4_
BIg:_Input_set_compositionCursorPos_m1615567306
Cpf:_IPAddress_ParseIPV6_m2209709575
SSh:_U3CClickRepeatU3Ec__Iterator0_MoveNext_m1747924386
d9e:_Comparison_1_Invoke_m1670081898_gshared
HXh:_Toggle_set_group_m3833595685
ksd:_LayoutRebuilder_ForceRebuildLayoutImmediate_m566681977
cub:__ZNSt3__213__stable_sortIRNS_4lessI4PPtrI11SpriteAtlasEEENS_11__wrap_iterIPS4_EEEEvT0_SA_T_NS_15iterator_traitsISA_E15difference_typeEPNSD_10value_typeEi
UMa:__ZNSt3__26vectorIPN19ConstantBuffersGLES11ConstBufferENS_9allocatorIS3_EEE21__push_back_slow_pathIKS3_EEvRT_
gbg:__Z74RuntimeInvoker_AnimatorControllerPlayable_t1744083903_Playable_t1896841784PFvvEPK10MethodInfoPvPS4_
C0d:_Array_InternalArray__ICollection_Add_TisVector4_t2243707581_m698578249_gshared
T0:__ZN8keywords6CreateEPKc
S:Math_imul
LFg:_GUIStyle_set_active_m2896743432
Fxb:__ZN14SpriteRenderer15SetupPropertiesEv
Csb:__ZN11PlayerPrefs6GetIntERKN4core12basic_stringIcNS0_20StringStorageDefaultIcEEEEi
b7i:__ZN6il2cpp5utils13dynamic_arrayIPK10Il2CppTypeLj4EEC2ERKS5_
T3c:_SecurityFrame_t1002202659_marshal_pinvoke_back
qLc:__Z45TextGenerator_CUSTOM_INTERNAL_get_rectExtentsP12Il2CppObjectP5RectTIfE
Kfe:_Int32_Equals_m321398519_AdjustorThunk
jDh:__ZL102GUIStyle_t1799908754_CustomAttributesCacheGenerator_GUIStyle_Internal_GetCursorFlashOffset_m3177259302P21CustomAttributesCache
DXd:_SetPropertyUtility_SetStruct_TisChar_t3454481338_m2333420724_gshared
eWe:_Collection_1_IsSynchronized_m2601980439_gshared
VDd:_Hashtable_ContainsKey_m2716576664
mT:__ZN11AudioSource12SetAudioClipEP9AudioClip
pyi:_PatternCompiler_EmitCategory_m1696942454
DOd:_Decimal_decimalFloorAndTrunc_m3655683429
W0d:_Array_InternalArray__ICollection_CopyTo_TisInt32_t2071877448_m984622488_gshared
J1:__ZN18ScriptingArguments9AddObjectE18ScriptingObjectPtr
tPc:__Z39CanvasGroup_Get_Custom_PropInteractableP12Il2CppObject
mV:__ZN11UnityEngine15CloudWebService16SessionContainerD2Ev
kHh:__ZL97AxisEventData_t1524870173_CustomAttributesCacheGenerator_AxisEventData_get_moveVector_m1338727516P21CustomAttributesCache
TGa:__ZN17GenericDynamicVBOC2ER9GfxDevice13GfxBufferModejj
Fhi:_Context_get_HasDynamicSinks_m1998518649
Fkc:__ZZN10GUIManager14InitGUIManagerEvEN41PreUpdateIMGUISendQueuedEventsRegistrator7ForwardEv
D0h:_AnimatorControllerPlayable_ResetTrigger_m758725835_AdjustorThunk
FW:__ZN11UnityEngine15CloudWebService17SessionEventQueue10PurgeItemsEj
mRg:_UpdatedEventHandler_BeginInvoke_m4238510153
N8c:_AbstractEventData_get_used_m4208553917
g8a:__ZN6Camera16StandaloneRenderENS_10RenderFlagEP6ShaderRKN4core12basic_stringIcNS3_20StringStorageDefaultIcEEEE
Esd:_Array_System_Collections_IList_get_Item_m2088124007
Ysd:_Array_GetLength_m2083296647
Whh:__ZL58SecurityElement_t2325568386_CustomAttributesCacheGeneratorP21CustomAttributesCache
fob:__ZNK12CubemapArray13GetIsReadableEv
EBd:_SynchronizedArrayListWrapper_ToArray_m1522185111
BNb:__Z18Transfer_BlittableI18StreamedBinaryReadILb1EELb1EtEvRK29SerializationCommandArgumentsR31RuntimeSerializationCommandInfo
u3c:_SecurityContext_get_FlowSuppressed_m420202521
B$f:__Z55RuntimeInvoker_DayOfWeek_t721777893_DateTime_t693205669PFvvEPK10MethodInfoPvPS4_
ZBa:__ZN9GfxDevice20DeallocRenderSurfaceEP17RenderSurfaceBase
_Uf:_ValueType_ToString_m3796301715
xJa:__ZN20GpuProgramParameters36UpdatePrepareValuesMaximumBufferSizeEv
hfc:__Z53Register_UnityEngine_Quaternion_INTERNAL_CALL_Inversev
a4d:_Array_qsort_TisUICharInfo_t3056636800_m2607408901_gshared
pCg:_GUILayoutGroup__ctor_m992523271
ijb:__ZN12BaseRenderer23RendererBecameInvisibleEv
Gxc:__ZN20TextRenderingPrivate8FontImpl13CharacterInfo8TransferI18StreamedBinaryReadILb0EEEEvRT_
gLb:__Z29Transfer_Blittable_ArrayFieldI24GenerateTypeTreeTransferfEvRT_R9ArrayInfoRK23StaticTransferFieldInfo
MZf:__Z76RuntimeInvoker_RuntimeObject_RuntimeObject_SByte_t454417549_SByte_t454417549PFvvEPK10MethodInfoPvPS4_
Vab:__ZN19CustomRenderTexture9AddParentE4PPtrIS_E
Bmi:_InternalEnumerator_1_MoveNext_m930150026_AdjustorThunk
rrb:__ZN8Gradient8TransferI14SafeBinaryReadEEvRT_
aRi:_UnityEvent_1_Invoke_m1533100983_gshared
qna:__ZNSt3__26vectorIN4core12basic_stringIcNS1_20StringStorageDefaultIcEEEE13stl_allocatorIS5_L18MemLabelIdentifier1ELi16EEE7reserveEj
Sof:_FileWebRequest__ctor_m4003648606
GMh:__ZL71SpriteState_t1353336012_CustomAttributesCacheGenerator_m_DisabledSpriteP21CustomAttributesCache
BRd:_Enum_System_IConvertible_ToSByte_m3488526280
X5f:__Z60RuntimeInvoker_X509ChainStatusFlags_t480677120_RuntimeObjectPFvvEPK10MethodInfoPvPS4_
Kii:_Identity_set_Disposed_m628843469
fLg:_MonoBehaviour_StopAllCoroutines_m1675795839
mxa:__ZN18IDCollectorFunctorD0Ev
g8i:__ZNK15dense_hashtableI10KeyWrapperIPK19Il2CppGenericMethodES4_N6il2cpp8metadata23Il2CppGenericMethodHashEN14dense_hash_setIS4_S7_NS4_14EqualsComparerINS6_26Il2CppGenericMethodCompareEEENSt3__29allocatorIS4_EEE8IdentityESB_SE_E4findERKS4_
$$h:_AnimatorControllerPlayable_GetIntegerString_m2944800090
lvh:__ZL82Object_t1021602117_CustomAttributesCacheGenerator_Object_DestroyObject_m2343493981P21CustomAttributesCache
Cea:__ZNK20LocalFileSystemPosix9IsSymLinkERK13FileEntryData
YEj:_GC_new_free_list_inner
T$g:_DefaultComparer_Equals_m85211180_gshared
TZe:_Collection_1_System_Collections_IList_IndexOf_m1950953062_gshared
dqe:_MonoType_InternalGetEvent_m532443236
LXi:__ZL24UnresolvedVirtualCall_70P12Il2CppObjectPK10MethodInfo
MYe:_Collection_1_IndexOf_m2700825189_gshared
Ewi:_Comparer_1_get_Default_m2605397692_gshared
Hag:__Z93RuntimeInvoker_Void_t1841601450_PlayableHandleU26_t4210769902_Int32_t2071877448_RuntimeObjectPFvvEPK10MethodInfoPvPS4_
duc:__ZN8JSONRead8TransferI10RectOffsetEEvRT_PKc17TransferMetaFlagsb
ruj:__ZNK15dense_hashtableINSt3__24pairIK10KeyWrapperINS1_IPKcS4_EEEiEES6_24NamespaceAndNamePairHashN14dense_hash_mapIS6_iS9_NS6_14EqualsComparerI26NamespaceAndNamePairEqualsEENS0_9allocatorIS8_EEE9SelectKeyESD_SF_E12test_deletedERK24dense_hashtable_iteratorIS8_S6_S9_SH_SD_SF_E
nW:__ZN9JSONWrite8TransferIN11UnityEngine15CloudWebService14DataErrorEvent15FileErrorDetailEEEvRT_PKc17TransferMetaFlags
X7c:_Decoder__ctor_m2623573910
Zwa:__Z21ClearFenceWithoutSyncR8JobFence
H3e:_ReadOnlyCollection_1_System_Collections_Generic_IListU3CTU3E_RemoveAt_m1731148677_gshared
VL:__ZN12SoundManager20RegisterModifiedClipEP10SampleClip
uO:__ZN11AudioSource4PlayEd
Z5i:__ZN15dense_hashtableI10KeyWrapperIPK17Il2CppGenericInstES4_N6il2cpp8metadata21Il2CppGenericInstHashEN14dense_hash_setIS4_S7_NS4_14EqualsComparerINS6_24Il2CppGenericInstCompareEEENSt3__29allocatorIS4_EEE8IdentityESB_SE_E13set_empty_keyERKS4_
Bea:__ZNK20LocalFileSystemPosix8IsHiddenERK13FileEntryData
Q2g:_EqualityComparer_1_System_Collections_IEqualityComparer_Equals_m3589836321_gshared
hye:_SmallXmlParser_IsNameChar_m1561000202
mFi:_X501__cctor_m2610532554
wdh:__ZL95SafeHandle_t2733794115_CustomAttributesCacheGenerator_SafeHandle_DangerousGetHandle_m1328172664P21CustomAttributesCache
Lig:__Z48RuntimeInvoker_Int32_t2071877448_Link_t865133271PFvvEPK10MethodInfoPvPS4_
QSg:_Enumerator_VerifyState_m3173176371_gshared
x7c:_StringComparer__ctor_m2275216983
Vcg:__Z83RuntimeInvoker_Void_t1841601450_RuntimeObject_Internal_DrawArgumentsU26_t3595831378PFvvEPK10MethodInfoPvPS4_
KQe:_List_1_CheckCollection_m2220107869_gshared
Fob:__ZN7Cubemap23VirtualRedirectTransferER18StreamedBinaryReadILb0EE
ogf:_RecordProtocol_EncodeRecord_m3884270352
G$c:_SHA256_Create_m896954069
sJc:_Read_CVT
GKd:_Convert_ToUInt32_m776714429
eQa:__ZN12FileAccessor4SeekEx10FileOrigin
aKb:__ZL26Transfer_SimpleNativeClassI24GenerateTypeTreeTransfer17AnimationCurveTplIfELb0EEvRK29SerializationCommandArgumentsR31RuntimeSerializationCommandInfo
zqb:__ZN24GenerateTypeTreeTransfer8TransferI13dynamic_arrayI33EnlightenTerrainChunksInformationLj4EEEEvRT_PKc17TransferMetaFlags
$9h:_Coroutine_t2299508840_marshal_pinvoke
U8:__ZN16LightmapSettings20DidChangeActiveSceneEP10UnitySceneS1_
IOh:__ZL59g_AssemblyU2DCSharp_Assembly_CustomAttributesCacheGeneratorP21CustomAttributesCache
Ccj:__ZN6il2cpp5utils9PathUtils8BasenameIcEENSt3__212basic_stringIT_NS3_11char_traitsIS5_EENS3_9allocatorIS5_EEEERKSA_
kN:__ZN10AudioMixer11SetupGroupsEv
guh:__ZL91Resources_t339470017_CustomAttributesCacheGenerator_Resources_GetBuiltinResource_m582410469P21CustomAttributesCache
mmc:__Z35Register_UnityEngine_Event_get_typev
Wye:_PrivateKeyInfo_DecodeRSA_m1427048948
hrj:__ZN6il2cpp2vm9Exception23GetInvalidCastExceptionERKNS_5utils10StringViewIDsEE
Oaf:_BigInteger_op_GreaterThanOrEqual_m2643115413
Xog:_Assembly_FillName_m1934025015
Che:_IntPtr_op_Explicit_m1073656736
p6c:_String_IndexOf_m2126171214
_ge:_Int64_ToString_m1544341651_AdjustorThunk
vy:__ZN8Animator28BuildControllerPlayableCacheEv
Zce:_Guid_CheckNull_m2903986431
bnh:__ZL62CrossContextDelegate_t754146990_CustomAttributesCacheGeneratorP21CustomAttributesCache
G6h:_Bounds__ctor_m1202659404
R2:__Z63ThreadAndSerializationSafeCheckGetMonoBehaviourBeingTransferredv
IHj:_GC_enable
jif:_TlsClientCertificateVerify_ProcessAsSsl3_m3377063356
Cdd:_StandaloneInputModule_set_repeatDelay_m2820945738
cje:_EndOfStreamException__ctor_m4268387737
kSf:_UInt16_ToString_m4213290405
Mec:__Z37Register_UnityEngine_Input_GetAxisRawv
uFh:__ZL123UnitySynchronizationContext_t1205147244_CustomAttributesCacheGenerator_UnitySynchronizationContext_ExecuteTasks_m2941058172P21CustomAttributesCache
ySe:_List_1_GetIndex_m433539411_gshared
cgh:__ZL59StreamingContext_t1417235061_CustomAttributesCacheGeneratorP21CustomAttributesCache
$fi:_ChannelServices_RegisterChannel_m3832858065
IRd:_Enum_GetName_m1226611481
m0i:_Func_2_Invoke_m4121137703_gshared
gO:__ZN11AudioSource5ResetEv
Jmg:__Z74RuntimeInvoker_DictionaryEntry_t3048875398_RuntimeObject_Int32_t2071877448PFvvEPK10MethodInfoPvPS4_
s3f:__Z53RuntimeInvoker_DateTime_t693205669_Single_t2076509932PFvvEPK10MethodInfoPvPS4_
sub:__ZN14Texture2DArray23VirtualRedirectTransferER18StreamedBinaryReadILb0EE
UAi:_Literal_CompileLiteral_m276843152
IXb:__ZN2UI13RectTransform13AwakeFromLoadE17AwakeFromLoadMode
QAi:_Reference__ctor_m4110013284
k2a:__ZN14qsort_internal30FindAndMovePivotToLastPositionIP20ShadowCasterSortDatai26ShadowCasterSortDataSorterEEvT_S4_T0_T1_
D6i:__ZNK15dense_hashtableI10KeyWrapperIPK19Il2CppGenericMethodES4_N6il2cpp8metadata23Il2CppGenericMethodHashEN14dense_hash_setIS4_S7_NS4_14EqualsComparerINS6_26Il2CppGenericMethodCompareEEENSt3__29allocatorIS4_EEE8IdentityESB_SE_E3endEv
yEb:__Z18Transfer_BlittableI14SafeBinaryReadLb1EiEvRK29SerializationCommandArgumentsR31RuntimeSerializationCommandInfo
Lxa:__ZN17PersistentManager13GetAllFileIDsERKN4core12basic_stringIcNS0_20StringStorageDefaultIcEEEER13dynamic_arrayIxLj8EE
E4e:_ReadOnlyCollection_1_GetEnumerator_m713393110_gshared
sBf:_ProxyAttribute_GetPropertiesForNewContext_m3587421540
Ytd:_Array_LastIndexOf_m4096535198
Fzd:_ArrayList_Add_m1719188324
OQd:_Double_System_IConvertible_ToSByte_m1653690240_AdjustorThunk
u7f:__Z59RuntimeInvoker_RuntimeObject_Byte_t3683104436_RuntimeObjectPFvvEPK10MethodInfoPvPS4_
Ek:_glGetStringi
DHg:_GUIStyleState_t3801000545_marshal_pinvoke
Pvj:__ZNK15dense_hashtableI10KeyWrapperIP18Il2CppGenericClassES3_N6il2cpp8metadata22Il2CppGenericClassHashEN14dense_hash_setIS3_S6_NS3_14EqualsComparerINS5_25Il2CppGenericClassCompareEEENSt3__29allocatorIS3_EEE8IdentityESA_SD_E10test_emptyERK30dense_hashtable_const_iteratorIS3_S3_S6_SF_SA_SD_E
TD:__ZZN8Animator15InitializeClassEvEN43FunctorImpl_420kDidModifyAnimatorController4CallEPviR11MessageData
tUd:_CultureInfo_set_NumberFormat_m1618950525
Nub:__ZN18StreamedBinaryReadILb0EE21TransferSTLStyleArrayI13dynamic_arrayI8Vector4fLj4EEEEvRT_17TransferMetaFlags
ztf:_X509Store__ctor_m1573680316
Otf:_X509Chain_get_CertificateCollection_m324631835
g3g:_EqualityComparer_1__cctor_m1011898363_gshared
Bed:_AnimationTriggers__ctor_m2623627182
m_d:_Array_InternalArray__IndexOf_TisClientCertificateType_t4001384466_m1168139450_gshared
Atg:_FieldBuilder_get_Name_m2243491233
$W:__ZN11UnityEngine15CloudWebService20WebRequestRestClient18GetResponseHeadersEv
V4b:__ZN16PropertyAccessorC2Ev
Esb:__ZNSt3__23mapIN4core12basic_stringIcNS1_20StringStorageDefaultIcEEEE9PrefValueNS_4lessIS5_EENS_9allocatorINS_4pairIKS5_S6_EEEEEixERSB_
XNb:__Z35Transfer_Blittable_FixedBufferFieldI18StreamedBinaryReadILb1EEaEvRK29SerializationCommandArgumentsR31RuntimeSerializationCommandInfo
u4b:__ZN15DirectorManager22ConstructPlayableGraphEv
Rda:__ZN13ScreenManager16SetScreenTimeoutEi
LIb:__Z18Transfer_BlittableI17RemapPPtrTransferLb0EdEvRK29SerializationCommandArgumentsR31RuntimeSerializationCommandInfo
D0c:_SymmetricAlgorithm_set_IV_m4262655606
HWh:_StencilMaterial__cctor_m2963056855
oUi:_EqualityComparer_1_System_Collections_IEqualityComparer_Equals_m315020809_gshared
Z2h:_AnimatorControllerPlayable_Play_m614561002_AdjustorThunk
Eqg:_CustomAttributeNamedArgument_GetHashCode_m3715408876_AdjustorThunk
xLc:__Z38Register_UnityEngine_Font_HasCharacterv
Tsf:_X509Certificate2_AppendBuffer_m3517242299
p6a:__Z35IntersectSpherePlaneBoundsOptimizedRKN4math7_float4EPS1_i
pUd:_CultureInfo_get_IsNeutralCulture_m3874876470
tyh:__ZL137AnimatorControllerPlayable_t1744083903_CustomAttributesCacheGenerator_AnimatorControllerPlayable_CrossFadeInFixedTimeInternal_m3383124488P21CustomAttributesCache
rPd:_Delegate_CreateDelegate_m3813023227
dDi:_Uri_get_AbsoluteUri_m2120317928
Byj:__ZN6il2cpp2os5posix15PosixWaitObject13InterruptWaitEv
Dhd:_ColorTween_TweenValue_m3279916815
Q9c:_BaseInputModule_IsModuleSupported_m4272494372
u8:__Z22CleanupLODGroupManagerPv
v0d:_Array_InternalArray__ICollection_Add_TisContentType_t1028629049_m2984242302_gshared
imc:__Z21Event_CUSTOM_PopEventP12Il2CppObject
iwj:__ZN6il2cpp8metadata15GenericMetadata20RegisterGenericClassEP18Il2CppGenericClass
nl:_glUniform3fv
hAb:__ZNSt3__218__insertion_sort_3IRN15ResourceManager10Dependency6SorterEPS2_EEvT0_S6_T_
mGe:_Enumerator_System_Collections_IEnumerator_Reset_m3796537546_AdjustorThunk
DKc:_UNITY_FT_Init_Class_tt_service_gx_multi_masters
A5f:__Z53RuntimeInvoker_Int32_t2071877448_TimeSpan_t3430258949PFvvEPK10MethodInfoPvPS4_
Fri:_InternalEnumerator_1_System_Collections_IEnumerator_Reset_m3249248421_AdjustorThunk
FXf:__Z64RuntimeInvoker_RuntimeObject_Int32_t2071877448_Int16_t4041245914PFvvEPK10MethodInfoPvPS4_
Ope:_IntComparer_Compare_m3057931085
S0a:__ZNK16LightmapSettings31GetRealtimeLightmapDecodeValuesEv
JN:__ZN5audio5mixer12SetSuspendedERNS0_16AudioMixerMemoryEb
$sa:__ZN17PersistentManager21UnloadNonDirtyStreamsEv
c$f:__Z63RuntimeInvoker_DSAParameters_t1872138834_BooleanU26_t3168250738PFvvEPK10MethodInfoPvPS4_
cig:__Z62RuntimeInvoker_Boolean_t3825574718_PlayableBinding_t2498078091PFvvEPK10MethodInfoPvPS4_
Yrj:__ZN6il2cpp2vm13LivenessStateC2EP11Il2CppClassjPFvPP12Il2CppObjectiPvES7_PFvvESB_
k9d:_Array_ConvertAll_TisRuntimeObject_TisRuntimeObject_m2423585546_gshared
OWa:__ZN12ImageFilters4BlitER17ShaderPassContextP7TextureP13RenderTextureiPK18SharedMaterialDataPKcP6ShaderiNS_9BlitFlagsE11CubemapFaceRK8Vector2fSH_
hrf:_Oid__ctor_m1936781897
LLg:_Object_INTERNAL_CALL_Internal_InstantiateSingleWithParent_m1401308849
PW:__ZN11UnityEngine15CloudWebService10RestClientINS0_23WebRequestRestHeaderMapEED2Ev
Kdi:_ResourceSet__ctor_m1222864106
wUf:_UIntPtr_op_Explicit_m1113914169
nUe:_Collection_1_System_Collections_IList_get_Item_m3376056117_gshared
eta:__ZN18LoadSceneOperationD0Ev
Xad:__ZN23InterfaceActionInvoker1IP28PointerEventData_t1599784723E6InvokeEjP11Il2CppClassP12Il2CppObjectS1_
kZh:_AnimationClipPlayable_INTERNAL_CALL_CreateHandleInternal_m218917601
L4g:__ZL76UInt16_t986882611_CustomAttributesCacheGenerator_UInt16_TryParse_m1818885113P21CustomAttributesCache
lGe:_Enumerator_VerifyState_m3639069574_gshared
XHa:__ZN4crnd25static_huffman_data_model22prepare_decoder_tablesEv
NTe:_Enumerator_MoveNext_m689054299_gshared
laf:_ModulusRing_Difference_m662924064
gri:_InternalEnumerator_1_MoveNext_m1869236997_gshared
fgd:_CanvasUpdateRegistry_ObjectValidForUpdate_m855695984
Wod:_InputField_set_onValueChanged_m2406388125
pAi:_Regex_Matches_m253372688
J1e:_ReadOnlyCollection_1_System_Collections_ICollection_get_SyncRoot_m2702046016_gshared
zda:__ZL22CleanupUnityWebStreamsPv
Nxi:_Regex_get_RightToLeft_m529734879
PPb:__Z18Transfer_BlittableI18StreamedBinaryReadILb0EELb0E10ColorRGBAfEvRK29SerializationCommandArgumentsR31RuntimeSerializationCommandInfo
Jnf:_ListDictionary_Add_m4276262662
z_i:__ZL25UnresolvedVirtualCall_220P12Il2CppObjectiPK10MethodInfo
Z8:__Znaj
i_c:_RIPEMD160Managed_GGG_m1639995340
n$j:_emscripten_glEnableClientState__wrapper
X$:__ZN17MessageIdentifierC2EPKcNS_7OptionsEPKN5Unity4TypeES1_
NG:__Z76AnimatorControllerPlayable_CUSTOM_INTERNAL_CALL_CrossFadeInFixedTimeInternalR9HPlayableifif
yVg:_Enumerator_System_Collections_IEnumerator_get_Current_m1648049763_gshared
jKj:__ZN6il2cpp6icalls8mscorlib4Mono8Security12Cryptography18KeyPairPersistence15_ProtectMachineEP12Il2CppString
O$f:__Z31RuntimeInvoker_Char_t3454481338PFvvEPK10MethodInfoPvPS4_
cjb:__ZN11GameManager15ThreadedCleanupEv
cPe:_List_1__ctor_m1337392449_gshared
Rsd:_Array_System_Collections_IList_Remove_m2438892375
Hme:_TextWriter__ctor_m2225796097
Ngi:__ZN21InterfaceFuncInvoker0IP24StringU5BU5D_t1642385972E6InvokeEjP11Il2CppClassP12Il2CppObject
Chb:__ZN14SafeBinaryRead8TransferI14ConstantStringEEvRT_PKc17TransferMetaFlags
BHi:_ScriptableObject_Internal_CreateScriptableObject_m1778903390
vka:__ZNK6Camera16GetStereoEnabledEv
w1b:__ZN12LightManager15InitializeClassEv
vla:__ZN9ShaderLab11shaderprops16GetComputeBufferEPK19ShaderPropertySheetS3_NS_16FastPropertyNameE
jGg:_GUIStyle_GetFontInternal_m3509743324
W1:__ZN18ScriptingArgumentsC2Ev
MPf:_TimeZone_IsDaylightSavingTime_m875882154
Rki:_ArrayReadOnlyList_1_Insert_m503707439_gshared
JWj:_emscripten_glBlendFuncSeparate__wrapper
aff:_CipherSuiteCollection_System_Collections_IList_set_Item_m750275607
H$h:_AnimatorControllerPlayable_SetFloatID_m3806317182
rFa:__Z17HasSampledTexture14GraphicsFormat13formatSupport
hYa:__ZNK25CameraStackRenderingState27GetStereoImageEffectTextureEb
l$c:_SHA1CryptoServiceProvider__ctor_m3127563759
Zp:__ZN8Vector3f8TransferI14SafeBinaryReadEEvRT_
wOh:__ZL103BaseVertexEffect_t2504093552_CustomAttributesCacheGenerator_BaseVertexEffect_ModifyVertices_m3446986347P21CustomAttributesCache
Fo:FUNCTION_TABLE_ii
vWg:_Enumerator_MoveNext_m335649778_AdjustorThunk
Yib:__ZN10TagManager8TransferI18StreamedBinaryReadILb0EEEEvRT_
QVf:__Z45RuntimeInvoker_Char_t3454481338_RuntimeObjectPFvvEPK10MethodInfoPvPS4_
Sqc:__Z18Transfer_BlittableI9JSONWriteLb0E8BitFieldEvRK29SerializationCommandArgumentsR31RuntimeSerializationCommandInfo
eTf:_UInt32_ToString_m3894907091_AdjustorThunk
OYd:_Array_InternalArray__IEnumerable_GetEnumerator_TisPlayableBinding_t2498078091_m2095426925_gshared
aOi:_Predicate_1__ctor_m2863314033_gshared
jUd:_CultureInfo_get_TextInfo_m1582311326
z$d:_Array_ForEach_TisRuntimeObject_m1849351808_gshared
mHg:_GUIStyle_get_contentOffset_m1904924583
_Tg:_ShimEnumerator_get_Key_m616785465_gshared
Nxe:_SmallXmlParser_Error_m1832158746
Nwf:_RepeatContext_get_IsLazy_m1620488045
Dk:_glDeleteVertexArrays
Sdb:__Z24CreateDirectoryRecursiveRKN4core12basic_stringIcNS_20StringStorageDefaultIcEEEE
_Uj:b41
oVb:__ZN9ShaderLab20SerializedSubProgram8TransferI18StreamedBinaryReadILb0EEEEvRT_
hme:_StreamAsyncResult_get_AsyncWaitHandle_m4218169359
TCh:__ZL89GUIStyle_t1799908754_CustomAttributesCacheGenerator_GUIStyle_get_stretchWidth_m1223411161P21CustomAttributesCache
Akc:__Z22MonoGUIContentToNative18ScriptingObjectPtrR10GUIContent
S4a:__Z9EndJobSetR8JobFence11JobPriority
njf:_TlsServerSettings_set_SignedParams_m1826385315
$Lc:__ZN2UI13CanvasManager9AddCanvasEPNS_6CanvasE
gwa:__ZN9Texture3D8TransferI19StreamedBinaryWriteILb0EEEEvRT_
mZa:__ZNK6Camera22CalculateRenderingPathEv
ksc:__ZN9JSONWrite8TransferI5RectTIfEEEvRT_PKc17TransferMetaFlags
AZh:_AnimationClipPlayable_INTERNAL_CALL_GetRemoveStartOffsetInternal_m3895628593
NKa:__Z13ConvertMipmap14GraphicsFormatPKvS_Pviiii
Gdf:_ContentInfo_get_Content_m1802070908
X$c:_SHA384Managed_processBlock_m3232296629
jBe:_X509Certificate_get_PublicKey_m714501701
z6f:__Z70RuntimeInvoker_Boolean_t3825574718_UInt16_t986882611_Int32_t2071877448PFvvEPK10MethodInfoPvPS4_
brd:_U3CMouseDragOutsideRectU3Ec__Iterator1_System_Collections_IEnumerator_get_Current_m561728752
WCc:_tt_sbit_decoder_load_image
aja:__Z14IsHalfRTFormat19RenderTextureFormat
E6c:_String_LastIndexOf_m290475879
EZd:__ZN21InterfaceFuncInvoker1Ii22UILineInfo_t3621277874E6InvokeEjP11Il2CppClassP12Il2CppObjectS0_
Xnd:_Image_get_layoutPriority_m2151045813
uoj:__ZN15dense_hashtableINSt3__24pairIK10KeyWrapperIP11Il2CppClassES4_EES5_N6il2cpp8metadata16SZArrayClassHashEN14dense_hash_mapIS5_S4_SA_NS5_14EqualsComparerINS9_19SZArrayClassCompareEEENS0_9allocatorIS7_EEE9SelectKeyESE_SG_EC2EjRKSA_RKSE_RKSI_
_ih:__ZL58ManualResetEvent_t926074657_CustomAttributesCacheGeneratorP21CustomAttributesCache
xne:_TextReader_Read_m975794707
Skc:__ZNSt3__24listIN10GUIManager12SortedScriptE11memory_poolIS2_EE6__sortI13OldSortScriptEENS_15__list_iteratorIS2_PvEESA_SA_jRT_
oTf:_UInt64_System_IConvertible_ToChar_m1930853313_AdjustorThunk
eif:_TlsClientCertificate_SendCertificates_m1096074091
zed:_UIBehaviour_OnCanvasHierarchyChanged_m762109874
HEd:_SyncHashtable_get_Item_m408601391
ygh:__ZL45DSA_t903174880_CustomAttributesCacheGeneratorP21CustomAttributesCache
M3e:_ReadOnlyCollection_1_System_Collections_IEnumerable_GetEnumerator_m1401363518_gshared
TTe:_Stack_1_System_Collections_ICollection_CopyTo_m2104527616_gshared
DKf:_StringBuilder_AppendFormat_m1666670800
k3a:__ZN18DeferredRenderLoop13RenderGBufferEP13RenderTexturePS1_b8JobFencePK25DeferredRenderLoopScratchRi
Rbg:__Z97RuntimeInvoker_Boolean_t3825574718_RuntimeObject_TextGenerationSettings_t2543476768_RuntimeObjectPFvvEPK10MethodInfoPvPS4_
Wng:__Z80RuntimeInvoker_RuntimeObject_RaycastResult_t21186376_RuntimeObject_RuntimeObjectPFvvEPK10MethodInfoPvPS4_
tIb:__Z18Transfer_BlittableI17RemapPPtrTransferLb1E8BitFieldEvRK29SerializationCommandArgumentsR31RuntimeSerializationCommandInfo
gqj:__ZN6il2cpp6icalls8mscorlib6System9ThreadingL11ThreadStartEPv
Zaa:__ZN15DirectorManager12OnSampleTimeEv
c6e:_ReadOnlyCollection_1_System_Collections_IList_Remove_m3878418841_gshared
$od:_InputField_EnforceContentType_m1902926812
Vja:__ZN12CachedReader10Align4ReadEv
aDi:_Uri_op_Equality_m110355127
_0e:_Collection_1_CopyTo_m42272870_gshared
Brj:__ZN6il2cpp2vm9Exception28GetMarshalDirectiveExceptionEPKc
Tqe:_MulticastDelegate_GetObjectData_m3187757658
ehb:__ZNK9Behaviour22GetTypeVirtualInternalEv
Gfd:_CanvasScaler_set_referencePixelsPerUnit_m1188599784
Bkg:__Z74RuntimeInvoker_Void_t1841601450_Int32_t2071877448_RaycastHit2D_t4063908774PFvvEPK10MethodInfoPvPS4_
R8e:_Comparison_1_EndInvoke_m179917407_gshared
c$b:__ZNK28MonoBehaviourPropertyBinding12SetPPtrValueERKN11UnityEngine9Animation10BoundCurveEi
r7a:__Z21GetScriptingArraySize17ScriptingArrayPtr
_wc:__ZN20TextRenderingPrivate8FontImpl8TransferI14SafeBinaryReadEEvRT_
yAi:__ZN23InterfaceActionInvoker1IP19LinkRef_t2090853131E6InvokeEjP11Il2CppClassP12Il2CppObjectS1_
u_h:_AnimationOffsetPlayable_INTERNAL_CALL_CreateHandleInternal_m2301240007
Yna:__Z35UnityPropertySheet_MakeSortedColorsRKNSt3__23mapIN9ShaderLab16FastPropertyNameE10ColorRGBAfNS_4lessIS2_EENS_9allocatorINS_4pairIKS2_S3_EEEEEER10vector_mapIS2_S3_S5_NS6_INS7_IS2_S3_EEEEE
Hcg:__Z116RuntimeInvoker_Void_t1841601450_Rect_t3681755626_RuntimeObject_Int32_t2071877448_Int32_t2071877448_Int32_t2071877448PFvvEPK10MethodInfoPvPS4_
qGg:_GUIStyle_Draw_m4006459684
OFh:__ZL104PlayableExtensions_t2358977238_CustomAttributesCacheGenerator_PlayableExtensions_SetDuration_m3676215212P21CustomAttributesCache
wWf:__Z110RuntimeInvoker_Boolean_t3825574718_RuntimeObject_SByte_t454417549_Int64U26_t763825331_ExceptionU26_t1467204777PFvvEPK10MethodInfoPvPS4_
VCa:__ZN9GfxDevice17ImmediateTexCoordEifff
mzi:_Parser_ParseRegularExpression_m2390577313
AEc:_ft_black_new
vud:_Array_double_swapper_m1175307080
bsh:__ZL102GameObject_t1756533147_CustomAttributesCacheGenerator_GameObject_Internal_CreateGameObject_m3428198595P21CustomAttributesCache
vAi:_Alternation_AddAlternative_m623421443
ouf:_X509CertificateEnumerator_System_Collections_IEnumerator_Reset_m327358896
j7f:__Z65RuntimeInvoker_Void_t1841601450_Byte_t3683104436_Byte_t3683104436PFvvEPK10MethodInfoPvPS4_
M2c:_Hash__ctor_m2554411450
nae:_NumberFormatter_AppendDigits_m1308372770
s4c:_Single_System_IConvertible_ToDateTime_m2510003459_AdjustorThunk
KPd:_Delegate_RemoveImpl_m3666700529
AUj:_emscripten_glUniform4f__wrapper
bof:_NameObjectCollectionBase_OnDeserialization_m3478980442
m3h:_AnimatorControllerParameter_get_name_m1366583724
Nod:_InputField_set_caretColor_m2252440840
kU:__Z78Register_UnityEngine_Audio_AudioPlayableOutput_INTERNAL_CALL_InternalSetTargetv
bD:__ZN8Animator8TransferI19StreamedBinaryWriteILb0EEEEvRT_
K$a:__ZNK6Camera16GetProjectionFarEv
_q:__Z24InverseTransformRotationRK23TransformAccessReadOnlyRKN4math7_float4E
Roe:_MissingFieldException__ctor_m1161042282
z_d:_Array_InternalArray__IndexOf_TisSlot_t2267560602_m1912863273_gshared
snb:__ZNK14PlayableOutput11DerivesFromE17ScriptingClassPtr
lwa:__ZN7Texture34CreateFileTextureUploadInstructionE18TextureUploadFlagsj
PIi:_StateMachineBehaviour_OnStateExit_m1490844990
JCa:__ZN9GfxDevice21ResetDynamicResourcesEv
DWa:__ZN13ComputeShader14SetBufferParamEjRKN9ShaderLab16FastPropertyNameE15ComputeBufferID
$lb:__ZThn280_N31CanvasBatchIntermediateRenderer20OnAssetBoundsChangedEv
hFf:_StreamingContext__ctor_m3063421596_AdjustorThunk
R5e:_ReadOnlyCollection_1_System_Collections_Generic_IListU3CTU3E_Insert_m3054305464_gshared
I_b:__ZN19LowerResBlitTexture13ApplySettingsEv
L5g:__ZL70IntPtr_t_CustomAttributesCacheGenerator_IntPtr_op_Explicit_m3896766622P21CustomAttributesCache
UC:__ZN8Animator8TransferI14SafeBinaryReadEEvRT_
eoj:__ZN15dense_hashtableINSt3__24pairIK10KeyWrapperIP11Il2CppClassES4_EES5_N6il2cpp8metadata16SZArrayClassHashEN14dense_hash_mapIS5_S4_SA_NS5_14EqualsComparerINS9_19SZArrayClassCompareEEENS0_9allocatorIS7_EEE9SelectKeyESE_SG_E4swapERSJ_
pib:__ZN17GlobalGameManager23VirtualRedirectTransferER18StreamedBinaryReadILb0EE
Q_d:_Array_InternalArray__IndexOf_TisTypeTag_t141209596_m2882894956_gshared
TVh:_Slider_get_value_m4182660424
i6:__Z23AsyncReadForceCloseFileRKN4core12basic_stringIcNS_20StringStorageDefaultIcEEEE
st:__ZN17AnimationPlayable34CollectAnimatorControllerPlayablesER13dynamic_arrayIP26AnimatorControllerPlayableLj4EE
aT:__ZN16BaseVideoTexture19UpdateVideoTexturesEv
Qlb:__Z28BuildSingleStreamChannelInfo17ShaderChannelMaskRK20VertexChannelsLayoutS_S2_P11ChannelInfo
Kua:__ZNK16LightmapSettings23HasLightProbeTetrahedraEv
rhf:_Context_get_WriteSequenceNumber_m243492531
Msb:__ZN6Sprite23VirtualRedirectTransferER19StreamedBinaryWriteILb0EE
Q3g:_EqualityComparer_1_System_Collections_IEqualityComparer_GetHashCode_m3761319178_gshared
w6c:_String_LastIndexOfAny_m1473637802
XWh:_Text_get_resizeTextMaxSize_m2671487437
sLe:_List_1_System_Collections_ICollection_CopyTo_m3062449209_gshared
Fhj:__ZNK15dense_hashtableINSt3__24pairIK10KeyWrapperINS1_IPK9FieldInfoP11Il2CppClassEEEjEES9_17ReflectionMapHashIS8_EN14dense_hash_mapIS9_jSD_NS9_14EqualsComparerINS0_8equal_toIS8_EEEENS0_9allocatorISB_EEE9SelectKeyESI_SK_E5beginEv
Nla:__ZNK9ShaderLab7Program19HasMatchingVariantsERK13dynamic_arrayI16ShaderKeywordSetLj4EE
SA:__ZN15SerializeTraitsIN4math4trsXEE8TransferI8BlobSizeEEvRS1_RT_
YFa:__ZN14DataBufferGLES11CopySubDataEPKS_jjj
me:_emscripten_glVertexPointer
jPa:__ZNSt3__26__treeI20DeviceDepthStateGLES11memcmp_lessIS1_S1_ENS_9allocatorIS1_EEE7destroyEPNS_11__tree_nodeIS1_PvEE
SNc:__ZN2UI13PrepareOutputERNS_7BatchesEjjNS_30AdditionalCanvasShaderChannelsE
FJe:_List_1_System_Collections_Generic_ICollectionU3CTU3E_get_IsReadOnly_m1614481629_gshared
Pcj:__ZN6il2cpp2vm7Runtime47RaiseExecutionEngineExceptionIfMethodIsNotFoundEPK10MethodInfo
S2a:__Z17GetFrustumPortionPK8Vector3fffPS_
DUf:_UnauthorizedAccessException__ctor_m259001183
gtj:__ZN15dense_hashtableINSt3__24pairIK10KeyWrapperIP14Il2CppIUnknownEjEES5_N6il2cpp5utils11PointerHashIS3_EEN14dense_hash_mapIS5_jSB_NS5_14EqualsComparerINS0_8equal_toIS4_EEEENS0_9allocatorIS7_EEE9SelectKeyESG_SI_E14squash_deletedEv
vKi:_TouchScreenKeyboard_set_text_m3456054179
sGh:__ZL60MovedFromAttribute_t922195725_CustomAttributesCacheGeneratorP21CustomAttributesCache
Eid:_DefaultControls_CreateDropdown_m1384069408
ucd:_PointerEventData_get_clickCount_m4064532478
m4e:_ReadOnlyCollection_1_System_Collections_Generic_ICollectionU3CTU3E_get_IsReadOnly_m3508872969_gshared
ySd:_EventArgs__cctor_m1350395667
wPg:_Rect_get_position_m24550734_AdjustorThunk
NQi:_UnityEvent_1_GetDelegate_m4062537313_gshared
aHi:_X509Stores_Open_m2057354563
cTd:_CCGregorianCalendar_is_leap_year_m567513478
Orf:_Oid_get_Value_m2271181078
Wud:_Attribute_IsDefined_m2118467641
bbd:_ExecuteEvents_Execute_m898902863
zhg:__Z68RuntimeInvoker_Void_t1841601450_Int32_t2071877448_Color32_t874517518PFvvEPK10MethodInfoPvPS4_
Uli:_InternalEnumerator_1_System_Collections_IEnumerator_get_Current_m3125080595_gshared
A_e:_Collection_1_System_Collections_IList_Add_m2091889616_gshared
i5b:__ZN16StreamedResource8TransferI24GenerateTypeTreeTransferEEvRT_
_jd:_DropdownItem_OnPointerEnter_m761897861
UZh:_AnimationLayerMixerPlayable_INTERNAL_CALL_IsLayerAdditiveInternal_m364677421
CH:__Z90Register_UnityEngine_Animations_AnimatorControllerPlayable_INTERNAL_CALL_CrossFadeInternalv
oMa:__ZN10Matrix3x3f15InvertTransposeEv
eWd:_Array_InternalArray__ICollection_Remove_TisKeyValuePair_2_t1174980068_m2768765894_gshared
uBb:__ZN24GenerateTypeTreeTransfer8TransferINSt3__26vectorIN4core12basic_stringIcNS3_20StringStorageDefaultIcEEEE13stl_allocatorIS7_L18MemLabelIdentifier12ELi16EEEEEEvRT_PKc17TransferMetaFlags
u$h:_AnimatorControllerPlayable_GetFloat_m1229536053
iYe:_Collection_1_set_Item_m2199807215_gshared
Zrh:__ZL96GameObject_t1756533147_CustomAttributesCacheGenerator_GameObject_SendMessage_m71956653____value1P21CustomAttributesCache
yHb:__Z29Transfer_Blittable_ArrayFieldI14SafeBinaryRead8Vector3fEvRT_R9ArrayInfoRK23StaticTransferFieldInfo
qSf:_UInt32_System_IConvertible_ToBoolean_m91295134
SMf:_Monitor_Monitor_test_synchronised_m1542589500
Qrh:__ZL85GameObject_t1756533147_CustomAttributesCacheGenerator_GameObject_get_layer_m725607808P21CustomAttributesCache
ekg:__Z66RuntimeInvoker_Void_t1841601450_Int32_t2071877448_Slot_t2022531261PFvvEPK10MethodInfoPvPS4_
Sxc:__ZN20TextRenderingPrivate8FontImpl18ResetCachedTextureEv
e5g:__ZL75String_t_CustomAttributesCacheGenerator_String_Concat_m626692867____values0P21CustomAttributesCache
_rh:__ZL98GameObject_t1756533147_CustomAttributesCacheGenerator_GameObject_SendMessage_m71956653____options2P21CustomAttributesCache
Ize:_SymmetricTransform_TransformFinalBlock_m4192185386
Mce:_TextInfo__ctor_m1263401274
gVf:_Version_get_Major_m3385239713
jSi:_ListPool_1_Release_m3047738410_gshared
tKi:_TouchScreenKeyboard_Open_m913506328
GFj:_GC_print_finalization_stats
fhf:_Context_get_SecurityProtocolFlags_m3295551796
mXg:_ValueCollection__ctor_m927733289_gshared
Eka:__ZN11NamedObject15ThreadedCleanupEv
d4h:_LowMemoryCallback__ctor_m4181659636
Ori:_InternalEnumerator_1__ctor_m2981879621_AdjustorThunk
Rbc:__Z53Register_UnityEngine_Behaviour_get_isActiveAndEnabledv
Tpf:_IPAddress_ToString_m267966740
YTi:_EqualityComparer_1__ctor_m3971803374_gshared
Dq:__ZNSt3__26vectorIN4core12basic_stringIcNS1_20StringStorageDefaultIcEEEENS_9allocatorIS5_EEE8__appendEj
Lgg:__Z64RuntimeInvoker_Boolean_t3825574718_IntPtr_t_ObjectU26_t597476745PFvvEPK10MethodInfoPvPS4_
Fzb:__ZN26PlayerSettingsSplashScreen8TransferI17RemapPPtrTransferEEvRT_
Fpi:_InternalEnumerator_1_get_Current_m3922357178_gshared
ybj:__ZN6il2cpp6icalls8mscorlib6SystemL17CollectTypeFieldsINS_5utils10functional10TrueFilterEEEvP11Il2CppClassPKS7_iRNSt3__26vectorIP9FieldInfoNSB_9allocatorISE_EEEERKT_
jJh:__ZL72ColorBlock_t2652774230_CustomAttributesCacheGenerator_m_HighlightedColorP21CustomAttributesCache
cQf:_Type_get_IsValueType_m1733572463
UEg:_GUISkin_get_horizontalScrollbarThumb_m4062590908
fZb:__Z13GetTagManagerv
Tmi:_InternalEnumerator_1_Dispose_m1748410190_AdjustorThunk
GWd:_Array_InternalArray__ICollection_Remove_TisUInt16_t986882611_m65494986_gshared
F4e:_ReadOnlyCollection_1_IndexOf_m3054637117_gshared
K1i:__ZL10roundUp128PyS_
YU:__ZN11UnityEngine15CloudWebService17CloudJobSchedulerD0Ev
r5c:_String_System_IConvertible_ToBoolean_m2696751322
ita:__ZN18LoadSceneOperation7PerformEv
NCg:_GUILayer_INTERNAL_CALL_HitTest_m693512502
zMc:__ZNK2UI11CanvasGroup22GetTypeVirtualInternalEv
z6c:_String_LastIndexOfAny_m4281325295
l7h:_Camera_get_pixelRect_m2084185953
Wfg:__Z163RuntimeInvoker_Void_t1841601450_RuntimeObject_Int32_t2071877448_SByte_t454417549_SByte_t454417549_SingleU26_t4173844468_SingleU26_t4173844468_SingleU26_t4173844468PFvvEPK10MethodInfoPvPS4_
ilc:__Z21CleanupGlobalGUIStatev
GOf:_TimeSpan__ctor_m1888018443_AdjustorThunk
umg:__Z74RuntimeInvoker_Int32_t2071877448_UIVertex_t1204258818_UIVertex_t1204258818PFvvEPK10MethodInfoPvPS4_
CEd:_SyncHashtable_get_Count_m3694444082
Tfj:__ZNSt3__26vectorINS_12basic_stringIcNS_11char_traitsIcEENS_9allocatorIcEEEENS4_IS6_EEE8allocateEj
MVf:__Z56RuntimeInvoker_RuntimeObject_RuntimeObject_RuntimeObjectPFvvEPK10MethodInfoPvPS4_
LNa:__ZN22VertexDeclarationCache5ClearEv
g_j:_emscripten_glUniform2i__wrapper
Sbb:__ZN17PersistentManager12SetPathRemapERKN4core12basic_stringIcNS0_20StringStorageDefaultIcEEEES6_
Ov:__Z27ProcessRootMotionEmptyMixerP35AnimationPlayableEvaluationConstantP32AnimationPlayableEvaluationInputP33AnimationPlayableEvaluationOutput
y4a:__ZN6Camera24PrepareCullingParametersERK23CameraCullingParameters13RenderingPathR11CullResults
E7b:__Z12SetIUISystemP9IUISystem
uta:__ZN19RuntimeSceneManager22EndIntegrateMainThreadEP10UnitySceneNS_11LoadingModeE
Chh:__ZL84Evidence_t1407710183_CustomAttributesCacheGenerator_Evidence_GetHashCode_m1260371757P21CustomAttributesCache
w4e:_ReadOnlyCollection_1_System_Collections_ICollection_get_IsSynchronized_m2344337514_gshared
SIb:__Z26Transfer_UnityEngineObjectI17RemapPPtrTransferLb0EEvRK29SerializationCommandArgumentsR31RuntimeSerializationCommandInfo
Sfg:__Z34RuntimeInvoker_FitMode_t4030874534PFvvEPK10MethodInfoPvPS4_
G6c:_String_IsNullOrEmpty_m2802126737
Hxd:_Byte_Parse_m1442736478
Ige:_Int64_Parse_m3258022240
q6c:_String_IndexOfOrdinal_m3591623977
$Ji:_Texture2D_get_whiteTexture_m1979591766
gHf:_CryptoConfig_EncodeLongNumber_m2352037787
HQf:_Type_GetMethod_m475234662
_4c:_Single_GetHashCode_m3102305584
CDe:_KeyValuePair_2__ctor_m1877755778_AdjustorThunk
xfi:_ActivationServices_get_ConstructionActivator_m1726426854
$Kb:__Z29Transfer_Blittable_ArrayFieldI24GenerateTypeTreeTransfer4AABBEvRT_R9ArrayInfoRK23StaticTransferFieldInfo
fkh:__ZL76Convert_t2607082565_CustomAttributesCacheGenerator_Convert_ToChar_m245844937P21CustomAttributesCache
Ajh:__ZL52Activator_t1850728717_CustomAttributesCacheGeneratorP21CustomAttributesCache
IGj:_GC_adj_bytes_allocd
wWh:_SpriteState_t1353336012_marshal_pinvoke_cleanup
q0d:_Array_InternalArray__ICollection_Add_TisKeyframe_t1449471340_m887263954_gshared
GLi:_UIVertex__cctor_m803910084
V1d:_Array_InternalArray__Insert_TisDateTime_t693205669_m1484996356_gshared
yLe:_List_1_System_Collections_IList_Remove_m3933652540_gshared
WYg:_Dictionary_2_System_Collections_IDictionary_GetEnumerator_m1484720898_gshared
tle:_MonoIO_get_ConsoleInput_m2976499023
Qvg:_OpCode_get_Size_m481593949_AdjustorThunk
YBd:_BitArrayEnumerator_checkVersion_m3839504595
ktd:_Array_GetUpperBound_m1352329707
K$b:__ZNK17AnimationCurveTplIfE20FindIndexForSamplingERKNS0_5CacheEfRiS4_
Ca:invoke_fiiifii
b6c:_String_TrimEnd_m3153143011
fNd:_DateTimeOffset_Equals_m3728302791_AdjustorThunk
EHg:_GUIStyleState_t3801000545_marshal_pinvoke_back
D2a:__ZN20SphericalHarmonicsL219AddDirectionalLightERKN4math7_float3ERKNS0_7_float4E
DPf:_TimeSpan_op_GreaterThanOrEqual_m3997050520
Ykh:__ZL77Convert_t2607082565_CustomAttributesCacheGenerator_Convert_ToUInt16_m36213644P21CustomAttributesCache
Saa:__Z26ScheduleJobForEachInternalR8JobFencePFvPvjES1_iPFvS1_E11JobPriority
Zrf:_OidEnumerator_MoveNext_m1889267785
sUa:__ZZ23InitPlayerLoopCallbacksvEN41PostLateUpdateProfilerEndFrameRegistrator7ForwardEv
$7b:__ZN9Scripting18RaiseMonoExceptionEPKcz
vpb:__ZN9Texture2D8TransferI19StreamedBinaryWriteILb0EEEEvRT_
xEg:_GUISkin_set_box_m877476512
bkd:_OptionData__ctor_m3070653720
_Ri:_TweenRunner_1_StartTween_m3792842064_gshared
W1b:__ZN9ShaderLab16FastPropertyName15InitBy28BitHashEj
A4c:_Single_System_IConvertible_ToInt32_m3269519527_AdjustorThunk
F3i:__ZN6il2cpp2vm5Class7GetNameEP11Il2CppClass
r$c:_SHA1Internal_ProcessBlock_m4070037334
Qva:__ZN17PersistentManager17IsObjectAvailableEi
cIj:__ZN6il2cpp6icalls8mscorlib6System10Reflection14MonoMethodInfo15get_method_infoE12Il2CppIntPtrP16Il2CppMethodInfo
zsh:__ZL87RectOffset_t3387826427_CustomAttributesCacheGenerator_RectOffset_get_bottom_m4112328858P21CustomAttributesCache
_2d:_Array_InternalArray__set_Item_TisDouble_t4078015681_m24756265_gshared
XAf:_ObjRef_GetObjectData_m3081609242
n$b:__ZN13ProduceHelperIN2UI13RectTransformELb0EE7ProduceE18MemLabelIdentifier18ObjectCreationMode
qvb:__ZN17PackedFloatVector12UnpackFloatsEPfiiii
kih:__ZL113EncoderReplacementFallback_t4228544112_CustomAttributesCacheGenerator_EncoderReplacementFallback__ctor_m517300448P21CustomAttributesCache
U1e:_ReadOnlyCollection_1__ctor_m3671019970_gshared
Uy:__ZN17AnimationPlayable28UpdateInternalStateRecursiveILi3ELb0EEEvPK35AnimationPlayableEvaluationConstant
QDa:__ZN13GfxDeviceGLES21DestroyComputeProgramER12ObjectHandleI18ComputeProgram_TagPvE
lId:_Convert_ToDecimal_m2007036836
y8:__ZN17UniqueIDGenerator16DestroyPureIndexEj
I4:__ZL21AppendNestedClassName17ScriptingClassPtrRN4core17string_with_labelILi1EEE
cTb:__ZN14SafeBinaryRead21TransferSTLStyleArrayINSt3__26vectorIN9ShaderLab20SerializedSubProgram12UAVParameterENS1_9allocatorIS5_EEEEEEvRT_17TransferMetaFlags
Ehi:_Context_NotifyDynamicSinks_m1367144344
RRg:_Enumerator__ctor_m1897170543_AdjustorThunk
u_:__ZNK13BaseAllocator10IsAssignedEv
fW:__ZN24TextDOMTransferWriteBaseI9JSONWriteE12PushMetaFlagEi
OFi:_X509Certificate_GetSubjectName_m1189079906
Xsc:__Z18Transfer_BlittableI8JSONReadLb1E10ColorRGBAfEvRK29SerializationCommandArgumentsR31RuntimeSerializationCommandInfo
Uff:_TlsClientCertificateVerify__ctor_m110646389
wra:__ZN6prcoreL26RemapGenericIntegerToFloatI17TexFormatARGB888815TexFormatRFloatEEvPKNS_9InnerInfoE
k_:__ZN5Mutex6UnlockEv
Nhi:_Context_GetServerContextSinkChain_m390126977
Gfj:__ZN6il2cpp2vm17TypeNameParseInfoD2Ev
ECh:__ZL89GUIStyle_t1799908754_CustomAttributesCacheGenerator_GUIStyle_set_imagePosition_m327170707P21CustomAttributesCache
ane:_StringReader_Read_m513112775
crb:__ZNK8Renderer8GetLayerEv
hUe:_Collection_1_System_Collections_IList_Insert_m266942173_gshared
Qkb:__ZN12FlareManager11DeleteFlareEi
MVe:_Collection_1_Add_m2613548553_gshared
Zx:__ZN7mecanim9animation22DestroyBlendTreeOutputEPNS0_15BlendTreeOutputERNS_6memory9AllocatorE
X_a:__ZNK6Camera20GetReplacementShaderEv
kWj:_glProgramBinary__wrapper
RNd:_Decimal__ctor_m569480123_AdjustorThunk
kpf:_HttpWebRequest__cctor_m3013631978
GJj:__ZNSt3__26__treeINS_12__value_typeINS_12basic_stringIcNS_11char_traitsIcEENS_9allocatorIcEEEEPFvvEEENS_19__map_value_compareIS7_SA_NS_4lessIS7_EELb1EEENS5_ISA_EEE4findIS7_EENS_15__tree_iteratorISA_PNS_11__tree_nodeISA_PvEEiEERKT_
pTb:__ZNSt3__26vectorIN9ShaderLab20SerializedSubProgram14ConstantBufferENS_9allocatorIS3_EEE7reserveEj
zva:__ZL23stbir__calculate_memoryP11stbir__info
V1f:__Z83RuntimeInvoker_Void_t1841601450_Int64_t909078037_Int32_t2071877448_Int64_t909078037PFvvEPK10MethodInfoPvPS4_
Zij:__ZNK15dense_hashtableINSt3__24pairIK10KeyWrapperINS1_IPK10MethodInfoP11Il2CppClassEEEjEES9_17ReflectionMapHashIS8_EN14dense_hash_mapIS9_jSD_NS9_14EqualsComparerINS0_8equal_toIS8_EEEENS0_9allocatorISB_EEE9SelectKeyESI_SK_E12test_deletedERK24dense_hashtable_iteratorISB_S9_SD_SM_SI_SK_E
pah:__ZL90BinaryReader_t2491843768_CustomAttributesCacheGenerator_BinaryReader_ReadSByte_m1712621355P21CustomAttributesCache
JSh:_Scrollbar_FindSelectableOnRight_m3219495255
v2g:_EqualityComparer_1_System_Collections_IEqualityComparer_GetHashCode_m487741360_gshared
qMc:__ZNSt3__227__insertion_sort_incompleteIRPFbPN2UI6CanvasES3_EPS3_EEbT0_S8_T_
yvc:__ZNK9rapidjson12GenericValueINS_4UTF8IcEE13JSONAllocatorE6AcceptINS_12PrettyWriterI16TempBufferWriterS2_S2_S3_EEEEbRT_
_Wa:__ZNK6Camera18GetRenderRectangleEv
M7i:__ZN6il2cpp5utils13dynamic_arrayIPK10Il2CppTypeLj4EE7reserveEj
hDh:__ZL102GUIStyle_t1799908754_CustomAttributesCacheGenerator_GUIStyle_INTERNAL_CALL_SetMouseTooltip_m3411291301P21CustomAttributesCache
E1d:_Array_InternalArray__ICollection_CopyTo_TisVector3_t2243707580_m509487340_gshared
Xoc:__Z59Register_UnityEngine_GUIUtility_Internal_GetKeyboardControlv
wef:_CipherSuite_get_KeyBlockSize_m2993514247
gH:__Z82AnimatorControllerPlayable_CUSTOM_INTERNAL_CALL_IsParameterControlledByCurveStringR9HPlayableP12Il2CppString
ytc:__ZL26Transfer_SimpleNativeClassI8JSONRead10RectOffsetLb1EEvRK29SerializationCommandArgumentsR31RuntimeSerializationCommandInfo
BPc:__Z44CanvasRenderer_CUSTOM_INTERNAL_CALL_SetColorP12Il2CppObjectRK10ColorRGBAf
z8d:_Component_GetComponentInChildren_TisRuntimeObject_m1823576579_gshared
MEh:__ZL68PreferBinarySerialization_t2472773525_CustomAttributesCacheGeneratorP21CustomAttributesCache
hFj:_GC_should_collect
Lfi:_UrlAttribute_Equals_m1587451932
mAj:__ZNSt3__26__treeINS_12basic_stringIcNS_11char_traitsIcEENS_9allocatorIcEEEENS_4lessIS6_EENS4_IS6_EEE12__find_equalIS6_EERPNS_16__tree_node_baseIPvEESG_RKT_
Cqc:__Z18Transfer_BlittableI9JSONWriteLb1EsEvRK29SerializationCommandArgumentsR31RuntimeSerializationCommandInfo
Zee:_Int16_ToString_m4099416068_AdjustorThunk
iIf:_DSAParameters_t1872138834_marshal_pinvoke_cleanup
Gka:__ZN6ObjectD2Ev
Eac:__ZN9Transform16SetLocalRotationERK11Quaternionf
e0h:_AnimatorControllerPlayable_INTERNAL_CALL_GetIntegerID_m1635852922
gpi:_InternalEnumerator_1_get_Current_m3206960238_AdjustorThunk
xVa:__ZN13RenderManager37RenderCamerasWithScriptableRenderLoopEi
jwe:_ASN1_Element_m2600236165
N9:__ZN23InstancedPropInfoStaticL16RegisterCallbackEPv
Cwj:__ZN15dense_hashtableINSt3__24pairIK10KeyWrapperIP12Il2CppObjectEN6il2cpp2gc9CachedCCWEEES5_NS7_5utils11PointerHashIS3_EEN14dense_hash_mapIS5_S9_SD_NS5_14EqualsComparerINS0_8equal_toIS4_EEEENS0_9allocatorISA_EEE9SelectKeyESI_SK_E16reset_thresholdsEv
$A:__ZN7mecanim8skeleton25SkeletonPoseComputeLocalQEPKNS0_8SkeletonEPKNS0_13SkeletonPoseTIN4math4trsXEEEPS7_ii
nxj:__ZN6il2cpp2os19ReleaseSocketHandleEj
zhh:__ZL59ApplicationTrust_t3968282840_CustomAttributesCacheGeneratorP21CustomAttributesCache
B8g:__ZL128SafeHandleZeroOrMinusOneIsInvalid_t1177681199_CustomAttributesCacheGenerator_SafeHandleZeroOrMinusOneIsInvalid__ctor_m3340306667P21CustomAttributesCache
GS:__ZN11AudioModule16GetDSPSampleRateEv
IBj:__ZN15dense_hashtableINSt3__24pairIK10KeyWrapperIPK19Il2CppGenericMethodEP10MethodInfoEES6_N6il2cpp8metadata23Il2CppGenericMethodHashEN14dense_hash_mapIS6_S9_SD_NS6_14EqualsComparerINSC_26Il2CppGenericMethodCompareEEENS0_9allocatorISA_EEE9SelectKeyESH_SJ_E5clearEv
W4b:__ZN16PropertyAccessor5ClearEv
Jrg:_TypeBuilder_get_next_table_index_m1415870184
_Qj:___cxa_can_catch
Yaf:_SequentialSearchPrimeGeneratorBase_GenerateNewPrime_m296245934
Myd:_Char_GetUnicodeCategory_m4273361321
syh:__ZL137AnimatorControllerPlayable_t1744083903_CustomAttributesCacheGenerator_AnimatorControllerPlayable_CrossFadeInFixedTimeInternal_m2412303303P21CustomAttributesCache
o$a:__ZN6Camera28DefaultPerformRenderFunctionD0Ev
Foe:_Math_Round_m565516458
vhi:_Identity_get_ClientDynamicProperties_m767245959
Sli:_InternalEnumerator_1__ctor_m675130983_AdjustorThunk
rYg:_Dictionary_2_Clear_m899854001_gshared
uyj:__ZN6il2cpp2os5posix15PosixWaitObjectC2ENS2_4TypeE
hZa:__ZN6Camera21PostMultiCustomRenderENS_10RenderFlagEb
uAh:__ZL83Canvas_t209405766_CustomAttributesCacheGenerator_Canvas_get_scaleFactor_m1115379735P21CustomAttributesCache
_vg:_TypeBuilder_create_generic_class_m986834171
mLa:__ZN12_GLOBAL__N_112UploadImagesEP7ApiGLESjji14GraphicsFormatPKhjS2_iiii16TextureUsageModePh
Uya:__ZN23ShaderVariantCollection13WarmupShadersEv
ehf:_Context_set_ProtocolNegotiated_m1177527245
uSf:_UInt32_System_IConvertible_ToChar_m1056040486
n4:__Z25GetCommonScriptingClassesv
Nmf:_TlsStream_get_Length_m1562309511
Lta:__Z27scripting_gc_collect_unsafei
LS:__ZN11AudioModule20SuspendVideoTexturesEv
$Bd:_CaseInsensitiveComparer__ctor_m1125492797
r1b:__ZN12CubemapArrayC2E18MemLabelIdentifier18ObjectCreationMode
Gmg:__Z73RuntimeInvoker_DictionaryEntry_t3048875398_RuntimeObject_SByte_t454417549PFvvEPK10MethodInfoPvPS4_
MGd:_Convert_ToByte_m395020137
uMg:_Plane_ToString_m3541300360_AdjustorThunk
wKb:__Z26Transfer_UnityEngineObjectI24GenerateTypeTreeTransferLb0EEvRK29SerializationCommandArgumentsR31RuntimeSerializationCommandInfo
QHc:_UNITY_FT_GlyphLoader_CheckPoints
jOe:_List_1_System_Collections_ICollection_CopyTo_m1995866425_gshared
eAj:__ZN6il2cpp2vm6Method11GetFullNameEPK10MethodInfo
Pne:_TextWriter_WriteLine_m1754475888
Fwa:__ZN15SharedLightData7PrecalcEv
unb:__ZN20ScriptPlayableOutputD0Ev
xua:__ZN10Matrix4x4fmLERKS_
GOi:_InvokableCall_1_Invoke_m769918017_gshared
$p:__ZN4PPtrI9TransformE8TransferI18StreamedBinaryReadILb0EEEEvRT_
K7d:_Array_InternalArray__get_Item_TisDouble_t4078015681_m2215331088_gshared
Ihh:__ZL57PrincipalPolicy_t289802916_CustomAttributesCacheGeneratorP21CustomAttributesCache
wNb:__Z35Transfer_Blittable_FixedBufferFieldI18StreamedBinaryReadILb1EEsEvRK29SerializationCommandArgumentsR31RuntimeSerializationCommandInfo
sZe:_Collection_1_ClearItems_m3446813399_gshared
jYg:_Dictionary_2_Init_m3666073812_gshared
BPe:_List_1_AsReadOnly_m1681105545_gshared
YSa:__ZN15ArchiveReadFileD0Ev
Bze:_SymmetricTransform_TransformBlock_m1524716432
uZd:_Array_compare_TisColor32_t874517518_m3842009370_gshared
Ybg:__Z105RuntimeInvoker_Boolean_t3825574718_RuntimeObject_Vector2_t2243707579_RuntimeObject_Vector2U26_t3911752445PFvvEPK10MethodInfoPvPS4_
ySc:__ZN11UnityEngine15PlatformWrapper18GetOperatingSystemEv
OIa:__ZNSt3__26vectorIP14DataBufferGLESNS_9allocatorIS2_EEE21__push_back_slow_pathIKS2_EEvRT_
_ti:_InternalEnumerator_1__ctor_m2458691472_AdjustorThunk
Y6e:_ReadOnlyCollection_1_System_Collections_Generic_ICollectionU3CTU3E_Remove_m974176789_gshared
oPd:_Delegate_return_type_match_m4278947849
Bqd:_InputField_GenerateHightlight_m1346735465
ECi:_Uri_ParseNoExceptions_m1151989845
dGd:_GC_SuppressFinalize_m953228702
MHc:_FT_MSB
Hlf:_InternalAsyncResult_get_ProceedAfterHandshake_m552962842
kHg:_GUIStyle_get_clipping_m2754700641
sCf:_SoapServices_PreLoad_m490411755
Bbg:__Z97RuntimeInvoker_Void_t1841601450_PlayableHandleU26_t4210769902_Int32_t2071877448_Int32_t2071877448PFvvEPK10MethodInfoPvPS4_
l$f:__Z63RuntimeInvoker_RuntimeObject_Int32_t2071877448_SByte_t454417549PFvvEPK10MethodInfoPvPS4_
hKj:__ZN6il2cpp6icalls8mscorlib4Mono8Security12Cryptography18KeyPairPersistence10_CanSecureEP12Il2CppString
Gji:_Action_1_Invoke_m4180501989_gshared
BVh:_Slider__ctor_m3124136916
Vvi:_DefaultComparer__ctor_m3180706193_gshared
cQe:_List_1_System_Collections_Generic_IEnumerableU3CTU3E_GetEnumerator_m3625278020_gshared
wAa:__ZN13GfxDeviceGLES14SetRasterStateEPK17DeviceRasterState
D3f:__Z51RuntimeInvoker_Int16_t4041245914_Single_t2076509932PFvvEPK10MethodInfoPvPS4_
GFb:__Z30TransferField_LinearCollectionI14SafeBinaryReadEvRK29SerializationCommandArgumentsR31RuntimeSerializationCommandInfo
Krf:_OidCollection_Add_m3712419303
kLi:_Transform_InverseTransformPoint_m2648491174
Agf:_TlsServerHello__ctor_m3032108168
eja:__ZN14SafeBinaryRead11EndTransferEv
jbh:__ZL98ILGenerator_t99948092_CustomAttributesCacheGenerator_ILGenerator_Mono_GetCurrentOffset_m3553856682P21CustomAttributesCache
VFb:__ZN14SafeBinaryRead8TransferI8MonoPPtrEEvRT_PKc17TransferMetaFlags
o$g:_Dictionary_2_System_Collections_Generic_ICollectionU3CSystem_Collections_Generic_KeyValuePairU3CTKeyU2CTValueU3EU3E_Remove_m1705959559_gshared
uTa:__ZN24dense_hashtable_iteratorINSt3__24pairIKN4core12basic_stringIcNS2_20StringStorageDefaultIcEEEEP20ArchiveStorageReaderEES6_20StringHash32FunctionIS6_EN14dense_hash_mapIS6_S9_SC_NS0_8equal_toIS6_EE13stl_allocatorISA_L18MemLabelIdentifier54ELi16EEE9SelectKeyESF_SI_EppEv
Iti:_InternalEnumerator_1_System_Collections_IEnumerator_get_Current_m1533037706_gshared
Uth:__ZL111MonoBehaviour_t1158329972_CustomAttributesCacheGenerator_MonoBehaviour_StartCoroutine_Auto_Internal_m1014513456P21CustomAttributesCache
YLa:__ZN21UniformBufferTFMethod13MapBoneBufferEj
qkf:_RecordProtocol_SendChangeCipherSpec_m3542001341
K3d:_Array_InternalArray__set_Item_TisVector3_t2243707580_m1390667454_gshared
wkc:__ZN12GUIClipState10BeginOnGUIER10InputEvent
Eqj:__ZNSt3__26vectorIcNS_9allocatorIcEEEC2Ej
yxe:_KeyPairPersistence_CanSecure_m2251009700
Dw:__ZN7mecanim5human14HumanPoseClearERNS0_9HumanPoseERKNS_6bitsetILj70EEE
DDb:__ZN9TextAsset15ThreadedCleanupEv
Wzf:_ReturnMessage_get_Properties_m531965085
Ktg:_GenericTypeParameterBuilder_IsSubclassOf_m563999142
PSd:_Exception_ToString_m627574695
wyc:__ZNSt3__26vectorIN20TextRenderingPrivate8FontImpl7IntRectE13stl_allocatorIS3_L18MemLabelIdentifier34ELi16EEE21__push_back_slow_pathIKS3_EEvRT_
Taa:__Z21CompleteFenceInternalR8JobFence
cmc:__Z30Event_Get_Custom_PropModifiersP12Il2CppObject
Ihj:__ZN30dense_hashtable_const_iteratorINSt3__24pairIK10KeyWrapperINS1_IPK9FieldInfoP11Il2CppClassEEEjEES9_17ReflectionMapHashIS8_EN14dense_hash_mapIS9_jSD_NS9_14EqualsComparerINS0_8equal_toIS8_EEEENS0_9allocatorISB_EEE9SelectKeyESI_SK_E30advance_past_empty_and_deletedEv
G$g:_Dictionary_2_ContainsValue_m2375979648_gshared
It:__ZN7mecanim9animation16CreateClipOutputEPKNS0_4ClipERNS_6memory9AllocatorE
W1d:_Array_InternalArray__Insert_TisDecimal_t724701077_m1429254816_gshared
uSi:_ListPool_1_Get_m2998644518_gshared
VQb:__ZN18StreamedBinaryReadILb0EE21TransferSTLStyleArrayI13dynamic_arrayIyLj8EEEEvRT_17TransferMetaFlags
KOf:_TimeSpan_get_Days_m1002111510
vya:__ZNSt3__218__stable_sort_moveIRN10vector_mapI17ScriptingClassPtrPKN5Unity4TypeENS_4lessIS2_EENS_9allocatorINS_4pairIS2_S6_EEEEE13value_compareENS_11__wrap_iterIPSB_EEEEvT0_SJ_T_NS_15iterator_traitsISJ_E15difference_typeEPNSM_10value_typeE
YRb:__ZN6Shader21AwakeFromLoadThreadedEv
yqa:__ZN6prcoreL17RemapGenericFloatI17TexFormatRGBFloat17TexFormatRGBAHalfEEvPKNS_9InnerInfoE
JKh:__ZL70InputField_t1631627530_CustomAttributesCacheGenerator_m_CharacterLimitP21CustomAttributesCache
TQe:_List_1_get_Capacity_m2443158653_gshared
jvc:__ZN8JSONRead21TransferSTLStyleArrayI13dynamic_arrayI8Vector2fLj4EEEEvRT_18MemLabelIdentifier17TransferMetaFlags
VIg:_LayerMask_op_Implicit_m2135076047
YWc:__ZN13RuntimeStaticINSt3__26vectorIjNS0_9allocatorIjEEEELb0EE16StaticInitializeEPv
EX:__ZN13UploadHandler10OnSentDataEj
tLj:__ZN6il2cpp2os9SemaphoreC2Eii
Qli:_InternalEnumerator_1_get_Current_m2960188445_AdjustorThunk
Z6f:__Z56RuntimeInvoker_UriHostNameType_t2148127109_RuntimeObjectPFvvEPK10MethodInfoPvPS4_
XFb:__ZNSt3__26vectorI8MonoPPtr13stl_allocatorIS1_L18MemLabelIdentifier1ELi16EEE8__appendEj
aXh:_Text_set_alignByGeometry_m1514652028
MZa:__ZN14qsort_internal30FindAndMovePivotToLastPositionIP17RODataReplacementi19ROSorterReplacementEEvT_S4_T0_T1_
hMa:__ZN15UniformTFMethod20IsBoneCountSupportedEi
u1c:_X509Certificate_GetExpirationDateString_m2351894475
Xkb:__ZN15SerializeTraitsI13dynamic_arrayI21PlatformShaderDefinesLj4EEE19ResizeSTLStyleArrayERS2_i18MemLabelIdentifier
Tje:_FileStream_get_Position_m465478322
r6i:__ZN14dense_hash_setI10KeyWrapperIPK19Il2CppGenericMethodEN6il2cpp8metadata23Il2CppGenericMethodHashENS4_14EqualsComparerINS6_26Il2CppGenericMethodCompareEEENSt3__29allocatorIS4_EEEC2EjRKS7_RKSA_
hSj:dynCall_viidi
_1d:_Array_InternalArray__Insert_TisInt64_t909078037_m3039874636_gshared
Wvd:_Convert_ToInt16_m1787678274
MXh:_ToggleGroup_NotifyToggleOn_m997426227
ht:__ZN8Playable18OnApplicationPauseEb
Akf:_RSASslSignatureDeformatter_SetKey_m1150106904
pBh:__ZL74Event_t3028476042_CustomAttributesCacheGenerator_Event_Cleanup_m1195902101P21CustomAttributesCache
f2:__ZN24ScriptingMethodFiltering17FilterOnSignatureENS_18MethodSearchFilterE
arg:_TypeBuilder_get_Module_m1668298460
tSh:_Scrollbar_ClickRepeat_m3403943364
YR:__ZN13ProduceHelperI9AudioClipLb0EE7ProduceE18MemLabelIdentifier18ObjectCreationMode
Nda:__ZN18ScreenManagerWebGL13SetLockCursorE14CursorLockMode
iHc:_cf2_arrstack_finalize
jqe:_MonoType_GetMethodsByName_m1854415088
dSg:_Enumerator_get_CurrentValue_m3147984131_gshared
c$i:_DisplayBuffer_CutViewport_m34694897
Srg:_DerivedType_GetMethods_m165266904
gze:_RSAManaged_EncryptValue_m4089823119
Y_b:__ZN13MonoBehaviour19HandleNotificationsEPviR11MessageData
WLj:__ZN6il2cpp2os9EventImpl5ResetEv
x0g:_DefaultComparer_GetHashCode_m926363525_gshared
TFg:_GUIStyle_set_focused_m1547304893
tTh:_ScrollRect_get_verticalScrollbar_m2455612493
Hke:_ReadDelegate_Invoke_m2091885836
$sg:_TypeBuilder_GetField_m2112455315
JVj:b58
KVj:b59
sag:__Z80RuntimeInvoker_PlayableHandle_t213697122_PlayableGraph_t1041204988_RuntimeObjectPFvvEPK10MethodInfoPvPS4_
rVj:b52
sVj:b53
pVj:b50
qVj:b51
FVj:b56
IVj:b57
tVj:b54
uVj:b55
cve:_Kernel_Multiply_m3585610531
Zdf:_CertificateSelectionCallback_EndInvoke_m3525317639
UN:__ZN4PPtrI15AudioMixerGroupE8TransferI18StreamedBinaryReadILb0EEEEvRT_
LFh:__ZL116PlayableAsset_t2298101656_CustomAttributesCacheGenerator_PlayableAsset_Internal_GetPlayableAssetDuration_m1442951748P21CustomAttributesCache
mLd:_DateTime__ctor_m3604679583_AdjustorThunk
Wvh:__ZL96Transform_t3275118058_CustomAttributesCacheGenerator_Transform_INTERNAL_get_position_m1881704498P21CustomAttributesCache
Bud:_SimpleEnumerator_Reset_m1341779532
bgj:__ZNSt3__214__split_bufferINS_12basic_stringIcNS_11char_traitsIcEENS_9allocatorIcEEEERNS4_IS6_EEEC2EjjS8_
vye:_MACAlgorithm_Core_m2390605245
Msi:_InternalEnumerator_1_System_Collections_IEnumerator_get_Current_m30488070_gshared
TZb:__ZN10GameObject12CleanupClassEv
tpi:_InternalEnumerator_1_System_Collections_IEnumerator_Reset_m2624612805_AdjustorThunk
PWf:__Z77RuntimeInvoker_Byte_t3683104436_RuntimeObject_Int32_t2071877448_RuntimeObjectPFvvEPK10MethodInfoPvPS4_
zei:_DllImportAttribute__ctor_m1165454237
aBa:__ZN9GfxDevice25SetShaderPropertiesSharedERK19ShaderPropertySheet
sRi:_IndexedSet_1_GetEnumerator_m3646001838_gshared
wZf:__Z96RuntimeInvoker_Int32_t2071877448_RuntimeObject_Int32_t2071877448_Int32_t2071877448_RuntimeObjectPFvvEPK10MethodInfoPvPS4_
mDb:__ZN10MonoScript17MainThreadCleanupEv
xgg:__Z39RuntimeInvoker_KeyValuePair_2_t38854645PFvvEPK10MethodInfoPvPS4_
oHa:__ZN18AsyncUploadManager19AsyncResourceUploadER9GfxDeviceii9TextureID
PQh:_VertexHelper_AddUIVertexTriangleStream_m4009409241
Bwi:_Comparer_1__ctor_m844571340_gshared
E2b:__ZL25InitializeDefaultMaterialv
$Pc:__Z53Register_UnityEngine_CanvasRenderer_get_materialCountv
xOf:_WaitHandle_Dispose_m441403862
yQa:__ZN19FileAccessorHandlerD2Ev
jxi:_Comparer_1__ctor_m2941434245_gshared
oYh:_VertexHelper_AddVert_m3290455716
jhh:__ZL56SHA256Managed_t2029745292_CustomAttributesCacheGeneratorP21CustomAttributesCache
fbh:__ZL126GenericTypeParameterBuilder_t1370236603_CustomAttributesCacheGenerator_GenericTypeParameterBuilder_MakeGenericType_m2955814622P21CustomAttributesCache
Ixa:__ZN17PersistentManager12UnloadStreamERKN4core12basic_stringIcNS0_20StringStorageDefaultIcEEEEb
Eda:__ZN13ScreenManager17RequestResolutionEiibi
DHf:_DESTransform__ctor_m4096028381
jej:_il2cpp_unity_liveness_calculation_from_statics
k6d:_Dictionary_2_Do_CopyTo_TisDictionaryEntry_t3048875398_TisDictionaryEntry_t3048875398_m983412647_gshared
kx:__ZNK26AnimatorControllerPlayable11DerivesFromE17ScriptingClassPtr
ZNf:_Scheduler_get_Instance_m1989471839
Wqf:_WebProxy_GetProxy_m1249556681
brf:_WebRequest_System_Runtime_Serialization_ISerializable_GetObjectData_m3377822910
Drb:__ZN8Renderer8TransferI17RemapPPtrTransferEEvRT_
ing:__Z76RuntimeInvoker_Boolean_t3825574718_UIVertex_t1204258818_UIVertex_t1204258818PFvvEPK10MethodInfoPvPS4_
JYe:_Collection_1_Contains_m1299140035_gshared
HVj:_glBlitFramebuffer__wrapper
w0d:_Array_InternalArray__ICollection_Add_TisUICharInfo_t3056636800_m968274080_gshared
CSi:_ObjectPool_1__ctor_m1532275833_gshared
dEa:__ZN13GfxDeviceGLES19SetSinglePassStereoE16SinglePassStereo
$mg:__Z72RuntimeInvoker_Boolean_t3825574718_Color32_t874517518_Color32_t874517518PFvvEPK10MethodInfoPvPS4_
yTe:_Queue_1_System_Collections_ICollection_get_IsSynchronized_m3521628381_gshared
E5g:__ZL64IntPtr_t_CustomAttributesCacheGenerator_IntPtr__ctor_m3803259710P21CustomAttributesCache
HPe:_List_1_GetIndex_m3262928832_gshared
hfi:_SafeHandle_DangerousRelease_m2167699172
V7a:__Z24LookRotationToQuaternionRK8Vector3fS1_P11Quaternionf
T7a:__ZN16ReflectionProbes9GetCameraEv
N1h:_AnimatorControllerPlayable_ResolveHash_m3629783965_AdjustorThunk
uWb:__ZL18IsGpuProgramUsable20ShaderGpuProgramTypePK6Shader
KCe:_ArgumentException__ctor_m2105824819
BOc:__ZN2UI6Canvas17SetSortingLayerIDEi
hfd:_BaseMeshEffect_get_graphic_m3358796463
ryj:__ZN6il2cpp2vm11MethodStack23CleanupForCurrentThreadEv
V0i:_Predicate_1_Invoke_m695569038_gshared
nEe:_Enumerator_VerifyState_m825848279_AdjustorThunk
mlb:__ZN20TierGraphicsSettings8TransferI24GenerateTypeTreeTransferEEvRT_
y7i:__ZN15dense_hashtableINSt3__24pairIK10KeyWrapperIN6il2cpp5utils13dynamic_arrayIPK10Il2CppTypeLj4EEEEPFvvEEESA_NS3_8metadata19Il2CppSignatureHashEN14dense_hash_mapISA_SD_SG_NSA_14EqualsComparerINSF_22Il2CppSignatureCompareEEENS0_9allocatorISE_EEE9SelectKeyESK_SM_E16reset_thresholdsEv
vXf:__Z77RuntimeInvoker_Int32_t2071877448_RuntimeObject_RuntimeObject_SByte_t454417549PFvvEPK10MethodInfoPvPS4_
qHb:__ZN14SafeBinaryRead21TransferSTLStyleArrayI13dynamic_arrayI4AABBLj4EEEEvRT_17TransferMetaFlags
Tna:__ZN18UnityPropertySheet8TransferI19StreamedBinaryWriteILb0EEEEvRT_
Oif:_TlsServerCertificate_checkServerIdentity_m3836435780
Gba:__ZNSt3__26__treeINS_12__value_typeIiN11TypeManager18TypeCallbackStructEEENS_19__map_value_compareIiS4_NS_4lessIiEELb1EEENS_9allocatorIS4_EEE7destroyEPNS_11__tree_nodeIS4_PvEE
iAe:_PKCS12_Decrypt_m2353135969
wci:_PersistentCallGroup_Initialize_m3908067069
myg:_MonoEvent_ToString_m386956596
nEh:__ZL70RuntimePlatform_t1869584967_CustomAttributesCacheGenerator_FlashPlayerP21CustomAttributesCache
T4d:_Array_Sort_TisRuntimeObject_m3309514378_gshared
Dcd:_PointerEventData_get_pointerPress_m880101744
wka:__ZL19GetCameraTargetRectRK6Camerabb
wUg:_Transform_1_BeginInvoke_m1786442111_gshared
Lyh:__ZL137AnimatorControllerPlayable_t1744083903_CustomAttributesCacheGenerator_AnimatorControllerPlayable_PlayInFixedTime_m135407725____fixedTime2P21CustomAttributesCache
Cee:_Int32_GetFormatException_m1729046182
M8a:__ZN13dynamic_arrayIN10GameObject13ComponentPairELj4EE6insertEPS1_RKS1_
CUe:_Collection_1_get_Count_m3834276648_gshared
dgb:__ZN21UnityDefaultAllocatorI17LowLevelAllocatorE10DeallocateEPv
tZ:__GLOBAL__sub_I_runtime_camera2_lump_cpp
Kr:__ZN15PackedIntVector8TransferI14SafeBinaryReadEEvRT_
Lwg:_FieldInfo_get_IsLiteral_m267898096
xwh:__ZL105RectTransform_t3349966182_CustomAttributesCacheGenerator_RectTransform_INTERNAL_set_sizeDelta_m1402803191P21CustomAttributesCache
Olf:_SslStreamBase_EndNegotiateHandshake_m1732321201
UUg:_Transform_1_BeginInvoke_m1167293475_gshared
bK:__ZN13AudioListener8DoUpdateEv
D4g:__ZL71SByte_t454417549_CustomAttributesCacheGenerator_SByte_Parse_m1620039654P21CustomAttributesCache
HGd:__Z13bankers_roundd
wzb:__ZN14SafeBinaryRead8TransferI5RectTIfEEEvRT_PKc17TransferMetaFlags
vi:_emscripten_glGenFramebuffers
NDd:_Hashtable_CopyTo_m2778915805
Bba:__ZN17BaseObjectManager16StaticInitializeEPv
grg:_ConstructorBuilder_get_IsCompilerContext_m2796899803
Uqh:__ZL97Component_t3819376471_CustomAttributesCacheGenerator_Component_GetComponentsInChildren_m843288020P21CustomAttributesCache
h_d:_Array_IndexOf_TisUIVertex_t1204258818_m613887160_gshared
AAb:__ZN18StreamedBinaryReadILb0EE19TransferSTLStyleMapINSt3__28multimapIN4core12basic_stringIcNS4_20StringStorageDefaultIcEEEE4PPtrI6ObjectENS2_4lessIS8_EE13stl_allocatorINS2_4pairIKS8_SB_EEL18MemLabelIdentifier51ELi16EEEEEEvRT_17TransferMetaFlags
eid:_FloatTween_GetDuration_m1757342579_AdjustorThunk
gHd:_DateTime_CoreParse_m2014268103
jNe:_List_1__ctor_m3698273726_gshared
Y3h:_Application_InvokeOnBeforeRender_m799598445
hhb:__ZN9Behaviour23VirtualRedirectTransferER17RemapPPtrTransfer
grc:__Z18Transfer_BlittableI9JSONWriteLb0EyEvRK29SerializationCommandArgumentsR31RuntimeSerializationCommandInfo
Cka:__ZN13RenderTexture15ThreadedCleanupEv
yWc:__ZNK20UnityWebRequestProtoI19TransportJavaScript16AtomicRefCounter14RedirectHelper14ResponseHelper15DownloadHandler13UploadHandler12HeaderHelper14AsyncOperationE19GetDownloadProgressEv
hZd:_Array_BinarySearch_TisRuntimeObject_m3361740551_gshared
_nb:__ZN12CubemapArray23VirtualRedirectTransferER14SafeBinaryRead
Lt:__ZN21AnimationClipPlayable16ProcessHumanPassEPK35AnimationPlayableEvaluationConstantPK32AnimationPlayableEvaluationInputP33AnimationPlayableEvaluationOutput
pec:__Z51Register_UnityEngine_QualitySettings_set_vSyncCountv
d7e:_ReadOnlyCollection_1_System_Collections_IList_Add_m616574295_gshared
Dee:_Int32_ProcessTrailingWhitespace_m2812079777
Tta:__ZN18ProceduralMaterial9ReloadAllEbb
ahc:__Z43RectTransform_CUSTOM_INTERNAL_set_sizeDeltaP12Il2CppObjectRK13Vector2fIcall
Rqf:_WebProxy__ctor_m3679722173
roi:_InternalEnumerator_1_Dispose_m2743309309_AdjustorThunk
yuj:__ZN15dense_hashtableINSt3__24pairIK10KeyWrapperINS1_IPKcS4_EEEiEES6_24NamespaceAndNamePairHashN14dense_hash_mapIS6_iS9_NS6_14EqualsComparerI26NamespaceAndNamePairEqualsEENS0_9allocatorIS8_EEE9SelectKeyESD_SF_E6insertERKS8_
Ija:__ZN24GenerateTypeTreeTransfer18BeginArrayTransferEPKcS1_Ri17TransferMetaFlags
uHa:__Z16DecompressCrunchPKhRjR13TextureFormatiiii18MemLabelIdentifier
VRe:_List_1__ctor_m2082969060_gshared
nm:___syscall51
rm:___syscall54
ivj:__ZNSt3__26__treeINS_12__value_typeIP24Il2CppReflectionAssemblyPvEENS_19__map_value_compareIS3_S5_NS_4lessIS3_EELb1EEENS_9allocatorIS5_EEE12__find_equalIS3_EERPNS_16__tree_node_baseIS4_EESH_RKT_
WPi:_UnityAction_2_Invoke_m1994351568_gshared
hMb:__Z18Transfer_BlittableI19StreamedBinaryWriteILb0EELb1EjEvRK29SerializationCommandArgumentsR31RuntimeSerializationCommandInfo
SC:__ZNK8Animator20IsAnyRendererVisibleEv
RHc:_cff_builder_add_point1
svj:__ZN6il2cpp2vm5Image21GetCachedResourceDataEPK11Il2CppImageRKNSt3__212basic_stringIcNS5_11char_traitsIcEENS5_9allocatorIcEEEE
Umd:_HorizontalOrVerticalLayoutGroup_set_childControlWidth_m4209477792
C5f:__Z54RuntimeInvoker_TimeSpan_t3430258949_Double_t4078015681PFvvEPK10MethodInfoPvPS4_
k0d:_Array_InternalArray__ICollection_Add_TisUInt32_t2149682021_m2629016323_gshared
OEb:__Z18Transfer_BlittableI14SafeBinaryReadLb0E10ColorRGBAfEvRK29SerializationCommandArgumentsR31RuntimeSerializationCommandInfo
za:invoke_iiiiiiiiii
zR:__ZNK7Texture10GetVRUsageEv
O1d:_Array_InternalArray__Insert_TisKeyValuePair_2_t888819835_m975554221_gshared
T1f:__Z59RuntimeInvoker_RuntimeObject_Int64_t909078037_RuntimeObjectPFvvEPK10MethodInfoPvPS4_
jta:__ZN18LoadSceneOperation19IntegrateTimeSlicedEi
iOf:_Scheduler_SchedulerThread_m2209572785
nte:_SortKeyBuffer_GetResultAndReset_m2516956577
Pdb:__ZN10FileSystem19SetCurrentDirectoryERKN4core12basic_stringIcNS0_20StringStorageDefaultIcEEEE
DSi:_ObjectPool_1_get_countAll_m4217365918_gshared
J4:__ZN16ScriptingManager24NotifyScriptCacheReleaseEi
xoh:__ZL85UriParser_t1012511323_CustomAttributesCacheGenerator_UriParser_OnRegister_m4010407891P21CustomAttributesCache
Uah:__ZL63UnmanagedMemoryStream_t822875729_CustomAttributesCacheGeneratorP21CustomAttributesCache
Ibc:__Z47Register_UnityEngine_Coroutine_ReleaseCoroutinev
JK:__ZN15AudioReverbZone13SetFMODValuesEv
z9h:_Component_GetComponentInChildren_m3925629424
i1:__ZL19StaticDestroyShaderPv
he:_glRenderbufferStorageMultisample
EAf:_SoapTypeAttribute_get_XmlTypeName_m2546866572
qy:__ZN23AnimationPlayableOutput17SetTargetAnimatorEP8Animator
Q2e:_ReadOnlyCollection_1_System_Collections_IList_get_IsFixedSize_m158012227_gshared
cGi:_X509Chain__ctor_m1113875360
DHb:__Z35Transfer_Blittable_SingleValueFieldI14SafeBinaryReadfEvRT_R17GeneralMonoObjectRK23StaticTransferFieldInfo
hjf:_TlsServerHello_processProtocol_m1241336522
Loh:__ZL79ModulusRing_t80355992_CustomAttributesCacheGenerator_ModulusRing_Pow_m661630322P21CustomAttributesCache
dWd:_Array_InternalArray__ICollection_Remove_TisKeyValuePair_2_t888819835_m1287715465_gshared
Fmi:_InternalEnumerator_1_System_Collections_IEnumerator_Reset_m324760031_AdjustorThunk
jii:_ContextAttribute_IsContextOK_m3281216012
Tle:_PathTooLongException__ctor_m3212099251
V$j:_pthread_cond_broadcast__wrapper
sEf:_ObjectManager_RaiseDeserializationEvent_m1611173032
l$h:_AnimatorControllerPlayable_INTERNAL_CALL_CreateHandleInternal_m1836196929
Tr:__ZN17PackedFloatVector8TransferI18StreamedBinaryReadILb0EEEEvRT_
osh:__ZL88Screen_t786852042_CustomAttributesCacheGenerator_Screen_t786852042____width_PropertyInfoP21CustomAttributesCache
Gob:__ZN7Cubemap23VirtualRedirectTransferER17RemapPPtrTransfer
sec:__Z37Register_UnityEngine_Screen_get_widthv
Ojd:_DropdownItem_get_image_m2752143412
BXi:__ZL24UnresolvedVirtualCall_60P12Il2CppObjectaPK10MethodInfo
$5b:__ZN22BlockMemoryCacheWriter11GetPathNameEv
nld:_Graphic_Rebuild_m2617722358
Bdh:__ZL86SafeHandle_t2733794115_CustomAttributesCacheGenerator_SafeHandle_SetHandle_m1980208835P21CustomAttributesCache
MMd:_DateTime_ToString_m3108726445_AdjustorThunk
jV:__ZN19CloudServiceHandlerD2Ev
t7d:_Array_InternalArray__get_Item_TisTableRange_t2011406615_m602485977_gshared
uqd:_InputField_Append_m2623574152
DCe:_ApplicationException__ctor_m1120437222
Syg:_MonoMethod__ctor_m4091684020
ip:stackAlloc
acc:__Z44Camera_CUSTOM_INTERNAL_CALL_ScreenPointToRayP12Il2CppObjectRK8Vector3fR3Ray
hRa:__ZN25SingleBlockMemoryFileData4LockEPPv
bSa:__ZN12HandlerChain5TouchER13FileEntryData
gvg:_MethodBuilder_GetHashCode_m1713271764
Ghg:__Z50RuntimeInvoker_Boolean_t3825574718_Link_t865133271PFvvEPK10MethodInfoPvPS4_
JUe:_Collection_1_IsSynchronized_m1319022347_gshared
wse:_MSCompatUnicodeTable_GetResource_m3816716847
jdc:__Z32RectOffset_Get_Custom_PropBottomP12Il2CppObject
ztd:_Array_CreateInstance_m15016505
Auh:__ZL103DataUtility_t4181890362_CustomAttributesCacheGenerator_DataUtility_INTERNAL_CALL_GetPadding_m1621366113P21CustomAttributesCache
QGb:__ZNSt3__26vectorI17AnimationCurveTplIfE13stl_allocatorIS2_L18MemLabelIdentifier1ELi16EEE6assignINS_11__wrap_iterIPS2_EEEENS_9enable_ifIXaasr21__is_forward_iteratorIT_EE5valuesr16is_constructibleIS2_NS_15iterator_traitsISC_E9referenceEEE5valueEvE4typeESC_SC_
bOj:_stat
Umi:_InternalEnumerator_1_MoveNext_m3486952605_gshared
Wi:_JS_Eval_ClearTimeout
GZj:_glUniform2fv__wrapper
m1d:_Array_InternalArray__ICollection_CopyTo_TisUInt16_t986882611_m3228377237_gshared
THe:_List_1_Add_m4157722533_gshared
sLh:__ZL68Navigation_t1571958496_CustomAttributesCacheGenerator_m_SelectOnDownP21CustomAttributesCache
$6h:_Bounds_op_Inequality_m2315096783
ssi:_InternalEnumerator_1_System_Collections_IEnumerator_get_Current_m3065287496_gshared
iza:__ZNSt3__218__insertion_sort_3IRNS_4lessIN22BuiltinResourceManager8ResourceEEEPS3_EEvT0_S7_T_
V9h:_Component_BroadcastMessage_m1308086896
iZc:_RC2_set_KeySize_m2015782960
la:invoke_iiiiiiiiiiii
uTe:_Queue_1_GetEnumerator_m2842671368_gshared
q_e:_Collection_1_SetItem_m3715941382_gshared
Hbe:_NumberFormatInfo_get_CurrencyGroupSeparator_m2480433019
Yze:_StrongName_get_PublicKey_m3777577320
Oph:__ZL120AssetBundleCreateRequest_t1038783543_CustomAttributesCacheGenerator_AssetBundleCreateRequest_get_assetBundle_m2931245245P21CustomAttributesCache
gei:_RuntimeCompatibilityAttribute__ctor_m1331212510
hXd:_PlayableHandle_IsPlayableOfType_TisAnimationLayerMixerPlayable_t3057952312_m964258557_gshared
cec:__Z43Register_UnityEngine_GameObject_SendMessagev
R7:__ZNSt3__26__treeINS_12__value_typeIN4core12basic_stringIcNS2_20StringStorageDefaultIcEEEES6_EENS_19__map_value_compareIS6_S7_NS_4lessIS6_EELb1EEE13stl_allocatorIS7_L18MemLabelIdentifier12ELi16EEE7destroyEPNS_11__tree_nodeIS7_PvEE
d3i:__ZN6il2cpp2vm17SetupFieldsLockedEP11Il2CppClassRKNS_2os12FastAutoLockE
cO:__ZN11AudioSourceD0Ev
v8h:_CanvasRenderer_set_hasPopInstruction_m1388844875
yJe:_List_1_System_Collections_ICollection_CopyTo_m1530390632_gshared
X$e:_Collection_1_System_Collections_IEnumerable_GetEnumerator_m1452790461_gshared
doi:_InternalEnumerator_1_System_Collections_IEnumerator_Reset_m3194282029_AdjustorThunk
oeb:__ZN16MemoryFileSystem4NameEv
LLe:__ZN21InterfaceFuncInvoker0I18Color32_t874517518E6InvokeEjP11Il2CppClassP12Il2CppObject
W9c:_BaseRaycaster_OnEnable_m3641767070
ORe:_List_1_ToArray_m2810936944_gshared
Xoe:_MissingMemberException_get_Message_m2763732423
Taf:_PrimeGeneratorBase_get_PrimalityTest_m308005118
n6g:__ZL71Enum_t2459695545_CustomAttributesCacheGenerator_Enum_Format_m2294492821P21CustomAttributesCache
VGg:_GUIStyle_Internal_CalcSize_m1309259680
Flc:__ZNK8GUIStyle8CalcSizeER10GUIContent
eJe:_List_1_CheckIndex_m2328469916_gshared
q5f:__Z75RuntimeInvoker_RuntimeObject_RuntimeObject_Decimal_t724701077_RuntimeObjectPFvvEPK10MethodInfoPvPS4_
rSe:_List_1_AddRange_m3345533268_gshared
pzc:_UNITY_FT_New_Size
DH:__Z96Register_UnityEngine_Animations_AnimatorControllerPlayable_INTERNAL_CALL_PlayInFixedTimeInternalv
QSe:_List_1_get_Item_m3157283227_gshared
mZd:__ZN21InterfaceFuncInvoker2Ii38CustomAttributeNamedArgument_t94157543S0_E6InvokeEjP11Il2CppClassP12Il2CppObjectS0_S0_
rPi:_InvokableCall_4_Invoke_m1555001411_gshared
kKd:_Convert_ToString_m2915777777
toa:__ZNSt3__27__sort4IRPFbRKNS_4pairIN9ShaderLab16FastPropertyNameEN18UnityPropertySheet11UnityTexEnvEEES8_EPS6_EEjT0_SD_SD_SD_T_
eHc:_cf2_hintmap_build
hda:__ZN15dense_hashtableINSt3__24pairIKN4core12basic_stringIcNS2_20StringStorageDefaultIcEEEE10vector_setI4PPtrI11SpriteAtlasENS0_4lessISB_EE13stl_allocatorISB_L18MemLabelIdentifier79ELi16EEEEES6_20StringHash32FunctionIS6_EN14dense_hash_mapIS6_SH_SK_NS0_8equal_toIS6_EESE_ISI_LSF_79ELi16EEE9SelectKeyESN_SO_E5clearEv
UEc:_Line_Up
Sqe:_MonoType_GetGenericTypeDefinition_m2363776160
kTe:_Queue_1__ctor_m1845245813_gshared
ohf:_Context_set_SentConnectionEnd_m2641458842
oe:_emscripten_glBufferSubData
Kwd:_Buffer_BlockCopyInternal_m2627156229
JIb:__Z18Transfer_BlittableI17RemapPPtrTransferLb1EyEvRK29SerializationCommandArgumentsR31RuntimeSerializationCommandInfo
cnd:_Image_set_overrideSprite_m3362535904
F9c:_ExecuteEvents_get_pointerExitHandler_m3250605428
Apa:__ZN6prcoreL12RemapGenericI15TexFormatRGB88817TexFormatARGB8888EEvPKNS_9InnerInfoE
Jp:__Z17CalculateGlobalRS23TransformAccessReadOnly
wgg:__Z70RuntimeInvoker_DictionaryEntry_t3048875398_RuntimeObject_RuntimeObjectPFvvEPK10MethodInfoPvPS4_
QDf:__ZN21InterfaceFuncInvoker1IP12Il2CppObject28StreamingContext_t1417235061E6InvokeEjP11Il2CppClassS1_S2_
s7h:_Camera_ScreenPointToRay_m614889538
Yue:_Kernel_multiByteDivide_m735279869
Y_g:_Dictionary_2_ToTValue_m542772656_gshared
QUc:__ZN23UnityPurchasingSettings10InitializeER6Object
INf:_Thread_GetNewManagedId_internal_m3211695465
TBg:_SkinChangedDelegate_Invoke_m2801964040
N8d:_ScriptableObject_CreateInstance_TisRuntimeObject_m926060499_gshared
bHa:__ZN17GenericDynamicVBO17DrawChunkInternalERK21DynamicVBOChunkHandle17ShaderChannelMaskS3_P17VertexDeclarationP16DrawBuffersRangeij
WWc:__ZN13RuntimeStaticINSt3__26vectorIN5physx25PxVehicleWheelQueryResultENS0_9allocatorIS3_EEEELb0EE16StaticInitializeEPv
LRb:__ZN22MemoryCacherReadBlocks14LockCacheBlockEjPPhS1_
Lvd:_Boolean_System_IConvertible_ToChar_m2637404801_AdjustorThunk
Hlg:__Z55RuntimeInvoker_UICharInfo_t3056636800_Int32_t2071877448PFvvEPK10MethodInfoPvPS4_
t3c:_SecurityContext_Capture_m2535194991
MRf:_UInt16_System_IConvertible_ToSByte_m3044765342_AdjustorThunk
Xrg:_DerivedType_IsArrayImpl_m684825803
B4g:__ZL47Byte_t3683104436_CustomAttributesCacheGeneratorP21CustomAttributesCache
m4f:__Z66RuntimeInvoker_Void_t1841601450_Int64_t909078037_Int32_t2071877448PFvvEPK10MethodInfoPvPS4_
oyc:__ZN20TextRenderingPrivate8FontImpl16CacheFontForTextEPtiifjPK13dynamic_arrayINS_16TextFormatChangeELj4EE
qjg:__Z52RuntimeInvoker_Int32_t2071877448_Vector3_t2243707580PFvvEPK10MethodInfoPvPS4_
d4d:_Array_qsort_TisUIVertex_t1204258818_TisUIVertex_t1204258818_m512606409_gshared
cZc:__Z21ArrayElementTypeCheckP11Il2CppArrayPv
_Yj:_emscripten_glTexSubImage2D__wrapper
wof:_NameValueCollection_AsSingleString_m10599052
VPj:__ZNSt3__212basic_stringIcNS_11char_traitsIcEENS_9allocatorIcEEE6appendEjc
Tre:_Object_InternalGetHashCode_m1371384246
GQh:_Navigation_get_defaultNavigation_m2185194207
DNh:__ZL73LayoutElement_t2808691390_CustomAttributesCacheGenerator_m_FlexibleHeightP21CustomAttributesCache
Sbi:_ArgumentCache_get_stringArgument_m3051619173
qfe:_Int32_System_IConvertible_ToSByte_m1449623243_AdjustorThunk
XBe:_AccessViolationException__ctor_m1270251537
fRc:__Z42Register_UnityEngine_Canvas_get_rootCanvasv
vGi:_X509ExtensionCollection_IndexOf_m3972100651
UFb:__Z14resize_trimmedINSt3__26vectorI8MonoPPtr13stl_allocatorIS2_L18MemLabelIdentifier1ELi16EEEEEvRT_j
Xe:_TTF_RenderText_Solid
GSf:_UInt32_System_IConvertible_ToInt64_m3091851828
$oe:_MissingMethodException__ctor_m3898429715
TBf:_RemotingConfiguration_RegisterClientProviderTemplate_m514821425
SSg:_Enumerator_System_Collections_IEnumerator_Reset_m3085583937_gshared
hze:_RSAManaged_ExportParameters_m2873993187
gGd:_Convert__cctor_m926133987
GTe:_Enumerator__ctor_m2816143215_AdjustorThunk
eVc:__ZN11UnityEngine7Connect16PersistentValuesC2Ev
Jtf:_X509Chain_FindParent_m404663796
Zoe:_MissingMemberException__ctor_m2164043278
T1i:__ZL7log2_32j
ZXe:_Collection_1_CopyTo_m2282972507_gshared
mfd:_BaseVertexEffect__ctor_m358261091
dKa:__Z15IsIEEE754Format14GraphicsFormat
XIb:__Z19TransferField_ArrayI17RemapPPtrTransfer27Converter_UnityEngineObjectEvRK23StaticTransferFieldInfoR31RuntimeSerializationCommandInfoRT0_
$a:invoke_iifiii
r1a:__ZN19ShaderPropertySheet24SetTextureFromTextureRefERK23FastTexturePropertyNamePK10TextureRef
Jgh:__ZL53HMACSHA384_t3026079344_CustomAttributesCacheGeneratorP21CustomAttributesCache
Tge:_NumberFormatter_InitDecHexDigits_m1612588520
nCa:__ZN13GfxDeviceGLES15UploadTexture2DE9TextureID16TextureDimensionPKhiii14GraphicsFormati18TextureUploadFlags16TextureUsageMode
khe:_IntPtr_System_Runtime_Serialization_ISerializable_GetObjectData_m21554269_AdjustorThunk
$4c:_Single_GetHashCode_m3102305584_AdjustorThunk
b6d:_Array_swap_TisVector3_t2243707580_m3036634038_gshared
AM:__ZN4FMOD6System9createDSPEP20FMOD_DSP_DESCRIPTIONPPNS_3DSPE
rJg:_Material_HasProperty_m3175512802
Ux:__ZN7mecanim9animation26DestroyControllerWorkspaceEPNS0_19ControllerWorkspaceERNS_6memory9AllocatorE
IDi:_UriParser_set_SchemeName_m3624672465
QI:__ZN4FMOD8ChannelI11EndCallbackEv
U0c:_ToBase64Transform_TransformBlock_m2201454137
tlc:__ZN8GUIStyle14SetDefaultFontEPN13TextRendering4FontE
Rvg:_OpCode_get_StackBehaviourPop_m3787015663_AdjustorThunk
myi:_PatternCompiler_EmitCount_m3609178511
isb:__ZN15QualitySettings23VirtualRedirectTransferER24GenerateTypeTreeTransfer
B0i:_U3CCreateWhereIteratorU3Ec__Iterator1D_1_System_Collections_Generic_IEnumerableU3CTSourceU3E_GetEnumerator_m2682676065_gshared
x8d:_Component_GetComponent_TisRuntimeObject_m4109961936_gshared
QGg:_GUIStyle_Internal_GetCursorStringIndex_m1491806746
wHh:__ZL89PointerEventData_t1599784723_CustomAttributesCacheGenerator_U3CpositionU3Ek__BackingFieldP21CustomAttributesCache
Qej:__ZN6il2cpp2os10FileHandleC2Ev
K3f:__Z48RuntimeInvoker_SByte_t454417549_SByte_t454417549PFvvEPK10MethodInfoPvPS4_
d_f:__Z65RuntimeInvoker_Void_t1841601450_SByte_t454417549_SByte_t454417549PFvvEPK10MethodInfoPvPS4_
Fmg:__Z54RuntimeInvoker_KeyValuePair_2_t888819835_RuntimeObjectPFvvEPK10MethodInfoPvPS4_
Cmg:__Z65RuntimeInvoker_DictionaryEntry_t3048875398_IntPtr_t_RuntimeObjectPFvvEPK10MethodInfoPvPS4_
bgc:__Z59Register_UnityEngine_MonoBehaviour_Internal_CancelInvokeAllv
oih:__ZL84Encoding_t663144255_CustomAttributesCacheGenerator_Encoding_GetByteCount_m4104502544P21CustomAttributesCache
lbd:__ZN23InterfaceActionInvoker1IP25AxisEventData_t1524870173E6InvokeEjP11Il2CppClassP12Il2CppObjectS1_
UAf:_ObjRef_set_TypeInfo_m1661789743
P5i:__ZN30dense_hashtable_const_iteratorINSt3__24pairIK10KeyWrapperIPK19Il2CppGenericMethodEPK26Il2CppGenericMethodIndicesEES6_N6il2cpp8metadata23Il2CppGenericMethodHashEN14dense_hash_mapIS6_SA_SE_NS6_14EqualsComparerINSD_26Il2CppGenericMethodCompareEEENS0_9allocatorISB_EEE9SelectKeyESI_SK_EppEv
wEg:_GUISkin_get_box_m533626169
pnf:_HybridDictionary_Add_m1037587952
yJg:_Mathf_Cos_m238853451
Tyc:_UNITY_FT_Request_Metrics
Fua:__Z37GetBarycentricCoordinatesForOuterCellPPK8Vector3fRK13dynamic_arrayIS_Lj4EERS0_RK11TetrahedronR8Vector4fRf
Ysj:__ZN6il2cpp6icalls8mscorlib6System10Reflection10MonoMethod29get_IsGenericMethodDefinitionEP22Il2CppReflectionMethod
Epj:__ZN6il2cpp2vm6Thread21AllocThreadStaticDataEi
bBi:__ZN23InterfaceActionInvoker4IiibP19LinkRef_t2090853131E6InvokeEjP11Il2CppClassP12Il2CppObjectiibS1_
iHd:_DateTime_YearMonthDayFormats_m4204607055
Ogd:_ColorBlock_set_disabledColor_m3502887543_AdjustorThunk
OBj:__ZN30dense_hashtable_const_iteratorINSt3__24pairIK10KeyWrapperIPK19Il2CppGenericMethodEP10MethodInfoEES6_N6il2cpp8metadata23Il2CppGenericMethodHashEN14dense_hash_mapIS6_S9_SD_NS6_14EqualsComparerINSC_26Il2CppGenericMethodCompareEEENS0_9allocatorISA_EEE9SelectKeyESH_SJ_EppEv
fS:__Z13RegisterClassI13AudioListenerEvv
elg:__Z48RuntimeInvoker_Link_t865133271_Int32_t2071877448PFvvEPK10MethodInfoPvPS4_
oTi:_Aes__ctor_m4020215067
uF:__ZN23AnimationOffsetPlayable11GetPositionEv
Wwh:__ZL125AudioClipPlayable_t192218916_CustomAttributesCacheGenerator_AudioClipPlayable_INTERNAL_CALL_SetPauseDelayInternal_m4175269806P21CustomAttributesCache
rqc:__Z18Transfer_BlittableI9JSONWriteLb0E8Vector3fEvRK29SerializationCommandArgumentsR31RuntimeSerializationCommandInfo
r8:__ZN13RuntimeStaticI17UniqueIDGeneratorLb0EE13StaticDestroyEPv
Wf:_emscripten_glUniform4i
Qgh:__ZL46MD5_t1507972490_CustomAttributesCacheGeneratorP21CustomAttributesCache
lld:_Graphic_OnDisable_m2360886868
ISi:_ObjectPool_1_Release_m1615270002_gshared
gf:_emscripten_glUniform4f
zj:___unlock
IEj:_GC_default_oom_fn
uH:__Z105Register_UnityEngine_Animations_AnimatorControllerPlayable_INTERNAL_CALL_GetAnimatorClipInfoCountInternalv
aUh:_ScrollRect_InternalCalculateOffset_m3083065267
Jqi:_InternalEnumerator_1_System_Collections_IEnumerator_Reset_m1561424184_AdjustorThunk
dCd:_Comparer_Compare_m4132969818
PO:__ZN20SoundChannelInstance19setReverbPropertiesEP29FMOD_REVERB_CHANNELPROPERTIES
Xqd:_U3CCaretBlinkU3Ec__Iterator0_System_Collections_Generic_IEnumeratorU3CobjectU3E_get_Current_m3541562536
Wui:_InternalEnumerator_1__ctor_m2808001655_AdjustorThunk
Pri:_InternalEnumerator_1_System_Collections_IEnumerator_Reset_m2571770313_AdjustorThunk
Swg:_FieldInfo_get_UMarshal_m1934544188
RE:__ZNK26AnimatorControllerPlayable14IsInTransitionEi
Q0g:_DefaultComparer_Equals_m2171836276_gshared
qca:__ZN13RuntimeStaticI18SpriteAtlasManagerLb0EE13StaticDestroyEPv
vrj:__ZN6il2cpp2vm9Exception18GetFormatExceptionEPKc
Meh:__ZL55IMessageSink_t2189618969_CustomAttributesCacheGeneratorP21CustomAttributesCache
ljc:__Z40Register_UnityEngine_Transform_IsChildOfv
vGg:_GUIStyle_Draw_m1435796321
Xzd:_ArrayList_Sort_m923359189
vXh:_Text_CalculateLayoutInputVertical_m1732119136
_cc:__Z45Register_UnityEngine_Display_GetSystemExtImplv
bPa:__ZN9GfxDevice31DrawIndexedNullGeometryIndirectE16GfxPrimitiveTypeP9GfxBuffer15ComputeBufferIDj
Iu:__ZN7mecanim9animation23TransformValuesFromClipEiiiRKNS_10ValueArrayERKNS0_10ClipOutputERKNS0_12ClipBindingsERS1_RNS_14ValueArrayMaskEb
P6h:_Bounds_set_center_m2069004927_AdjustorThunk
pBe:_X509Certificate_GetSubjectName_m2120755276
znc:__Z46GUIStyle_CUSTOM_Internal_DrawWithTextSelectionP12Il2CppObjectR43MonoInternal_DrawWithTextSelectionArguments
Q1i:__ZL17log2withScale_128yyi
euh:__ZL58ResourceRequest_t2560315377_CustomAttributesCacheGeneratorP21CustomAttributesCache
lNc:__ZNSt3__218__insertion_sort_3IRNS_6__lessIN2UI14DepthSortEntryES3_EEPS3_EEvT0_S7_T_
Kyg:_MonoField_CheckGeneric_m1527550038
W9:__ZN13RuntimeStaticI15DirectorManagerLb0EE16StaticInitializeEPv
Utc:__ZN8JSONRead8TransferI23ManagedObjectTransfererEEvRT_PKc17TransferMetaFlagsb
mbf:_ASN1_get_Value_m2229768312
o9c:_BaseInput_get_touchCount_m998724785
xyb:__ZN11TimeManager6UpdateEv
dGi:_X509Chain_get_Status_m2726750609
Oqd:_InputField_get_preferredWidth_m3185355225
fCg:_GUIUtility_get_pixelsPerPoint_m2667928361
Z_e:_Collection_1_RemoveItem_m1406181352_gshared
ANf:_Thread_SetState_m3198426726
pAd:_ArrayListWrapper_Contains_m1158465965
Q5d:_Array_swap_TisColor32_t874517518_m2203309732_gshared
Naf:_BigInteger_op_LessThan_m3825358479
iOj:_fflush
uua:__ZN17LightProbeContext4InitERK16LightmapSettingsRK14RenderSettings
Zvd:_Convert_ToInt32_m55151042
nMj:__GLOBAL__sub_I_Error_cpp
zAi:_Alternation_GetWidth_m4218808325
L7e:_ReadOnlyCollection_1_System_Collections_IList_Insert_m2651065875_gshared
Zna:__ZN10ColorRGBAf8TransferI19StreamedBinaryWriteILb0EEEEvRT_
hBc:_ft_bitmap_glyph_bbox
X8d:_Component_GetComponentsInParent_TisRuntimeObject_m2092455797_gshared
Dof:_TypeConverterAttribute__ctor_m4061167050
hTe:_Enumerator_MoveNext_m3315718998_gshared
YAg:_Font_add_textureRebuilt_m1282639736
Bwh:__ZL75SpriteAtlasManager_t308281693_CustomAttributesCacheGenerator_atlasRequestedP21CustomAttributesCache
R_g:_Dictionary_2_ContainsValue_m2760581195_gshared
rGj:_GC_reclaim_uninit
H5a:__Z34ProcessIndexListIsNodeVisibleStep2RK22SceneCullingParametersPK9SceneNodePK4AABBR9IndexList
kDb:__ZN10MonoScriptD2Ev
Rpa:__ZN6prcoreL12RemapGenericI17TexFormatARGB888817TexFormatBGRA8888EEvPKNS_9InnerInfoE
hWh:_Slider_OnRectTransformDimensionsChange_m4109401172
Nqf:_WebHeaderCollection_Get_m3391944907
Aec:__Z39Input_CUSTOM_INTERNAL_get_mousePositionP8Vector3f
VDc:_tt_cmap13_char_next
jCf:_ServerIdentity__ctor_m1576469955
QUa:__ZN9ShaderLab4Pass16SetupPassOptionsEv
hRi:_UnityEvent_4__ctor_m3102731553_gshared
ih:_JS_Sound_ReleaseInstance
cEh:__ZL72IL2CPPStructAlignmentAttribute_t130316838_CustomAttributesCacheGeneratorP21CustomAttributesCache
oBa:__ZN13GfxDeviceGLES19DrawBuffersIndirectEP9GfxBufferPK18VertexStreamSourceiP17VertexDeclaration17ShaderChannelMask16GfxPrimitiveType15ComputeBufferIDj
gZh:_AnimationClipPlayable__ctor_m1126286616
NOe:_List_1_Shift_m439051997_gshared
oRg:_Renderer_get_sortingLayerID_m2403577271
uid:_DefaultControls_CreateScrollbar_m770089625
Rei:_InAttribute__ctor_m1401060713
JXj:_emscripten_glPixelStorei__wrapper
r6f:__Z98RuntimeInvoker_Void_t1841601450_Int32_t2071877448_Int32_t2071877448_SByte_t454417549_RuntimeObjectPFvvEPK10MethodInfoPvPS4_
fOd:_Decimal_System_IConvertible_ToDecimal_m1541432424_AdjustorThunk
ZQb:__Z29Transfer_Blittable_ArrayFieldI18StreamedBinaryReadILb0EEaEvRT_R9ArrayInfoRK23StaticTransferFieldInfo
ohc:__Z21Resources_CUSTOM_LoadP12Il2CppStringP12Il2CppObject
Em:FUNCTION_TABLE_diddi
D8c:_EncoderExceptionFallbackBuffer__ctor_m3538569575
thc:__Z26Material_CUSTOM_SetIntImplP12Il2CppObjectii
lee:_Int16_System_IConvertible_ToSingle_m3277935657_AdjustorThunk
Rbj:__ZNSt3__26vectorIPK10MethodInfoNS_9allocatorIS3_EEE21__push_back_slow_pathIRKS3_EEvOT_
e3h:_AnimatorControllerPlayable_HasState_m3003093532_AdjustorThunk
Ylf:_SslStreamBase_get_KeyExchangeAlgorithm_m3712013038
Lii:_InternalRemotingServices__cctor_m3821625125
wdc:__Z42Register_UnityEngine_RectOffset_get_bottomv
EKf:_StringBuilder_Insert_m3322917127
W$g:_DefaultComparer_Equals_m724229128_gshared
hOe:_List_1__cctor_m1337542316_gshared
HTg:_Enumerator_VerifyCurrent_m1702320752_AdjustorThunk
gki:_ArrayReadOnlyList_1_Clear_m2539474626_gshared
azf:__ZN21InterfaceFuncInvoker0IP24ObjectU5BU5D_t3614634134E6InvokeEjP11Il2CppClassP12Il2CppObject
MPi:_UnityAction_1_EndInvoke_m2603848420_gshared
MId:_Convert_ToDouble_m3520060872
cXj:_emscripten_glUniform1f__wrapper
RRj:dynCall_di
Gkf:_SslCipherSuite_ComputeServerRecordMAC_m1876572367
_xc:__ZN20TextRenderingPrivate19NativeTextGeneratorC2ERK11UTF16StringPNS_8FontImplE11ColorRGBA32ifRK8Vector2fbifiibffbbbP13dynamic_arrayIN2UI8UIVertexELj4EE
_pc:__Z28RegisterModule_JSONSerializev
PMf:_Interlocked_CompareExchange_m3227034792
GXc:_HashAlgorithm_get_Hash_m931854461
xej:_il2cpp_monitor_enter
awi:_DefaultComparer_Compare_m3564013922_gshared
YXb:__ZN2UI13RectTransform8TransferI14SafeBinaryReadEEvRT_
crc:__Z35Transfer_Blittable_FixedBufferFieldI9JSONWriteaEvRK29SerializationCommandArgumentsR31RuntimeSerializationCommandInfo
y7b:__Z20IsHumanControllingUsv
bWa:__ZNK19RenderEventsContext21ExecuteCommandBuffersEijR17ShaderPassContextR15RenderNodeQueueP19ProfilerInformationi
BZe:_Collection_1_RemoveAt_m3454169520_gshared
LCh:__ZL99GUIStyle_t1799908754_CustomAttributesCacheGenerator_GUIStyle_INTERNAL_get_contentOffset_m2667265678P21CustomAttributesCache
t_:__ZNK20DynamicHeapAllocatorI17LowLevelAllocatorE10GetPtrSizeEPKv
Nhb:__ZN10systeminfo21GetPersistentDataPathEv
fjd:_Dropdown_set_value_m2945561009
fBa:__ZN13GfxDeviceGLES17DestroyGpuProgramEPK10GpuProgram
zbe:_GregorianCalendar_GetMonth_m523739832
qEb:__Z44InitializeTransferFunctionScriptingTraitsForI18StreamedBinaryReadILb0EEEvR31TransferFunctionScriptingTraits
F1a:__ZNSt3__218__insertion_sort_3IR23CompareReflectionProbesP31RuntimeReflectionProbeBlendInfoEEvT0_S5_T_
fJb:__ZN12NativeBufferI27Converter_SimpleNativeClassI8GradientEE15SetupForWritingER9ArrayInfo
Dca:__ZNSt3__213__stable_sortIRNS_4lessIN4core12basic_stringIcNS2_20StringStorageDefaultIcEEEEEENS_11__wrap_iterIPS6_EEEEvT0_SC_T_NS_15iterator_traitsISC_E15difference_typeEPNSF_10value_typeEi
q3e:_ReadOnlyCollection_1_System_Collections_ICollection_get_IsSynchronized_m2987885125_gshared
lBg:_GameObject_AddComponent_m3757565614
tda:__ZN12_GLOBAL__N_113StaticDestroyEPv
q5i:__ZN30dense_hashtable_const_iteratorINSt3__24pairIK10KeyWrapperIPKcEP11Il2CppClassEES5_N6il2cpp5utils11StringUtils12StringHasherIS4_EEN14dense_hash_mapIS5_S8_SE_NS5_14EqualsComparerINSB_13VmStringUtils21CaseSensitiveComparerEEENS0_9allocatorIS9_EEE9SelectKeyESJ_SL_EppEv
Kde:_Guid_ToString_m51661589
Bkc:__ZNK8GUIStyle4DrawER8GUIStateRK5RectTIfER10GUIContentbbbb
HYg:_Dictionary_2__ctor_m1512192236_gshared
OWh:_Text_set_font_m1095513810
P$j:_glUnmapBuffer__wrapper
VLd:_DateTime_System_IConvertible_ToUInt32_m1363211018_AdjustorThunk
fod:_InputField_get_cachedInputTextGenerator_m881618486
Y7h:_Canvas_get_rootCanvas_m1790974328
ufc:__Z32Mesh_CUSTOM_ExtractArrayFromListP12Il2CppObject
Mpg:_Binder_get_DefaultBinder_m965620943
GHh:__ZL87PointerEventData_t1599784723_CustomAttributesCacheGenerator_U3CbuttonU3Ek__BackingFieldP21CustomAttributesCache
xuc:__ZN8JSONRead21TransferSTLStyleArrayINSt3__26vectorI8Gradient13stl_allocatorIS3_L18MemLabelIdentifier1ELi16EEEEEEvRT_17TransferMetaFlags
Uhf:_SecurityParameters_Clear_m3409219757
Uyb:__ZNSt3__218__insertion_sort_3IRNS_6__lessINS_4pairIPKN5Unity4TypeE7Hash128EES8_EEPS8_EEvT0_SC_T_
Uyi:_PatternCompiler_EmitAlternationEnd_m889639343
HKb:__ZN10RectOffset8TransferI24GenerateTypeTreeTransferEEvRT_
zud:_SimpleEnumerator_get_Current_m482975946
n8b:__Z18GetResourceManagerv
OOj:_srand
Uij:__ZNK15dense_hashtableINSt3__24pairIK10KeyWrapperINS1_IPK10MethodInfoP11Il2CppClassEEEjEES9_17ReflectionMapHashIS8_EN14dense_hash_mapIS9_jSD_NS9_14EqualsComparerINS0_8equal_toIS8_EEEENS0_9allocatorISB_EEE9SelectKeyESI_SK_E10test_emptyERK30dense_hashtable_const_iteratorISB_S9_SD_SM_SI_SK_E
Zpe:_MonoTypeInfo__ctor_m1398838196
_Mc:__ZN2UI13CanvasManager19RemoveDirtyRendererEPNS_6CanvasEPNS_14CanvasRendererE
vPg:_Rect_get_position_m24550734
QXh:_Toggle_Rebuild_m929023818
O6i:__ZN15dense_hashtableI10KeyWrapperIPK17Il2CppGenericInstES4_N6il2cpp8metadata21Il2CppGenericInstHashEN14dense_hash_setIS4_S7_NS4_14EqualsComparerINS6_24Il2CppGenericInstCompareEEENSt3__29allocatorIS4_EEE8IdentityESB_SE_E12resize_deltaEjj
uga:__Z15GetIApplicationv
i6h:_AudioClip_InvokePCMSetPositionCallback_Internal_m2304858844
kSc:__ZN11UnityEngine15PlatformWrapper25GetGraphicsRendererStringEv
aqd:_InputField_KeyPressed_m3066588581
fKi:_Time_get_unscaledTime_m862335845
iyh:__ZL129AnimatorControllerPlayable_t1744083903_CustomAttributesCacheGenerator_AnimatorControllerPlayable_CrossFadeInFixedTime_m3006052409P21CustomAttributesCache
mVh:_Selectable_DoStateTransition_m539253088
b0c:_SHA512_Create_m439875055
PY:__ZN11UnityEngine15CloudWebService17WebFileDownloaderINS0_20WebRequestRestClientENS0_23WebRequestRestHeaderMapEED2Ev
Xb:invoke_vi
V$c:_SHA384Managed_update_m2629600295
nNh:__ZL68GridLayoutGroup_t1515633077_CustomAttributesCacheGenerator_m_SpacingP21CustomAttributesCache
XPa:__ZN15dense_hashtableINSt3__24pairIKN4core12basic_stringIcNS2_20StringStorageDefaultIcEEEEP20ArchiveStorageReaderEES6_20StringHash32FunctionIS6_EN14dense_hash_mapIS6_S9_SC_NS0_8equal_toIS6_EE13stl_allocatorISA_L18MemLabelIdentifier54ELi16EEE9SelectKeyESF_SI_ED2Ev
Vb:invoke_vd
ub:invoke_vf
Gti:_InternalEnumerator_1__ctor_m32322958_AdjustorThunk
o6:__ZNK10GameObject8IsActiveEv
kre:_NumberFormatter__cctor_m1641464619
mGf:_SByte_System_IConvertible_ToUInt32_m4256495110
Sbd:_PointerEventData_set_eligibleForClick_m2036057844
UJa:__ZN18GfxFramebufferGLES23SetupDefaultFramebufferEPP17RenderSurfaceBaseS2_N2gl6HandleILNS3_10ObjectTypeE9EEE
qOj:_mbsinit
dGg:_GUIStyle_get_Internal_clipOffset_m4237737448
IGh:__ZL70EventSystem_t3466835263_CustomAttributesCacheGenerator_m_FirstSelectedP21CustomAttributesCache
bea:__ZN13ScreenManager18RequestOrientationE17ScreenOrientation
C3i:__ZN6il2cpp2vm5Class12SetupMethodsEP11Il2CppClass
Pac:__Z39DeleteLastPathNameComponentWithAnySlashRKN4core12basic_stringIcNS_20StringStorageDefaultIcEEEE
Dkc:__ZN10GUIManager14InitGUIManagerEv
Jjh:__ZL62ApplicationException_t474868623_CustomAttributesCacheGeneratorP21CustomAttributesCache
FKh:__ZL68InputField_t1631627530_CustomAttributesCacheGenerator_m_KeyboardTypeP21CustomAttributesCache
sYh:_VerticalLayoutGroup_CalculateLayoutInputHorizontal_m497637066
pfd:_Button_get_onClick_m1595880935
bSi:_ListPool_1_Release_m3716853512_gshared
a2h:_AnimatorControllerPlayable_CrossFadeInFixedTimeInternal_m1452579496
J2f:__Z134RuntimeInvoker_Int32_t2071877448_RuntimeObject_Int32_t2071877448_Int32_t2071877448_RuntimeObject_Int32_t2071877448_Int32U26_t455636984PFvvEPK10MethodInfoPvPS4_
dRg:_RectTransformUtility_PixelAdjustPoint_m560908615
zyf:_MethodCall__ctor_m4106494862
L_f:__Z167RuntimeInvoker_Void_t1841601450_SByte_t454417549_SByte_t454417549_SByte_t454417549_SByte_t454417549_SByte_t454417549_SByte_t454417549_SByte_t454417549_SByte_t454417549PFvvEPK10MethodInfoPvPS4_
gpg:_Module_IsResource_m663979284
Pnc:__Z37Register_UnityEngine_GUIStyle_Cleanupv
Na:invoke_iiifii
ZNg:_PlayableOutputHandle_CompareVersion_m3789892846
JIi:_StackTraceUtility_ExtractStringFromExceptionInternal_m2568950546
W2b:__ZN8GUILayer12AddToManagerEv
Lsh:__ZL109TouchScreenKeyboard_t601950206_CustomAttributesCacheGenerator_TouchScreenKeyboard_Open_m3410222954____secure4P21CustomAttributesCache
icj:__ZN6il2cpp6icalls8mscorlib6System8MonoType13IsPointerImplEP20Il2CppReflectionType
wId:_Convert_ToDecimal_m2284596541
W0h:_AnimatorControllerPlayable_GetLayerIndex_m747049736
Si:_emscripten_glFramebufferRenderbuffer
bph:__ZL64CipherSuiteCollection_t2431504453_CustomAttributesCacheGeneratorP21CustomAttributesCache
Eig:__Z105RuntimeInvoker_Int32_t2071877448_RuntimeObject_UILineInfo_t3621277874_Int32_t2071877448_Int32_t2071877448PFvvEPK10MethodInfoPvPS4_
Xif:_TlsServerCertificateRequest_ProcessAsSsl3_m3017921864
Ege:_Int64_GetHashCode_m4047499913
N8a:__ZN9Transform30EnsureTransformHierarchyExistsEv
Vdj:_il2cpp_field_get_flags
WS:__ZN11AudioModule26SetDefaultMicrophoneDriverEPv
QUf:_UnitySerializationHolder_GetRealObject_m286267090
Xud:_Attribute_IsDefined_m216577166
$yd:_Char_ToUpper_m109978609
RF:__Z94Register_UnityEngine_Animations_AnimationLayerMixerPlayable_INTERNAL_CALL_CreateHandleInternalv
lpi:_InternalEnumerator_1_get_Current_m1089848479_gshared
LQd:_Double_System_IConvertible_ToInt64_m3798425616
Bdd:_StandaloneInputModule_get_repeatDelay_m3025279
Hg:___cxa_find_matching_catch_4
P8b:__ZN13MonoBehaviour13StopCoroutineEPKc
Kbb:__ZNSt3__26vectorINS_4pairIN4core12basic_stringIcNS2_20StringStorageDefaultIcEEEEPK17MessageIdentifierEENS_9allocatorISA_EEE12__move_rangeEPSA_SE_SE_
NZa:__ZN14qsort_internal17MedianOfThreeSwapIP17RODataReplacement19ROSorterReplacementEEvT_S4_S4_T0_
peg:__Z60RuntimeInvoker_FramePressState_t1414739712_Int32_t2071877448PFvvEPK10MethodInfoPvPS4_
oWe:_Collection_1_System_Collections_IList_Insert_m3303840316_gshared
t2i:__ZNK15dense_hashtableINSt3__24pairIK10KeyWrapperIPK22Il2CppGenericParameterEP11Il2CppClassEES6_N6il2cpp5utils11PointerHashIS4_EEN14dense_hash_mapIS6_S9_SE_NS6_14EqualsComparerINS0_8equal_toIS5_EEEENS0_9allocatorISA_EEE9SelectKeyESJ_SL_E3endEv
Lac:__ZN17TransformInternal36OnScaleChangedCalculateTransformTypeE15TransformAccess
WPa:__ZN15dense_hashtableINSt3__24pairIKN4core12basic_stringIcNS2_20StringStorageDefaultIcEEEEP20ArchiveStorageReaderEES6_20StringHash32FunctionIS6_EN14dense_hash_mapIS6_S9_SC_NS0_8equal_toIS6_EE13stl_allocatorISA_L18MemLabelIdentifier54ELi16EEE9SelectKeyESF_SI_E4swapERSL_
tBd:_SynchronizedArrayListWrapper_InsertRange_m709359548
tSa:__ZN17ArchiveFileSystem10ToAbsoluteEPKc
Haf:_BigInteger_op_Modulus_m13450242
DHd:_DateTime__ctor_m3604679583
mJd:_Convert_ToInt32_m2988544165
w4d:_Array_Resize_TisColor32_t874517518_m2219502085_gshared
zz:__ZN7mecanim6CRCKeyENS_7eStringE
ymf:_SslStreamBase_get_CanWrite_m2069502593
RYb:__ZL12SetPrefValueRKN4core12basic_stringIcNS_20StringStorageDefaultIcEEEERK9PrefValue
PSb:__ZL30ReconstructParamNamesFromTableIN9ShaderLab20SerializedSubProgram15MatrixParameterEEvRK14dense_hash_mapIiN4core17string_with_labelILi1EEE18SInt32HashFunctionNSt3__28equal_toIiEE13stl_allocatorINS8_4pairIKiS6_EEL18MemLabelIdentifier1ELi16EEERNS8_6vectorIT_NS8_9allocatorISL_EEEE
h0:__ZN19ShaderPropertySheet20ReservePropertyCountEj
zCj:__ZN6il2cpp5utils11StringUtils6PrintfEPKcz
Aoj:__ZNSt3__26vectorIN6il2cpp8metadata18GenericArrayMethodENS_9allocatorIS3_EEE7reserveEj
Goa:__ZN15NameToObjectMapI6ShaderNSt3__23mapI4PPtrIS0_EN4core12basic_stringIcNS5_20StringStorageDefaultIcEEEENS1_4lessIS4_EENS1_9allocatorINS1_4pairIKS4_S9_EEEEEENS1_8multimapIS9_S4_NSA_IS9_EENSC_INSD_IKS9_S4_EEEEEEE4FindERSK_
PTg:_ShimEnumerator_Reset_m98005789_gshared
$va:__ZN24GenerateTypeTreeTransfer21TransferResourceImageE19ActiveResourceImagePKcR13StreamingInfoPvjiPKN5Unity4TypeE
JLg:_Object_INTERNAL_CALL_Internal_InstantiateSingle_m3932420250
Kcf:_PKCS1_Compare_m552424558
rdi:_ResourceEnumerator__ctor_m1679839941
H5e:_ReadOnlyCollection_1_System_Collections_IList_set_Item_m1377990618_gshared
Gug:_ILGenerator_make_room_m373147874
w$g:_Dictionary_2_Init_m1045257495_gshared
j$j:_emscripten_glLinkProgram__wrapper
KNg:_PlayableHandle_SetDurationInternal_m3359857977
Iff:_TlsClientSettings_set_TargetHost_m3421266913
t_d:_Array_InternalArray__IndexOf_TisKeyValuePair_2_t888819835_m2660446234_gshared
Iye:_PKCS1_Verify_v15_m2571212635
nmb:__ZNSt3__212__deque_baseI18ReflectionProbeJobNS_9allocatorIS1_EEED2Ev
Xy:__ZN11UnityEngine9Animation27DestroyAnimationSetBindingsEPNS0_20AnimationSetBindingsERN7mecanim6memory9AllocatorE
VSb:__ZN15dense_hashtableINSt3__24pairIKiN4core17string_with_labelILi1EEEEEi18SInt32HashFunctionN14dense_hash_mapIiS5_S7_NS0_8equal_toIiEE13stl_allocatorIS6_L18MemLabelIdentifier1ELi16EEE9SelectKeyESA_SD_E13set_empty_keyERKS6_
PD:__ZN8Animator12CleanupClassEv
u8c:_DecoderReplacementFallbackBuffer__ctor_m1305504326
vuc:__Z13TransferFieldI8JSONReadLb0E27Converter_SimpleNativeClassI10RectOffsetEEvRK23StaticTransferFieldInfoR31RuntimeSerializationCommandInfoRT1_
o6c:_String_IndexOf_m570401060
Qnd:_Image_CalculateLayoutInputVertical_m1340533162
vRd:_Enum_System_IConvertible_ToDateTime_m2924690746
Hjd:_Dropdown_CreateBlocker_m4109366440
BXc:_HashAlgorithm_System_IDisposable_Dispose_m2106335965
vvj:__GLOBAL__sub_I_GenericMetadata_cpp
ere:_NotImplementedException__ctor_m1305569814
KOg:_RangeAttribute__ctor_m1657271662
Cxh:__ZL147AnimationLayerMixerPlayable_t3057952312_CustomAttributesCacheGenerator_AnimationLayerMixerPlayable_INTERNAL_CALL_IsLayerAdditiveInternal_m364677421P21CustomAttributesCache
NBh:__ZL67GUISettings_t622856320_CustomAttributesCacheGenerator_m_CursorColorP21CustomAttributesCache
akc:__ZNK8GUIStyle4DrawER8GUIStateRK5RectTIfER10GUIContentib
wbj:__ZN6il2cpp6icalls8mscorlib6System8MonoType18GetFields_internalEP20Il2CppReflectionTypeiS5_
g5a:__Z24CalculateSpotLightBoundsffRK10Matrix4x4fR15SpotLightBounds
zse:_TailoringInfo__ctor_m2248501932
Iia:__ZNK13RenderTexture21GetShadowSamplingModeEv
eV:__ZN23CloudWebServicesManager23VirtualRedirectTransferER14SafeBinaryRead
q_f:__Z150RuntimeInvoker_Int32_t2071877448_RuntimeObject_Int32_t2071877448_Int32_t2071877448_RuntimeObject_Int32_t2071877448_Int32_t2071877448_Int32_t2071877448PFvvEPK10MethodInfoPvPS4_
RAd:_FixedSizeArrayListWrapper_InsertRange_m2690348965
ACb:__Z19ShouldTransferFieldR32SerializationCommandQueueBuilder17ScriptingClassPtriR18TransferField_InfoRK20CoreScriptingClasses
dwg:_FieldInfo_get_IsStatic_m1411173225
gle:_MemoryStream_Read_m2289595005
FN:__ZN5audio5mixer22UpdateAudioMixerMemoryERKNS0_18AudioMixerConstantERNS0_16AudioMixerMemoryEfPN4FMOD6SystemEf
Nwc:__ZL21InitializeCachedStripPv
lXc:_SignatureDescription_set_DigestAlgorithm_m3219799565
jqj:__ZN6il2cpp6icalls8mscorlib6System9Threading6Thread23GetCachedCurrentCultureEP12Il2CppThread
gGh:__ZL94PlayerEditorConnectionEvents_t2252784345_CustomAttributesCacheGenerator_messageTypeSubscribersP21CustomAttributesCache
HUh:_Selectable_get_allSelectables_m3045831006
OZa:__ZNK6Camera22GetWorldToCameraMatrixEv
Hud:_ArrayTypeMismatchException__ctor_m2892687300
hyj:__ZN6il2cpp2vm12GenericClass11IsValueTypeEP18Il2CppGenericClass
NZf:__Z49RuntimeInvoker_TypeCode_t2536926201_RuntimeObjectPFvvEPK10MethodInfoPvPS4_
PBb:__ZN13MonoBehaviour7SetNameEPKc
Bdf:_ContentInfo__ctor_m3579805263
c5i:__ZN15dense_hashtableINSt3__24pairIK10KeyWrapperIPKcEP11Il2CppClassEES5_N6il2cpp5utils11StringUtils12StringHasherIS4_EEN14dense_hash_mapIS5_S8_SE_NS5_14EqualsComparerINSB_13VmStringUtils21CaseSensitiveComparerEEENS0_9allocatorIS9_EEE9SelectKeyESJ_SL_E15set_deleted_keyERKS9_
PTh:_ScrollRect_get_verticalNormalizedPosition_m1701804869
eLh:__ZL138U3CMouseDragOutsideRectU3Ec__Iterator1_t2599668326_CustomAttributesCacheGenerator_U3CMouseDragOutsideRectU3Ec__Iterator1__ctor_m1439320044P21CustomAttributesCache
yta:__ZN18AwakeFromLoadQueue5ClearEv
bWg:_Enumerator_get_Current_m2986380627_AdjustorThunk
V3a:__ZNSt3__27__sort5IR15ReflProbeSorterPP15ReflectionProbeEEjT0_S6_S6_S6_S6_T_
naa:__ZN8Playable10DisconnectEPS_i
Cmi:_InternalEnumerator_1_get_Current_m1526874475_AdjustorThunk
uk:_glGenTransformFeedbacks
iya:__ZN13LoadOperationD2Ev
oxe:_KeyPairPersistence__ctor_m1817312194
BVd:_Array_InternalArray__ICollection_Contains_TisMark_t2724874473_m1640201705_gshared
rfi:_ActivatedClientTypeEntry_get_ContextAttributes_m53051138
Kra:__Z21PlayerStartFirstSceneb
vsg:_TypeBuilder_get_AssemblyQualifiedName_m2097258567
uoa:__ZNSt3__27__sort5IRPFbRKNS_4pairIN9ShaderLab16FastPropertyNameEN18UnityPropertySheet11UnityTexEnvEEES8_EPS6_EEjT0_SD_SD_SD_SD_T_
V1h:_AnimatorControllerPlayable_GetParameterCount_m1050153685_AdjustorThunk
CFa:__ZNK7ApiGLES18GetExtensionStringEv
kMa:__ZN31TransformFeedbackSkinPoseBufferD0Ev
dXj:_emscripten_glVertexAttrib1f__wrapper
GRh:_RaycastAllCallback__ctor_m3281594834
Klf:_SslStreamBase_get_MightNeedHandshake_m3432170694
s0g:_DefaultComparer_Equals_m1281232537_gshared
X7g:__ZL99RuntimeFieldHandle_t2331729674_CustomAttributesCacheGenerator_RuntimeFieldHandle_Equals_m1202966418P21CustomAttributesCache
gp:FUNCTION_TABLE_iiiiiiiii
npd:_InputField_set_asteriskChar_m619206227
yHf:_DES_IsSemiWeakKey_m3967392585
A9e:_Comparison_1__ctor_m2159122699_gshared
ree:_Int16_System_IConvertible_ToUInt32_m883204517_AdjustorThunk
UKi:_Transform_get_localRotation_m4001487205
Gzg:_MonoProperty_get_PropertyType_m1921201152
$hd:_FloatTween_TweenValue_m3881535116_AdjustorThunk
fFj:_GC_allochblk
Dta:__Z15UnloadGameScenev
K$j:_glCheckFramebufferStatus__wrapper
Y2f:__Z43RuntimeInvoker_Boolean_t3825574718_IntPtr_tPFvvEPK10MethodInfoPvPS4_
zFh:__ZL59WriteOnlyAttribute_t14323075_CustomAttributesCacheGeneratorP21CustomAttributesCache
Dlj:__ZN15dense_hashtableINSt3__24pairIK10KeyWrapperIPK14Il2CppAssemblyEPK22Il2CppMonoAssemblyNameEES6_N6il2cpp5utils11PointerHashIS4_EEN14dense_hash_mapIS6_SA_SF_NS6_14EqualsComparerINS0_8equal_toIS5_EEEENS0_9allocatorISB_EEE9SelectKeyESK_SM_E5clearEv
BD:__ZN16MecanimAnimationD0Ev
M9e:_BigInteger_get_Rng_m2525288368
qEg:_GUIStyleState_GetBackgroundInternal_m439046630
gvf:_X509ExtensionEnumerator_Reset_m3200687545
eCd:_CaseInsensitiveHashCodeProvider__ctor_m3775398833
rwi:_Comparer_1_System_Collections_IComparer_Compare_m674728644_gshared
Psh:__ZL80Input_t1785128008_CustomAttributesCacheGenerator_Input_GetButtonDown_m2792523731P21CustomAttributesCache
lec:__Z36Renderer_Get_Custom_PropSortingOrderP12Il2CppObject
Xhj:__ZNK15dense_hashtableINSt3__24pairIK10KeyWrapperIPK10Il2CppTypeEjEES6_N6il2cpp8metadata14Il2CppTypeHashEN14dense_hash_mapIS6_jSB_NS6_14EqualsComparerINSA_26Il2CppTypeEqualityComparerEEENS0_9allocatorIS8_EEE9SelectKeyESF_SH_E13find_positionERS7_
xia:__ZN7Texture5ResetEv
zJb:__Z18Transfer_BlittableI24GenerateTypeTreeTransferLb0E8Vector2fEvRK29SerializationCommandArgumentsR31RuntimeSerializationCommandInfo
rAh:__ZL82Canvas_t209405766_CustomAttributesCacheGenerator_Canvas_get_renderMode_m1816014618P21CustomAttributesCache
qJb:__Z18Transfer_BlittableI24GenerateTypeTreeTransferLb1EhEvRK29SerializationCommandArgumentsR31RuntimeSerializationCommandInfo
wwb:__ZN10VertexData10DeallocateEv
zfj:__ZNSt3__214__split_bufferIiRNS_9allocatorIiEEEC2EjjS3_
cac:__ZNK16TypeTreeIterator10ByteOffsetEv
Skd:_Graphic_get_rectTransform_m2697395074
n9:__ZnwjRKSt9nothrow_t
oC:__ZN8Animator11ClearObjectEv
bBb:__ZNSt3__26vectorIi13stl_allocatorIiL18MemLabelIdentifier12ELi16EEE8__appendEj
z9f:__Z55RuntimeInvoker_Boolean_t3825574718_Playable_t1896841784PFvvEPK10MethodInfoPvPS4_
jsf:_X500DistinguishedName_Decode_m3070515374
Nma:__ZN14SafeBinaryRead19TransferSTLStyleMapINSt3__23mapI39DeprecatedFastPropertyNameSerializationN18UnityPropertySheet11UnityTexEnvENS1_4lessIS3_EENS1_9allocatorINS1_4pairIKS3_S5_EEEEEEEEvRT_17TransferMetaFlags
ggc:__Z45Register_UnityEngine_MonoBehaviour_IsInvokingv
Upf:_IPv6Address_set_ScopeId_m1442934355
K8g:__ZL72PKCS12_t1362584794_CustomAttributesCacheGenerator_U3CU3Ef__switchU24mapBP21CustomAttributesCache
tEf:_ObjectManager_RaiseOnDeserializedEvent_m512850179
zAh:__ZL83Canvas_t209405766_CustomAttributesCacheGenerator_Canvas_get_renderOrder_m2874842494P21CustomAttributesCache
Ggc:__Z81Register_UnityEngine_Playables_PlayableHandle_INTERNAL_CALL_SetInputCountInternalv
hGh:__ZL87PlayerEditorConnectionEvents_t2252784345_CustomAttributesCacheGenerator_connectionEventP21CustomAttributesCache
Cqh:__ZL86Camera_t189460977_CustomAttributesCacheGenerator_Camera_get_allCamerasCount_m989474043P21CustomAttributesCache
Z8b:__Z35UnregisterSerializationCacheBuilderPFv17ScriptingClassPtrR23CachedSerializationDataRbE
lla:__Z30GetBuiltinVectorParamArraySize24BuiltinShaderVectorParam
chj:__ZNSt3__218uninitialized_copyIPNS_4pairIK10KeyWrapperINS1_IPK14Il2CppAssemblyP11Il2CppClassEEEjEESC_EET0_T_SE_SD_
kse:_CodePointIndexer__ctor_m797342079
GKh:__ZL64InputField_t1631627530_CustomAttributesCacheGenerator_m_LineTypeP21CustomAttributesCache
Ogh:__ZL61KeyedHashAlgorithm_t1374150027_CustomAttributesCacheGeneratorP21CustomAttributesCache
eOi:_Predicate_1__ctor_m3243601712_gshared
iIh:__ZL103PointerEventData_t1599784723_CustomAttributesCacheGenerator_PointerEventData_set_clickCount_m2095939005P21CustomAttributesCache
R6a:__ZN21RendererUpdateManager11AddRendererER8Renderer
j_b:__Z13RegisterClassI15ResourceManagerEvv
LEf:_SerializationEntry_t3485203212_marshal_pinvoke_back
ecg:__Z78RuntimeInvoker_Void_t1841601450_RuntimeObject_RuntimeObject_RectU26_t844847526PFvvEPK10MethodInfoPvPS4_
UEb:__Z35Transfer_Blittable_FixedBufferFieldI14SafeBinaryReadsEvRK29SerializationCommandArgumentsR31RuntimeSerializationCommandInfo
Avb:__ZN14SafeBinaryRead21TransferSTLStyleArrayI13dynamic_arrayIfLj4EEEEvRT_17TransferMetaFlags
njh:__ZL79Thread_t241561612_CustomAttributesCacheGenerator_Thread_GetHashCode_m2038641494P21CustomAttributesCache
ACj:__ZN6il2cpp5utils11StringUtils11Utf16ToUtf8EPKDs
BSc:__ZN11UnityEngine15PlatformWrapper20IsRootedOrJailbrokenEv
AUa:__ZZ23InitPlayerLoopCallbacksvEN52PreLateUpdateScriptRunBehaviourLateUpdateRegistrator7ForwardEv
Lsf:_X509Certificate2_GetNameInfo_m402390219
b5a:__Z33IntersectAABBPlaneBoundsOptimizedRK4AABBPKN4math7_float4Ei
Eud:_Swapper_BeginInvoke_m2652511022
iQg:_RectOffset_t3387826427_marshal_pinvoke_back
zlg:__Z54RuntimeInvoker_UriScheme_t1876590943_Int32_t2071877448PFvvEPK10MethodInfoPvPS4_
h9a:__ZN19ScriptingInvocation6InvokeI28ScriptingSystemTypeObjectPtrEET_P21ScriptingExceptionPtrb
sBa:__ZN9GfxDevice19EndGeometryJobFrameEv
kJb:__ZN27Converter_SimpleNativeClassI17AnimationCurveTplIfEE17ScriptingToNativeER18ScriptingObjectPtrPS1_
SKj:__ZN6il2cpp8metadata24Il2CppGenericInstCompare7CompareERK10KeyWrapperIPK17Il2CppGenericInstES8_
Dgg:__Z36RuntimeInvoker_Enumerator_t132208513PFvvEPK10MethodInfoPvPS4_
M5i:__ZNK15dense_hashtableINSt3__24pairIK10KeyWrapperIPK19Il2CppGenericMethodEPK26Il2CppGenericMethodIndicesEES6_N6il2cpp8metadata23Il2CppGenericMethodHashEN14dense_hash_mapIS6_SA_SE_NS6_14EqualsComparerINSD_26Il2CppGenericMethodCompareEEENS0_9allocatorISB_EEE9SelectKeyESI_SK_E5beginEv
hld:_Graphic_get_materialForRendering_m2600868951
Xs:__ZN27AnimationLayerMixerPlayable21UpdateLayerParametersEv
oif:_TlsClientSettings_get_ClientCertificate_m89435195
lgh:__ZL61AsymmetricAlgorithm_t784058677_CustomAttributesCacheGeneratorP21CustomAttributesCache
Kug:__ZN21InterfaceFuncInvoker1IiP12MemberInfo_tE6InvokeEjP11Il2CppClassP12Il2CppObjectS1_
uYe:_Collection_1_System_Collections_IList_Contains_m3210868188_gshared
KAi:_AnchorInfo_get_IgnoreCase_m2406760852
J$b:__ZNK17AnimationCurveTplIfE8EvaluateEfPNS0_5CacheE
ETa:__Z31ManagerContextInitializeClassesv
zbj:__ZNSt3__213__vector_baseIP9FieldInfoNS_9allocatorIS2_EEED2Ev
glf:_TlsException_get_Alert_m4022765752
HBc:_ft_smooth_transform
B9g:__ZL53SortedList_t3004938869_CustomAttributesCacheGeneratorP21CustomAttributesCache
vzc:_UNITY_FT_List_Finalize
BKj:__ZN6il2cpp6icalls8mscorlib6System7Runtime8Remoting10Activation18ActivationServices34AllocateUninitializedClassInstanceEP20Il2CppReflectionType
R_a:__Z20LightAttenuateApproxRKfS0_
R3:__ZN9Scripting30SetCachedPtrOnScriptingWrapperE18ScriptingObjectPtrP6Object
mMb:__Z18Transfer_BlittableI19StreamedBinaryWriteILb0EELb0EdEvRK29SerializationCommandArgumentsR31RuntimeSerializationCommandInfo
lgb:__ZN17LowLevelAllocator6MallocEj
M7c:_ASCIIEncoding_GetBytes_m3649277167
iCg:_GUILayoutUtility_Internal_GetWindowRect_m1287880151
W_h:_AnimationPlayableOutput_get_Null_m577023
l_g:_Dictionary_2__ctor_m2457723796_gshared
Ihi:_Context_GetProperty_m1664740450
Xwa:__ZN18BlockRangeInternal16PopLastNodeIndexEP10BlockRangeji
bVf:_Version__ctor_m2972638031
REe:_Enumerator_System_Collections_IEnumerator_Reset_m886102771_AdjustorThunk
Dve:_Kernel_MultiplyByDword_m155008287
Qub:__ZN4MeshD0Ev
N1f:__Z121RuntimeInvoker_Void_t1841601450_Int64_t909078037_RuntimeObject_RuntimeObject_Int64_t909078037_RuntimeObject_RuntimeObjectPFvvEPK10MethodInfoPvPS4_
fXc:__ZL42RequestRecreateEyeTexturesBeforeNextUpdatev
gXg:_ValueCollection_System_Collections_Generic_ICollectionU3CTValueU3E_get_IsReadOnly_m3005456072_gshared
$4e:_ReadOnlyCollection_1_System_Collections_ICollection_get_SyncRoot_m1577944046_gshared
Bka:__ZNK6Camera20IsCurrentlyRenderingEv
Hu:__ZN21AnimationClipPlayable23ProcessRootMotionNoClipEPK35AnimationPlayableEvaluationConstantPK32AnimationPlayableEvaluationInputP33AnimationPlayableEvaluationOutput
rmf:_SslStreamBase_Read_m1036897444
dhh:__ZL58RijndaelManaged_t1034060848_CustomAttributesCacheGeneratorP21CustomAttributesCache
jrc:__Z18Transfer_BlittableI9JSONWriteLb0EdEvRK29SerializationCommandArgumentsR31RuntimeSerializationCommandInfo
Wjb:__ZN6Camera8TransferI19StreamedBinaryWriteILb0EEEEvRT_
kme:_TextReader__ctor_m3276128267
IIe:_List_1_System_Collections_Generic_ICollectionU3CTU3E_get_IsReadOnly_m3598018290_gshared
n3e:_ReadOnlyCollection_1_System_Collections_IList_Insert_m3679749778_gshared
VXh:_Toggle_OnDidApplyAnimationProperties_m325835214
fNj:_wctomb
Q9f:__Z55RuntimeInvoker_Void_t1841601450_Matrix4x4U26_t266301477PFvvEPK10MethodInfoPvPS4_
ecc:__Z27Camera_CUSTOM_GetAllCamerasP11Il2CppArray
QBb:__ZNK13MonoBehaviour25GetNeedsPerObjectTypeTreeEv
APb:__Z35Transfer_Blittable_FixedBufferFieldI18StreamedBinaryReadILb0EEiEvRK29SerializationCommandArgumentsR31RuntimeSerializationCommandInfo
hGd:_Convert_InternalFromBase64String_m3682756716
cd:___cxa_rethrow
Jsc:__Z18Transfer_BlittableI8JSONReadLb1EhEvRK29SerializationCommandArgumentsR31RuntimeSerializationCommandInfo
m2h:_AnimatorControllerPlayable_CrossFadeInFixedTimeInternal_m3383124488
jXj:_glBindRenderbuffer__wrapper
BBh:__ZL86GUI_t4082743951_CustomAttributesCacheGenerator_U3CnextScrollStepTimeU3Ek__BackingFieldP21CustomAttributesCache
s8b:__ZN10systeminfo23SupportsLocationServiceEv
kcg:__Z48RuntimeInvoker_Void_t1841601450_Rect_t3681755626PFvvEPK10MethodInfoPvPS4_
gAi:_Regex_System_Runtime_Serialization_ISerializable_GetObjectData_m4035555909
$Of:_TimeSpan_Add_m3228293154
v0g:_DefaultComparer_Equals_m4098991076_gshared
H8a:__ZN13MonoBehaviour8SetClassE17ScriptingClassPtr18ScriptingObjectPtr
gdf:_RC4__cctor_m523650203
oii:_CrossContextDelegate_Invoke_m2908136830
JSi:_Locale_GetText_m3480617287
GCe:_ApplicationIdentity_ToString_m800036884
jea:__ZN20LocalFileSystemPosix4ReadER13FileEntryDatayyPvPy
s2a:__ZNSt3__211__sift_downIRN23ForwardShaderRenderLoop18RenderObjectSorterILb0EEEP21ForwardRenderPassDataEEvT0_S7_T_NS_15iterator_traitsIS7_E15difference_typeES7_
joe:_UnmanagedMemoryStream_get_Position_m4093669769
Veh:__ZL83MethodDictionary_t1742974787_CustomAttributesCacheGenerator_U3CU3Ef__switchU24map21P21CustomAttributesCache
h1f:__Z90RuntimeInvoker_Void_t1841601450_IntPtr_t_RuntimeObject_Int32_t2071877448_Int32_t2071877448PFvvEPK10MethodInfoPvPS4_
dCb:__ZN13MonoBehaviour5DoGUIENS_13GUILayoutTypeEii
saf:_Kernel_Multiply_m1938858919
psg:_DerivedType_IsDefined_m555719351
yxi:_Mark_get_IsDefined_m3332701456
Afb:__ZNK12TLSAllocatorI14StackAllocatorE8ContainsEPKv
zyb:__ZN11TimeManager8TransferI18StreamedBinaryReadILb0EEEEvRT_
uXb:__ZN15SerializeTraitsINSt3__23mapI4PPtrI6ShaderEN4core12basic_stringIcNS5_20StringStorageDefaultIcEEEENS0_4lessIS4_EENS0_9allocatorINS0_4pairIKS4_S9_EEEEEEE8TransferI24GenerateTypeTreeTransferEEvRSH_RT_
Jye:_EncryptedPrivateKeyInfo__ctor_m3964541963
JHf:_DESTransform__cctor_m1179482644
l2g:_EqualityComparer_1_System_Collections_IEqualityComparer_GetHashCode_m1465362976_gshared
FLg:_Object_t1021602117_marshal_pinvoke_cleanup
cvb:__ZN14BlendShapeData8TransferI14SafeBinaryReadEEvRT_
MJi:_TextGenerator_PopulateWithErrors_m467881283
Gni:_InternalEnumerator_1_MoveNext_m3476348493_gshared
GRd:_Enum_Format_m2294492821
ikh:__ZL81Convert_t2607082565_CustomAttributesCacheGenerator_Convert_ToDateTime_m3810846875P21CustomAttributesCache
kob:__ZN7Texture25ReloadFromStorageIfNeededEPvb
lqc:__Z35Transfer_Blittable_FixedBufferFieldI9JSONWritehEvRK29SerializationCommandArgumentsR31RuntimeSerializationCommandInfo
qog:_OverflowException__ctor_m2564269836
h_i:__ZL25UnresolvedVirtualCall_202P12Il2CppObject23SpriteState_t1353336012PK10MethodInfo
ZTg:_ShimEnumerator_get_Entry_m2332479818_gshared
S9c:_BaseRaycaster_get_priority_m247683215
BMd:_DateTime_CheckDateTimeKind_m329345155_AdjustorThunk
aKc:_Update_Max
Ypj:__ZN6il2cpp6icalls8mscorlib6SystemL15ThrowNoWideningEv
S$b:__ZNK23TransformChangeDispatch24GetChangeMaskForInterestENS_12InterestTypeE
Ric:__Z45Transform_CUSTOM_INTERNAL_CALL_TransformPointP12Il2CppObjectRK8Vector3fRS1_
cYe:__ZN23InterfaceActionInvoker2Ii18Color32_t874517518E6InvokeEjP11Il2CppClassP12Il2CppObjectiS0_
dfb:__ZL10KeyHandleriPK23EmscriptenKeyboardEventPv
kna:__ZNSt3__26__treeINS_12__value_typeI39DeprecatedFastPropertyNameSerializationfEENS_19__map_value_compareIS2_S3_NS_4lessIS2_EELb1EEENS_9allocatorIS3_EEE7destroyEPNS_11__tree_nodeIS3_PvEE
Fgc:__Z81Register_UnityEngine_Playables_PlayableHandle_INTERNAL_CALL_GetInputCountInternalv
yDc:_tt_cmap4_char_index
A4h:_AsyncOperation_get_allowSceneActivation_m2825451182
APf:_TimeSpan_op_Addition_m3421801803
MRa:__ZNK12HandlerChain8IsHiddenERK13FileEntryData
_Jh:__ZL50Graphic_t2426225576_CustomAttributesCacheGeneratorP21CustomAttributesCache
hhd:_ContentSizeFitter_set_verticalFit_m3978553199
AIb:__ZL26Transfer_SimpleNativeClassI17RemapPPtrTransfer10RectOffsetLb0EEvRK29SerializationCommandArgumentsR31RuntimeSerializationCommandInfo
Yzc:__Z14ValidateFormatR13dynamic_arrayIN20TextRenderingPrivate16TextFormatChangeELj4EE
pmg:__Z114RuntimeInvoker_Int32_t2071877448_CustomAttributeTypedArgument_t1498197914_CustomAttributeTypedArgument_t1498197914PFvvEPK10MethodInfoPvPS4_
uJe:_List_1__ctor_m2672294496_gshared
rMi:_Vector2_op_Implicit_m1064335535
aua:__Z31GetLightProbeProxyVolumeManagerv
DLd:_DateTime_System_IConvertible_ToInt32_m2789391054_AdjustorThunk
D8f:__Z73RuntimeInvoker_Single_t2076509932_Vector3_t2243707580_Vector3_t2243707580PFvvEPK10MethodInfoPvPS4_
lwe:_ASN1Convert_FromInt32_m1541043489
Vcd:_PointerInputModule_ProcessMove_m3200120346
QGd:_Convert_ToByte_m1008221737
hcf:_MD2Managed_MD2Transform_m3825201358
hZe:_Collection_1_System_Collections_IList_IndexOf_m3976312928_gshared
GLh:__ZL69Scrollbar_t3248359358_CustomAttributesCacheGenerator_m_OnValueChangedP21CustomAttributesCache
ZCe:_KeyValuePair_2__ctor_m3201181706_gshared
_Tb:__ZNSt3__26vectorIN9ShaderLab20SerializedSubProgram13BufferBindingENS_9allocatorIS3_EEEC2ERKS6_
kAf:_SoapFieldAttribute_get_XmlElementName_m4100905008
kjd:_Dropdown_AddOptions_m835420907
X_i:_Display_Start_m3446268861
LHh:__ZL107PointerEventData_t1599784723_CustomAttributesCacheGenerator_PointerEventData_get_rawPointerPress_m448871540P21CustomAttributesCache
nla:__ZNK9ShaderLab20ShaderBlendStateDesc15ToGfxBlendStateEPK19ShaderPropertySheetS3_R13GfxBlendState
s9g:__ZL92Hashtable_t909839986_CustomAttributesCacheGenerator_Hashtable_t909839986____hcp_PropertyInfoP21CustomAttributesCache
wgd:_CanvasUpdateRegistry_IsRebuildingLayout_m1677873278
Ay:__ZN11UnityEngine9AnimationL22GenericBindingCallbackEPvS1_i
KJc:_Compute_Point_Displacement
eXb:__ZN9ShaderLab9IntShaderC2Ev
pcj:__ZN6il2cpp6icalls8mscorlib6SystemL9IsPrivateEPK9EventInfo
mJj:__ZN6il2cpp6icalls8mscorlib6System10Reflection4Emit11TypeBuilder20setup_internal_classEP27Il2CppReflectionTypeBuilderS7_
Bni:_InternalEnumerator_1_System_Collections_IEnumerator_Reset_m3237341717_AdjustorThunk
KZi:__ZL25UnresolvedVirtualCall_177P12Il2CppObject23RaycastResult_t21186376S1_PK10MethodInfo
tDg:_RectOffset_set_left_m620681523
Qki:_ArrayReadOnlyList_1_IndexOf_m1809425308_gshared
iU:__Z58AudioPlayableOutput_CUSTOM_INTERNAL_CALL_InternalSetTargetR15HPlayableOutputP12Il2CppObject
bej:_il2cpp_gc_disable
yG:__Z69AnimatorControllerPlayable_CUSTOM_INTERNAL_CALL_GetLayerIndexInternalR9HPlayableP12Il2CppString
vtf:_X509Chain_GetSubjectKeyIdentifier_m4232927227
WDd:_Hashtable_Clone_m165405752
Erg:_TypeBuilder_get_Name_m170882803
Zbh:__ZL61CallingConventions_t1097349142_CustomAttributesCacheGeneratorP21CustomAttributesCache
X9h:_Component_BroadcastMessage_m444672650
WRc:__ZN11UnityEngine15PlatformWrapper19GetPhysicalMemoryMBEv
TIh:__ZL144U3CStartU3Ec__Iterator0_t3220237554_CustomAttributesCacheGenerator_U3CStartU3Ec__Iterator0_System_Collections_IEnumerator_get_Current_m290565900P21CustomAttributesCache
ifa:__Z15CreateDirectoryRKN4core12basic_stringIcNS_20StringStorageDefaultIcEEEE
Hua:__Z21CalculateGlobalMatrix23TransformAccessReadOnly
m8g:__ZL70InternalsVisibleToAttribute_t1037732567_CustomAttributesCacheGeneratorP21CustomAttributesCache
Eyb:__ZNK13BuildSettings22GetTypeVirtualInternalEv
Pie:_MonoIO_GetCurrentDirectory_m1509324201
Y$c:_SHA384Managed_adjustByteCounts_m410900820
lLf:_UTF32Encoding_GetHashCode_m4205784236
eNb:__Z35Transfer_Blittable_FixedBufferFieldI18StreamedBinaryReadILb1EEhEvRK29SerializationCommandArgumentsR31RuntimeSerializationCommandInfo
lhf:_Context_get_ReceivedConnectionEnd_m3369356276
bJh:__ZL73U3COnFinishSubmitU3Ec__Iterator0_t99135383_CustomAttributesCacheGeneratorP21CustomAttributesCache
h_b:__Z13RegisterClassI14RenderSettingsEvv
sJi:_TextGenerator_Finalize_m4242493229
QHj:_GC_set_on_event
dng:__Z80RuntimeInvoker_Boolean_t3825574718_Navigation_t1571958496_Navigation_t1571958496PFvvEPK10MethodInfoPvPS4_
HUe:_Collection_1_ConvertItem_m3563206219_gshared
xPf:_TimeSpan_Subtract_m3597791685_AdjustorThunk
_xg:_MonoCMethod_get_Name_m764669486
Uw:__ZN7mecanim12statemachine24CreateStateMachineOutputEPKNS0_20StateMachineConstantEjRNS_6memory9AllocatorE
XIg:_Logger__ctor_m3834134587
ndj:_il2cpp_assembly_get_image
RBa:__ZNK9GfxDevice27GetActiveRenderSurfaceWidthEv
e2f:__Z45RuntimeInvoker_SerializationEntry_t3485203212PFvvEPK10MethodInfoPvPS4_
mSc:__ZN11UnityEngine15PlatformWrapper28GetCleanGraphicsFixedVersionEv
ceb:__ZN16MemoryFileSystem5WriteER13FileEntryDatayyPvPy
w:tempBigIntP
fgj:__ZN6il2cpp2vm4Type7GetTypeEPK10Il2CppType
gxf:_Interval_t2354235237_marshal_pinvoke_cleanup
VPg:_Rect_Contains_m1334685291_AdjustorThunk
Jud:_AssemblyLoadEventHandler_Invoke_m108373765
iTd:_CCGregorianCalendar_dmy_from_fixed_m2992247462
Ucd:_PointerInputModule_ShouldStartDrag_m4163638715
vJh:__ZL61Dropdown_t1985816271_CustomAttributesCacheGenerator_m_OptionsP21CustomAttributesCache
RXi:__ZL24UnresolvedVirtualCall_76P12Il2CppObjectPK10MethodInfo
Fqa:__ZN6prcoreL17RemapGenericFloatI18TexFormatRGBAFloat17TexFormatRGBAHalfEEvPKNS_9InnerInfoE
bxh:__ZL131AudioMixerPlayable_t1831808911_CustomAttributesCacheGenerator_AudioMixerPlayable_INTERNAL_CALL_SetAutoNormalizeInternal_m2425179629P21CustomAttributesCache
yVa:__Z16FindCameraStacksRKNSt3__24listI4PPtrI6CameraENS_9allocatorIS3_EEEERNS_6vectorI11CameraStackNS4_ISA_EEEE
XNi:_WebRequestUtils__cctor_m893658947
bqb:__ZN10GISettings8TransferI14SafeBinaryReadEEvRT_
xn:FUNCTION_TABLE_vifff
S5e:_ReadOnlyCollection_1_System_Collections_Generic_ICollectionU3CTU3E_Remove_m2957273994_gshared
Qab:__ZN19CustomRenderTexture12ClearGPUDataEv
M9c:_BaseInputModule_ShouldActivateModule_m2899747874
mmg:__Z86RuntimeInvoker_Int32_t2071877448_DateTimeOffset_t1362988906_DateTimeOffset_t1362988906PFvvEPK10MethodInfoPvPS4_
Hia:__ZN13RenderTexture13ApplySettingsEv
Lih:__ZL92UTF8Encoding_t111055448_CustomAttributesCacheGenerator_UTF8Encoding_GetByteCount_m2547312609P21CustomAttributesCache
zUj:_glVertexAttrib4f__wrapper
$e:_JS_Sound_SetListenerPosition
pn:FUNCTION_TABLE_fiffi
KH:__Z86Register_UnityEngine_Animations_AnimatorControllerPlayable_INTERNAL_CALL_SetBoolStringv
Gvg:_ModuleBuilderTokenGenerator_GetToken_m3427457873
WUh:_Selectable_get_isPointerInside_m3162215687
SZd:_Array_FindIndex_TisRuntimeObject_m4149904176_gshared
IHe:_List_1_System_Collections_IList_Contains_m149594880_gshared
quj:__ZNK15dense_hashtableINSt3__24pairIK10KeyWrapperINS1_IPKcS4_EEEiEES6_24NamespaceAndNamePairHashN14dense_hash_mapIS6_iS9_NS6_14EqualsComparerI26NamespaceAndNamePairEqualsEENS0_9allocatorIS8_EEE9SelectKeyESD_SF_E10test_emptyERK24dense_hashtable_iteratorIS8_S6_S9_SH_SD_SF_E
Qkh:__ZL78Convert_t2607082565_CustomAttributesCacheGenerator_Convert_ToSByte_m2585959569P21CustomAttributesCache
zkg:__Z77RuntimeInvoker_Void_t1841601450_Int32_t2071877448_PlayableBinding_t2498078091PFvvEPK10MethodInfoPvPS4_
CUf:_UnauthorizedAccessException__ctor_m3480402128
Ave:_BigInteger_op_Modulus_m3788401748
zOa:__ZN9GfxDevice20SetRenderSurfaceNameEP17RenderSurfaceBasePKc
Qii:_ArgInfo_GetInOutArgs_m3184132151
Lsa:__ZNK8Material16MarkDependenciesER27GarbageCollectorThreadState
jjh:__ZL85Thread_t241561612_CustomAttributesCacheGenerator_Thread_get_CurrentThread_m3667342817P21CustomAttributesCache
mrc:__ZL17Transfer_GUIStyleI9JSONWriteLb0EEvRK29SerializationCommandArgumentsR31RuntimeSerializationCommandInfo
wog:_Random__ctor_m1561335652
eZa:__Z28GetHaloVertexPositionsStereoP8Vector3fRKS_S2_f
ura:__ZN6prcoreL27StretchGenericFloatBilinearI15TexFormatRGHalfEEvPKNS_9InnerInfoE
oFh:__ZL85UnityEvent_1_t4075366602_CustomAttributesCacheGenerator_UnityEvent_1__ctor_m152711818P21CustomAttributesCache
hzh:__ZL137AnimatorControllerPlayable_t1744083903_CustomAttributesCacheGenerator_AnimatorControllerPlayable_INTERNAL_CALL_SetFloatString_m1681161548P21CustomAttributesCache
BEe:_Enumerator_MoveNext_m598197344_AdjustorThunk
dbi:_DisplaysUpdatedDelegate_Invoke_m3646339243
eJi:_TextGenerationSettings_t2543476768_marshal_pinvoke_back
Tmg:__Z36RuntimeInvoker_Enumerator_t442692252PFvvEPK10MethodInfoPvPS4_
d7c:_String_JoinUnchecked_m1880555587
Ela:__ZNK9ShaderLab7Program21GetMatchingSubProgramEPK6ShaderPKNS_4PassERK16ShaderKeywordSetjPS7_R19ShaderSnippetResult
P1d:_Array_InternalArray__Insert_TisKeyValuePair_2_t1174980068_m2464431954_gshared
_ph:__ZL109AsyncOperation_t3814632279_CustomAttributesCacheGenerator_AsyncOperation_set_allowSceneActivation_m3988498951P21CustomAttributesCache
rhc:__Z49Register_UnityEngine_Resources_GetBuiltinResourcev
$Ai:_BalancingGroup_set_Balance_m3452171919
KDc:_tt_cmap10_char_index
gjd:_Dropdown_Awake_m335654827
f9:__Z18GetITerrainManagerv
$_g:_Dictionary_2_U3CCopyToU3Em__0_m1479035402_gshared
NBd:_BitArray_set_Item_m3801461194
Jdd:_StandaloneInputModule_get_cancelButton_m1563746440
H2i:__ZN15dense_hashtableINSt3__24pairIK10KeyWrapperIPK22Il2CppGenericParameterEP11Il2CppClassEES6_N6il2cpp5utils11PointerHashIS4_EEN14dense_hash_mapIS6_S9_SE_NS6_14EqualsComparerINS0_8equal_toIS5_EEEENS0_9allocatorISA_EEE9SelectKeyESJ_SL_E3endEv
I6c:_String_Remove_m3580114465
MAc:_UNITY_FT_Destroy_Class_cff_field_handlers
KVb:__ZN9ShaderLab22SerializedBindChannels8TransferI19StreamedBinaryWriteILb0EEEEvRT_
rmi:_InternalEnumerator_1_MoveNext_m1791963761_AdjustorThunk
M4f:__Z82RuntimeInvoker_Int32_t2071877448_RuntimeObject_Int32_t2071877448_Int16_t4041245914PFvvEPK10MethodInfoPvPS4_
Fqf:_WebHeaderCollection_AddWithoutValidate_m1479880592
Afi:_UrlAttribute_get_UrlValue_m3448699483
Wrh:__ZL83GameObject_t1756533147_CustomAttributesCacheGenerator_GameObject_set_tag_m717375123P21CustomAttributesCache
IDg:_Mathf_Max_m1875893177
dUf:_UIntPtr__ctor_m2737768530
Bzc:_UNITY_FT_Stream_ReadUShort
N6h:_Bounds_get_center_m129401026_AdjustorThunk
Apd:_InputField_OnEnable_m3797157569
Adc:__Z51Register_UnityEngine_GUILayer_INTERNAL_CALL_HitTestv
Vjc:__Z50Register_UnityEngine_Object_FindSceneObjectsOfTypev
Mma:__ZNSt3__26__treeINS_12__value_typeIN4core12basic_stringIcNS2_20StringStorageDefaultIcEEEES6_EENS_19__map_value_compareIS6_S7_NS_4lessIS6_EELb1EEE13stl_allocatorIS7_L18MemLabelIdentifier1ELi16EEE7destroyEPNS_11__tree_nodeIS7_PvEE
F0i:_Nullable_1__ctor_m796575255_gshared
FDj:__ZN6il2cpp2vm8Profiler7GCEventE13Il2CppGCEvent
NLd:_DateTimeUtils_ToString_m3878360633
Xpj:__ZN6il2cpp6icalls8mscorlib6SystemL16ThrowInvalidCastEPK11Il2CppClassS5_
GGa:__Z13IsDepthFormat14GraphicsFormat
Bzb:__ZN12AspectRatios8TransferI24GenerateTypeTreeTransferEEvRT_
$dd:_StandaloneInputModule_ForceAutoSelect_m1167170508
pwc:__Z12FormatBufferPciPKcz
ked:_TouchInputModule_Process_m1373751353
Rf:_emscripten_glUniform1fv
Zug:_MethodBuilder_Invoke_m1874904900
T2i:__ZN6il2cpp2vm5Class13GetArrayClassEP11Il2CppClassj
rL:__ZN4FMOD7Channel7setModeEj
asg:_DerivedType_InvokeMember_m4149586013
Hih:__ZL88UTF7Encoding_t741406939_CustomAttributesCacheGenerator_UTF7Encoding_GetBytes_m3015176946P21CustomAttributesCache
k1h:_AnimatorControllerPlayable_GetNextAnimatorStateInfo_m1690618991
Pmf:_TlsStream_SetLength_m1460039587
Rlc:__ZN11IMGUIModule12AddGUIScriptER8ListNodeI13MonoBehaviourE
rb:invoke_difi
ecd:_PointerEventData_set_rawPointerPress_m1484888025
Q8:__ZL50StaticRegisterSceneLoadedCallback_LightmapSettingsPv
$Ad:_SimpleEnumerator_Clone_m215554974
P0f:__Z119RuntimeInvoker_Void_t1841601450_RuntimeObject_RuntimeObject_RuntimeObject_RuntimeObject_Int32_t2071877448_RuntimeObjectPFvvEPK10MethodInfoPvPS4_
W$a:__ZN29MotionVectorRenderLoopScratch15ThreadedCleanupEv
Om:FUNCTION_TABLE_iiffi
jmd:_GridLayoutGroup_get_cellSize_m1061731753
nGa:__ZN21GLESGpuProgramApplier11ApplyVectorERKN20GpuProgramParameters14ValueParameterEPK8Vector4ft
F4a:__Z17PrepareSceneNodesP11CullResults
zNi:_Vector4_ToString_m2340321043_AdjustorThunk
rra:__ZN6prcoreL27StretchGenericFloatBilinearI18TexFormatRGBAFloatEEvPKNS_9InnerInfoE
cCi:_Parser_IsIgnoreCase_m4155598997
ntj:__ZN15dense_hashtableINSt3__24pairIK10KeyWrapperIP14Il2CppIUnknownEjEES5_N6il2cpp5utils11PointerHashIS3_EEN14dense_hash_mapIS5_jSB_NS5_14EqualsComparerINS0_8equal_toIS4_EEEENS0_9allocatorIS7_EEE9SelectKeyESG_SI_E12expand_arrayEjN21dense_hash_map_traits17integral_constantIbLb0EEE
ZFc:_cff_size_done
r2g:_EqualityComparer_1_System_Collections_IEqualityComparer_Equals_m3376587337_gshared
BWa:__ZN22RenderingCommandBuffer13GetAndCheckRTE24BuiltinRenderTextureTypeRKN9ShaderLab16FastPropertyNameEPKcPP13RenderTexture
hbb:__ZN6Camera34UpdatePreviousViewProjectionMatrixEv
Hla:__ZN9ShaderLab11ShaderState25RemoveUnsupportedProgramsEPK6Shader
xWb:__ZL23AddGpuProgramParametersR20GpuProgramParametersRKNSt3__26vectorIN9ShaderLab20SerializedSubProgram15MatrixParameterENS1_9allocatorIS5_EEEERKNS2_INS4_15VectorParameterENS6_ISB_EEEEiP16PropertyNamesSet
wph:__ZL179U3CCreateWhereIteratorU3Ec__Iterator1D_1_t2523986802_CustomAttributesCacheGenerator_U3CCreateWhereIteratorU3Ec__Iterator1D_1_System_Collections_IEnumerator_get_Current_m1354814095P21CustomAttributesCache
Njc:__Z44Register_UnityEngine_Object_DestroyImmediatev
R9g:__ZL57CompareOptions_t2829943955_CustomAttributesCacheGeneratorP21CustomAttributesCache
Mcc:__Z47Register_UnityEngine_Component_BroadcastMessagev
Qr:__ZN18StreamedBinaryReadILb0EE21TransferSTLStyleArrayI13dynamic_arrayI4PPtrI6ObjectELj4EEEEvRT_17TransferMetaFlags
Ldh:__ZL62_ConstructorBuilder_t1236878896_CustomAttributesCacheGeneratorP21CustomAttributesCache
rof:_NameValueCollection__ctor_m1767369537
jge:_Int64_System_IConvertible_ToInt16_m2022633688_AdjustorThunk
S7:__ZN13RuntimeStaticI21AssetReferenceStorageLb0EE16StaticInitializeEPv
cMj:__ZN6il2cpp8metadata25Il2CppGenericClassCompare7CompareEPK18Il2CppGenericClassS4_
aC:__ZNK8Animator20IsInMatchTargetStateEv
Hrh:__ZL89GameObject_t1756533147_CustomAttributesCacheGenerator_GameObject_GetComponent_m3775849122P21CustomAttributesCache
wmc:__Z36Register_UnityEngine_GUI_set_changedv
rhd:_ColorTween_get_startColor_m278546349_AdjustorThunk
lJf:_Encoding_get_Unicode_m1382741113
G4i:__ZNK10KeyWrapperIPK11Il2CppClassE14EqualsComparerINSt3__28equal_toIS2_EEEclERKS3_SA_
ahi:_LifetimeServices_set_SponsorshipTimeout_m1403222216
dce:_NumberFormatInfo_get_PositiveSign_m3396333026
zng:__Z37RuntimeInvoker_Enumerator_t1147558385PFvvEPK10MethodInfoPvPS4_
ezd:_Char_ToString_m1401375624_AdjustorThunk
A$d:_Array_InternalArray__ICollection_Add_TisTableRange_t2011406615_m147373358_gshared
WHd:_Convert_ToDateTime_m1251728572
l_h:_AnimationMixerPlayable_op_Explicit_m2834005805
C$d:_Array_InternalArray__ICollection_Add_TisBoolean_t3825574718_m1009318882_gshared
N6e:_ReadOnlyCollection_1_System_Collections_IList_set_Item_m1149349508_gshared
kw:__ZN27AnimationLayerMixerPlayable18SetInputConnectionEP8Playablei
_nc:__Z42Register_UnityEngine_GUIStyle_get_wordWrapv
Wv:__ZN7mecanim28TransformValueArrayBlendNodeEiiiRKNS_10ValueArrayERKNS_14ValueArrayMaskERS0_RS3_RNS_16ValueArrayWeightEf
VDf:_ObjectReader_ReadObjectContent_m3949770110
yMe:_List_1_System_Collections_ICollection_get_SyncRoot_m3031553207_gshared
T9h:_Component_SendMessage_m4199581575
s4i:__ZN6il2cpp2vm5Class40GetInterfaceInvokeDataFromVTableSlowPathEPK12Il2CppObjectPK11Il2CppClassj
ulb:__ZN20TierGraphicsSettings8TransferI18StreamedBinaryReadILb0EEEEvRT_
MWh:_Text_get_font_m3115501113
fpj:__GLOBAL__sub_I_Thread_cpp
Wma:__ZN14SafeBinaryRead8TransferINSt3__24pairIN9ShaderLab16FastPropertyNameE10ColorRGBAfEEEEvRT_PKc17TransferMetaFlags
G1i:__ZL9rshift128PyS_
PDf:_ObjectReader_RecordFixup_m1893348030
j7d:_LayoutGroup_SetProperty_TisRuntimeObject_m1703476175_gshared
xng:__Z49RuntimeInvoker_UIVertex_t1204258818_RuntimeObjectPFvvEPK10MethodInfoPvPS4_
Vmj:__ZN14dense_hash_mapI10KeyWrapperINSt3__24pairIPK12PropertyInfoP11Il2CppClassEEEj17ReflectionMapHashIS8_ENS9_14EqualsComparerINS1_8equal_toIS8_EEEENS1_9allocatorINS2_IKS9_jEEEEE13set_empty_keyERSH_
fk:_glRenderbufferStorage
uuj:__ZNK15dense_hashtableINSt3__24pairIK10KeyWrapperINS1_IPKcS4_EEEiEES6_24NamespaceAndNamePairHashN14dense_hash_mapIS6_iS9_NS6_14EqualsComparerI26NamespaceAndNamePairEqualsEENS0_9allocatorIS8_EEE9SelectKeyESD_SF_E13find_positionERS7_
ibh:__ZL80ILGenerator_t99948092_CustomAttributesCacheGenerator_ILGenerator_Emit_m116557729P21CustomAttributesCache
Xec:__Z45Register_UnityEngine_Input_get_touchSupportedv
qSc:__ZN11UnityEngine15PlatformWrapper28GetTextureFormatSupportFlagsEv
ABc:_UNITY_FT_Create_Class_pshinter_module_class
k6c:_String_CompareOrdinalCaseInsensitiveUnchecked_m2002640463
ywd:_Boolean_GetHashCode_m1894638460
CGc:_cf2_setError
evb:__ZN14SafeBinaryRead21TransferSTLStyleArrayI13dynamic_arrayI12BoneWeights4Lj16EEEEvRT_17TransferMetaFlags
oUf:_UIntPtr_ToUInt32_m1679632738_AdjustorThunk
BLf:_UTF7Encoding_InternalGetChars_m4157428055
Aua:__Z33InterpolateLightProbeCoefficientsRK17LightProbeContextRK29LightProbeSamplingCoordinatesR20SphericalHarmonicsL2
Duh:__ZL86Texture_t2243626319_CustomAttributesCacheGenerator_Texture_Internal_GetWidth_m56137242P21CustomAttributesCache
aUa:__ZZ23InitPlayerLoopCallbacksvEN35PreUpdateSendMouseEventsRegistrator7ForwardEv
Mxe:_SmallXmlParser_HandleBufferedContent_m3397096753
zfg:__Z55RuntimeInvoker_Void_t1841601450_SpriteState_t1353336012PFvvEPK10MethodInfoPvPS4_
dh:_glDisable
Iqd:_InputField_OnDeselect_m3963675647
nni:_InternalEnumerator_1_MoveNext_m1994485778_AdjustorThunk
YQc:__Z44Register_UnityEngine_Canvas_get_pixelPerfectv
xDe:_KeyValuePair_2_get_Value_m1916631176_AdjustorThunk
eqg:_MethodBase__ctor_m3951051358
nhb:__ZN4PPtrI9Texture2DE8TransferI14SafeBinaryReadEEvRT_
VCj:__ZN6il2cpp5utils11StringUtils15StringDuplicateEPKDsj
Uid:_Dropdown_get_template_m3014799983
xvf:_BaseMachine_Scan_m122450399
Pw:__ZN17AnimationPlayable17ProcessRootMotionEP35AnimationPlayableEvaluationConstantP32AnimationPlayableEvaluationInputP33AnimationPlayableEvaluationOutput
Vdg:__Z73RuntimeInvoker_PlayableOutput_t988259697_ScriptPlayableOutput_t1666207618PFvvEPK10MethodInfoPvPS4_
Rzd:_ArrayList_CopyTo_m2353632788
Obh:__ZL71AssemblyFileVersionAttribute_t2897687916_CustomAttributesCacheGeneratorP21CustomAttributesCache
J8:__ZNSt3__26vectorINS_4pairIyP17VertexDeclarationEENS_9allocatorIS4_EEE6assignIPS4_EENS_9enable_ifIXaasr21__is_forward_iteratorIT_EE5valuesr16is_constructibleIS4_NS_15iterator_traitsISB_E9referenceEEE5valueEvE4typeESB_SB_
MJe:_List_1_Add_m943275925_gshared
y2h:_AnimatorControllerPlayable_CrossFade_m3391147919_AdjustorThunk
OXc:_HMAC_get_BlockSizeValue_m603907214
nVa:__ZNK8Material12GetPassCountEv
vFd:_Enumerator__cctor_m3784927209
g0j:b110
h0j:b111
i0j:b112
eRj:_bitshift64Ashr
k0j:b114
l0j:b115
m0j:b116
o0j:b117
F7i:__ZN30dense_hashtable_const_iteratorINSt3__24pairIK10KeyWrapperIN6il2cpp5utils13dynamic_arrayIPK10Il2CppTypeLj4EEEEPFvvEEESA_NS3_8metadata19Il2CppSignatureHashEN14dense_hash_mapISA_SD_SG_NSA_14EqualsComparerINSF_22Il2CppSignatureCompareEEENS0_9allocatorISE_EEE9SelectKeyESK_SM_E30advance_past_empty_and_deletedEv
h8h:_WillRenderCanvases_EndInvoke_m3215676440
RHa:__ZN4crnd12crn_unpacker22decode_alpha_endpointsEv
F5a:__Z23CullDynamicObjectsUmbraPK4AABBPKN5Umbra15OcclusionBufferER9IndexList
CZe:_Collection_1_RemoveItem_m2565709010_gshared
Nx:__ZThn148_NK26AnimatorControllerPlayable41GetStateMachineBehaviourVectorDescriptionEv
zDc:_tt_cmap4_char_next
nTe:_Queue_1_System_Collections_ICollection_get_IsSynchronized_m307125669_gshared
Xeg:__Z49RuntimeInvoker_TouchScreenKeyboardType_t875112366PFvvEPK10MethodInfoPvPS4_
wPb:__ZN18StreamedBinaryReadILb1EE21TransferSTLStyleArrayI13dynamic_arrayIiLj4EEEEvRT_17TransferMetaFlags
Wbg:__Z444RuntimeInvoker_Boolean_t3825574718_RuntimeObject_RuntimeObject_RuntimeObject_ColorU26_t3402129837_Int32_t2071877448_Single_t2076509932_Single_t2076509932_Int32_t2071877448_SByte_t454417549_SByte_t454417549_Int32_t2071877448_Int32_t2071877448_Int32_t2071877448_Int32_t2071877448_SByte_t454417549_Int32_t2071877448_Single_t2076509932_Single_t2076509932_Single_t2076509932_Single_t2076509932_SByte_t454417549_SByte_t454417549_UInt32U26_t2197289955PFvvEPK10MethodInfoPvPS4_
WDi:_GeneralNames_ToString_m800435094
kfd:_BaseMeshEffect_OnDidApplyAnimationProperties_m2484799839
ngh:__ZL73AsymmetricSignatureDeformatter_t3580832979_CustomAttributesCacheGeneratorP21CustomAttributesCache
T7c:_ASCIIEncoding_GetString_m3931709239
Frh:__ZL97GameObject_t1756533147_CustomAttributesCacheGenerator_GameObject__ctor_m1633632305____components1P21CustomAttributesCache
bSf:_UInt16_Parse_m3560204090
Yuc:__ZN8JSONRead21TransferSTLStyleArrayI13dynamic_arrayIsLj2EEEEvRT_18MemLabelIdentifier17TransferMetaFlags
dL:__ZN4FMOD7Channel11setPositionEjj
Wh:_glBindSampler
a8e:_ReadOnlyCollection_1_System_Collections_Generic_ICollectionU3CTU3E_Clear_m964488020_gshared
b4c:_SecurityFrame_get_Domain_m3219347572_AdjustorThunk
_h:_glGetVertexAttribiv
j$c:_SHA1__ctor_m788472966
E$d:_Array_InternalArray__ICollection_Add_TisChar_t3454481338_m422084244_gshared
v5i:__ZNSt3__218uninitialized_fillIPNS_4pairIK10KeyWrapperIPKcEP11Il2CppClassEES9_EEvT_SB_RKT0_
BMc:__ZN2UI11CanvasGroup23VirtualRedirectTransferER18StreamedBinaryReadILb0EE
bfi:_OutAttribute__ctor_m1447235100
Z7e:_ReadOnlyCollection_1_get_Item_m3778245964_gshared
Vlh:__ZL52EventArgs_t3289624707_CustomAttributesCacheGeneratorP21CustomAttributesCache
euc:__ZN8JSONRead8TransferIbEEvRT_PKc17TransferMetaFlagsb
XVe:_Collection_1_RemoveAt_m290627370_gshared
SYh:_AnimationEvent_get_objectReferenceParameter_m3565420672
bcd:_PointerEventData_get_lastPress_m3835070463
GIg:_DefaultValueAttribute_Equals_m3216982933
Erf:_X509KeyUsageExtension_Decode_m3292847033
Kbg:__Z44RuntimeInvoker_AnimatorStateInfo_t2577870592PFvvEPK10MethodInfoPvPS4_
jeg:__Z52RuntimeInvoker_RaycastResult_t21186376_RuntimeObjectPFvvEPK10MethodInfoPvPS4_
Jxg:_Module_filter_by_type_name_ignore_case_m3574895736
cfh:__ZL57ProxyAttribute_t4031752430_CustomAttributesCacheGeneratorP21CustomAttributesCache
Npb:__ZN26CustomRenderTextureManager19PreAllocateMaterialEP19CustomRenderTexture
xwc:__ZN19ControllerHitReport13onObstacleHitERKN5physx23PxControllerObstacleHitE
vDf:_ObjectReader_ReadObject_m397855326
PEj:_GC_promote_black_lists
knd:_Image_get_fillAmount_m3354146540
Ruc:__Z29Transfer_Blittable_ArrayFieldI8JSONRead8Vector4fEvRT_R9ArrayInfoRK23StaticTransferFieldInfo
tHe:_List_1_Sort_m1518807012_gshared
Zn:FUNCTION_TABLE_vf
zo:FUNCTION_TABLE_vd
KQf:_Type_GetMethod_m1930231379
Bo:FUNCTION_TABLE_vi
m7:__ZN13RuntimeStaticI37UnityShaderCompilerExtPluginConfigureLb0EE16StaticInitializeEPv
Pah:__ZL55StreamReader_t2360341767_CustomAttributesCacheGeneratorP21CustomAttributesCache
eIg:_HumanBone_get_humanName_m2091758568_AdjustorThunk
ate:_SimpleCollator_GetContraction_m1391584430
Bwd:_CultureInfo_get_InvariantCulture_m398972276
bwd:_Boolean_System_IConvertible_ToInt64_m4142756949_AdjustorThunk
wqh:__ZL84Camera_t189460977_CustomAttributesCacheGenerator_Camera_get_targetTexture_m705925974P21CustomAttributesCache
FE:__ZNK8Animator17HasBoundPlayablesEv
GRi:_U3CStartU3Ec__Iterator0__ctor_m1750247524_gshared
Xbf:_HMAC_initializePad_m3828610671
i3g:_EqualityComparer_1_System_Collections_IEqualityComparer_Equals_m1089835085_gshared
SKe:_List_1_Contains_m980727749_gshared
X_c:_RSAParameters_t1462703416_marshal_pinvoke_cleanup
Hcj:__ZN6il2cpp2vm7Runtime9SetConfigEPKc
ghi:_ConfigHandler_OnChars_m2004226744
y4h:_AsyncOperation_get_priority_m966065939
ta:invoke_iiifiii
brj:__ZN6il2cpp2vm9Exception11FromNameMsgEPK11Il2CppImagePKcS6_S6_
Rbe:_NumberFormatInfo_get_NumberDecimalDigits_m3706097953
vQf:_Type_internal_from_name_m1506974323
en:FUNCTION_TABLE_fiiifii
t0:__Z14GetTimeManagerv
XVc:__ZN19TransportJavaScript7CleanupEv
Whb:__Z12GUIDToStringRK9UnityGUIDPc
R5h:_AudioMixerPlayable_GetAutoNormalizeVolumes_m2199898677_AdjustorThunk
xO:__ZN11AudioSource22UnmuteActiveVideoSinksEv
SCj:__ZN4utf88internal20is_overlong_sequenceIiEEbjT_
E5h:_AudioMixerPlayable__ctor_m2704850458
Ti:_glReadBuffer
fBd:_SynchronizedArrayListWrapper_get_Count_m4104930530
HXc:_HashAlgorithm_get_HashSize_m2625667696
u1a:__Z30SetupBakedOcclusionForGeometrybRK26SharedLightmapSettingsDataRK15LightmapIndicesR17ShaderPassContext
J4d:_Array_Resize_TisVector4_t2243707581_m1528805937_gshared
Z1c:_SecurityPermission_IsSubsetOf_m1087302418
Scc:__Z41Register_UnityEngine_Cursor_get_lockStatev
T0a:__Z14SetupLightmapsRK8Vector4fS1_R17ShaderPassContext
tlj:__ZN14dense_hash_mapI10KeyWrapperIPK14Il2CppAssemblyEPK22Il2CppMonoAssemblyNameN6il2cpp5utils11PointerHashIS2_EENS4_14EqualsComparerINSt3__28equal_toIS3_EEEENSD_9allocatorINSD_4pairIKS4_S7_EEEEE13set_empty_keyERSJ_
jxf:_Interval_get_Empty_m3170923997
hVa:__ZL20InitializeGUIShadersv
I$b:__Z20DestroyObjectDelayedP6Objectf
n_:__ZN20DynamicHeapAllocatorI17LowLevelAllocatorED0Ev
Xpd:_InputField_OnDrag_m726194348
Qei:_GuidAttribute__ctor_m1099153635
iue:_PreviousInfo__ctor_m1442166472_AdjustorThunk
p_a:__ZN9DepthPassD2Ev
jMd:_DateTime_get_Kind_m1331920314_AdjustorThunk
dK:__ZN11AudioFilter6GetDSPEv
Vyc:__ZN20TextRenderingPrivate15DynamicFontData36GetFaceForCharacterIfAvailableInFontERKNS_7FontRefERKNSt3__26vectorI4PPtrIN13TextRendering4FontEE13stl_allocatorIS9_L18MemLabelIdentifier34ELi16EEEEj
w2:__ZN19RuntimeSceneManager14CanUnloadSceneEP10UnityScene
U3f:__Z50RuntimeInvoker_Single_t2076509932_Int64_t909078037PFvvEPK10MethodInfoPvPS4_
s_a:__Z22ExtractRenderNodeQueueRK11CullResults15ExtractionFlagsR15RenderNodeQueue
E3d:_Array_InternalArray__set_Item_TisContentType_t1028629049_m703420360_gshared
Vzj:__ZN6il2cpp2vm6Method7GetNameEPK10MethodInfo
RSe:_List_1_set_Item_m1431784996_gshared
rJ:__ZN24AudioScriptBufferManagerC2Ev
vyc:__ZNSt3__26vectorIh13stl_allocatorIhL18MemLabelIdentifier1ELi16EEE8__appendEj
EZf:__Z95RuntimeInvoker_Void_t1841601450_RuntimeObject_Int32_t2071877448_Int32_t2071877448_RuntimeObjectPFvvEPK10MethodInfoPvPS4_
yyc:__ZN20TextRenderingPrivate8FontImpl16ResetPackingDataEv
NOf:_TimeSpan_get_Hours_m3804628138_AdjustorThunk
r_d:_Array_InternalArray__IndexOf_TisLink_t865133271_m3612939760_gshared
mqc:__Z18Transfer_BlittableI9JSONWriteLb0EfEvRK29SerializationCommandArgumentsR31RuntimeSerializationCommandInfo
Via:__Z21GetAsyncUploadManagerv
Kj:_emscripten_glDetachShader
e7g:__ZL66RuntimeArray_CustomAttributesCacheGenerator_Array_Sort_m3500510484P21CustomAttributesCache
hse:_SafeHandleZeroOrMinusOneIsInvalid_get_IsInvalid_m2033528032
Syd:_Char_IsUpper_m4083577610
cHa:__ZN17GenericDynamicVBO20ReleaseChunkInternalERK21DynamicVBOChunkHandlejj
iLc:__ZL27CleanupModule_TextRenderingv
gse:_SafeHandleZeroOrMinusOneIsInvalid__ctor_m3340306667
HNj:_fmodl
ZAf:_SerializationInfo_AddValue_m902275108
VNj:_fmodf
v0e:_Collection_1_RemoveItem_m2272047354_gshared
bka:__ZN12CachedWriter11Align4WriteEv
v$a:__Z20DoDeferredRenderLoopR17RenderLoopContextR13dynamic_arrayI16RenderObjectDataLj4EES4_RK11CullResultsRP13RenderTextureSA_Pb
Nxa:__ZNSt3__26vectorIiNS_9allocatorIiEEE21__push_back_slow_pathIKiEEvRT_
$zh:__ZL95TextGenerator_t647235000_CustomAttributesCacheGenerator_TextGenerator_get_lineCount_m4287181941P21CustomAttributesCache
oya:__ZN19RuntimeSceneManager11CreateSceneEv
PFc:_ps_get_standard_strings
zXe:_Collection_1_IsValidItem_m1908012838_gshared
t1a:__Z27SetupBakedOcclusionForLightbRK15SharedLightDataR17ShaderPassContext
rKj:__ZN6il2cpp2os5Mutex6UnlockEv
spf:__ZN21InterfaceFuncInvoker1IP13Uri_t19570940S1_E6InvokeEjP11Il2CppClassP12Il2CppObjectS1_
_0h:_AnimatorControllerPlayable_GetLayerWeight_m1435294989
_Th:_ScrollRect_OnScroll_m3346515304
kQj:__ZN10__cxxabiv116__shim_type_infoD2Ev
xFe:_Enumerator_System_Collections_IEnumerator_get_Current_m3461301268_gshared
jZf:__Z63RuntimeInvoker_Void_t1841601450_Int32_t2071877448_RuntimeObjectPFvvEPK10MethodInfoPvPS4_
TZg:_Dictionary_2_CopyToCheck_m1638253305_gshared
$Va:__Z18RenderImageFiltersR10RenderLoopb
X_:__Z19free_alloc_internalPv18MemLabelIdentifier
GPc:__Z43CanvasRenderer_Get_Custom_PropMaterialCountP12Il2CppObject
jJg:__ZN23InterfaceActionInvoker2IP21Exception_t1927440687P18Object_t1021602117E6InvokeEjP11Il2CppClassP12Il2CppObjectS1_S3_
k9a:__ZN10GameObjectD2Ev
f3e:_ReadOnlyCollection_1_System_Collections_Generic_IListU3CTU3E_set_Item_m25653560_gshared
BCg:_GUIContent_t4210063000_marshal_pinvoke_cleanup
wp:__ZN6Object23VirtualRedirectTransferER19StreamedBinaryWriteILb1EE
kac:__ZNK9BlobWrite24HasOffsetPtrWithDebugPtrEv
jMh:__ZL68Selectable_t1490392188_CustomAttributesCacheGenerator_m_InteractableP21CustomAttributesCache
r9h:_Color32_op_Implicit_m889975790
Kci:_UnityEventBase_RebuildPersistentCallsIfNeeded_m1583202007
Xdf:_CertificateSelectionCallback_Invoke_m2902629105
l8:__ZN10InputEventD2Ev
kbe:_DateTimeFormatInfo_GetAllDateTimePatternsInternal_m1587126173
dMi:_Vector2_ToString_m775491729_AdjustorThunk
x2c:_Evidence__ctor_m1638117806
gZe:__ZN21InterfaceFuncInvoker1Ib22UICharInfo_t3056636800E6InvokeEjP11Il2CppClassP12Il2CppObjectS0_
Aae:_NumberFormatter_Append_m3268121457
hoi:_InternalEnumerator_1_Dispose_m3578333724_AdjustorThunk
DWc:__ZN22UnityWebRequestManagerD2Ev
G_c:_RSA_ToXmlString_m4145056574
WQd:_Double_System_IConvertible_ToUInt64_m1318285078_AdjustorThunk
mNj:_isalpha
p5h:_AudioClipPlayable_SetStartDelayInternal_m1268437955
wej:_il2cpp_object_unbox
GSh:_Selectable_FindSelectable_m2739582497
Xmd:_LayoutGroup_GetAlignmentOnAxis_m1783063916
PLd:_DateTimeUtils_ZeroPad_m86470512
V6g:__ZL69RuntimeArray_CustomAttributesCacheGenerator_Array_IndexOf_m2447301431P21CustomAttributesCache
y_h:_AnimationOffsetPlayable_Equals_m3411254421
Daj:__ZN6il2cpp2vmL17IsSocketAsyncCallEP14Il2CppDelegate
o7h:_Camera_get_clearFlags_m1743144302
cJg:_Logger_IsLogTypeAllowed_m1750132386
oCj:__ZN6il2cpp2vm6String6NewLenEPKcj
Hjb:__ZN6Camera23VirtualRedirectTransferER19StreamedBinaryWriteILb0EE
fzj:__ZN6il2cpp2os6Thread12GetApartmentEv
WOa:__ZN9GfxDevice28UpdateComputeConstantBuffersEjP12ObjectHandleI18ConstantBuffer_TagPvEjjPKhPKjS8_PKi
Zk:_time
lKh:__ZL79GraphicRaycaster_t410733016_CustomAttributesCacheGenerator_U3CU3Ef__amU24cache0P21CustomAttributesCache
IUi:_EqualityComparer_1_System_Collections_IEqualityComparer_Equals_m1091252481_gshared
Lld:_Graphic_UnregisterDirtyLayoutCallback_m1724443555
Vwa:__ZN14BatchAllocator6CommitE18MemLabelIdentifier
jHc:_cf2_stack_free
qbd:_ExecuteEvents_get_pointerClickHandler_m713983310
R$h:_AnimatorControllerPlayable_GetBool_m217461036_AdjustorThunk
Ou:__ZN7mecanim9animation19EvaluateFloatValuesEPKNS0_18ClipMuscleConstantEPKNS_18ValueArrayConstantEPKNS0_12ClipBindingsEPKNS0_10ClipOutputEPNS0_18AnimationNodeStateEfbb
W2:__ZN15dense_hashtableINSt3__24pairIKiP6ObjectEEi21InstanceIDHashFunctorN14dense_hash_mapIiS4_S6_NS0_8equal_toIiEE13stl_allocatorIS5_L18MemLabelIdentifier65ELi16EEE9SelectKeyES9_SC_E12resize_deltaEjj
INh:__ZL94LayoutGroup_t3962498969_CustomAttributesCacheGenerator_LayoutGroup_DelayedSetDirty_m4276695617P21CustomAttributesCache
FC:__ZN8Animator31ClearInternalControllerPlayableEv
r0h:_AnimatorControllerPlayable_SetTrigger_m4033120343_AdjustorThunk
BVf:_WeakReference_Finalize_m3318354542
F9a:__ZN10GameObject8TransferI24GenerateTypeTreeTransferEEvRT_
aGe:_Enumerator_VerifyState_m3913376581_gshared
kNh:__ZL72GridLayoutGroup_t1515633077_CustomAttributesCacheGenerator_m_StartCornerP21CustomAttributesCache
uph:__ZL83U3CCreateWhereIteratorU3Ec__Iterator1D_1_t2523986802_CustomAttributesCacheGeneratorP21CustomAttributesCache
C3f:__Z51RuntimeInvoker_Int16_t4041245914_Double_t4078015681PFvvEPK10MethodInfoPvPS4_
lhj:__ZN15dense_hashtableINSt3__24pairIK10KeyWrapperINS1_IPK9FieldInfoP11Il2CppClassEEEjEES9_17ReflectionMapHashIS8_EN14dense_hash_mapIS9_jSD_NS9_14EqualsComparerINS0_8equal_toIS8_EEEENS0_9allocatorISB_EEE9SelectKeyESI_SK_E4findERSA_
f$j:_glDeleteSync__wrapper
$Hi:_SerializePrivateVariables__ctor_m806793207
tId:_Decimal_op_Implicit_m623319612
CWg:_ValueCollection_System_Collections_Generic_ICollectionU3CTValueU3E_Remove_m98888100_gshared
Ead:_EventTrigger_OnPointerExit_m2119176877
LNf:_ThreadAbortException__ctor_m1623816114
u0b:__ZN13ProduceHelperI30RuntimeInitializeOnLoadManagerLb0EE7ProduceE18MemLabelIdentifier18ObjectCreationMode
J7a:__ZN13RenderTexture19SetAutoGenerateMipsEb
_oa:__Z20GetTextureFormatInfo13TextureFormat
Ync:__Z43Register_UnityEngine_GUIStyle_get_alignmentv
b0f:__Z119RuntimeInvoker_RuntimeObject_RuntimeObject_RuntimeObject_Int32_t2071877448_Int32_t2071877448_MonoIOErrorU26_t1029615899PFvvEPK10MethodInfoPvPS4_
yx:__ZN26AnimatorControllerPlayable8GetFloatEiRf
dXd:_PlayableHandle_IsPlayableOfType_TisRuntimeObject_m4111068959_gshared
jzh:__ZL137AnimatorControllerPlayable_t1744083903_CustomAttributesCacheGenerator_AnimatorControllerPlayable_INTERNAL_CALL_GetFloatString_m3491224295P21CustomAttributesCache
C1h:_AnimatorControllerPlayable_GetCurrentAnimatorClipInfoCount_m3938711391
KQh:_Shadow__ctor_m924057531
qcd:_PointerEventData_set_worldPosition_m192283671
UVe:_Collection_1_InsertItem_m1391780791_gshared
_Sj:dynCall_iiifiiii
qOb:__ZN18StreamedBinaryReadILb1EE5AlignEv
_Mi:_Vector3_get_right_m1884123822
IIj:__ZN6il2cpp5utils10MemoryPool6MallocEj
MI:__ZN11SoundHandle8InstanceD2Ev
yba:__ZN31CanvasBatchIntermediateRenderer13StaticDestroyEPv
ZGi:_X509Store_BuildCrlsCollection_m52567568
$8i:__ZNK15dense_hashtableINSt3__24pairIK10KeyWrapperIPK11Il2CppClassEPKcEES6_N6il2cpp5utils11PointerHashIS3_EEN14dense_hash_mapIS6_S9_SE_NS6_14EqualsComparerINS0_8equal_toIS5_EEEENS0_9allocatorISA_EEE9SelectKeyESJ_SL_E10test_emptyERK24dense_hashtable_iteratorISA_S6_SE_SN_SJ_SL_E
HEf:_CallbackHandler__ctor_m1235509347
xfc:__Z29Mesh_CUSTOM_RecalculateBoundsP12Il2CppObject
K3e:_ReadOnlyCollection_1_System_Collections_Generic_ICollectionU3CTU3E_get_IsReadOnly_m3561954522_gshared
FRd:_Enum_ToString_m662345249
wHe:_List_1_get_Capacity_m531373308_gshared
V8f:__Z150RuntimeInvoker_Single_t2076509932_Single_t2076509932_Single_t2076509932_SingleU26_t4173844468_Single_t2076509932_Single_t2076509932_Single_t2076509932PFvvEPK10MethodInfoPvPS4_
xgh:__ZL66DESCryptoServiceProvider_t933603253_CustomAttributesCacheGeneratorP21CustomAttributesCache
Pcc:__Z41Register_UnityEngine_CullingGroup_Disposev
s4f:__Z54RuntimeInvoker_Boolean_t3825574718_DateTime_t693205669PFvvEPK10MethodInfoPvPS4_
Eob:__ZN7Cubemap23VirtualRedirectTransferER19StreamedBinaryWriteILb0EE
PQa:__ZN25MultiBlocksMemoryFileData5WriteEyyPKv
gkj:__ZNSt3__218uninitialized_fillIPNS_4pairIK10KeyWrapperINS1_IPK12PropertyInfoP11Il2CppClassEEEjEESB_EEvT_SD_RKT0_
lOe:_List_1_System_Collections_IList_Add_m4271264217_gshared
Hji:_Action_1_BeginInvoke_m1305519803_gshared
pmj:__ZN14dense_hash_mapI10KeyWrapperIPK10Il2CppTypeEjN6il2cpp8metadata14Il2CppTypeHashENS4_14EqualsComparerINS6_26Il2CppTypeEqualityComparerEEENSt3__29allocatorINSB_4pairIKS4_jEEEEE13set_empty_keyERSE_
Ccc:__Z35Component_CUSTOM_SendMessageUpwardsP12Il2CppObjectP12Il2CppStringS0_i
YIa:__ZL17ProgramUniform2fvPK7ApiGLESjiihPKv
EYj:b83
qyc:__ZN20TextRenderingPrivate8FontImpl21HasCharacterInTextureEjijfPj
IOj:_htonl
AEa:__Z20GetBufferManagerGLESv
wZd:__ZN21InterfaceFuncInvoker1Ii18Color32_t874517518E6InvokeEjP11Il2CppClassP12Il2CppObjectS0_
MQb:__ZN18StreamedBinaryReadILb0EE21TransferSTLStyleArrayI31ArrayOfManagedObjectsTransfererEEvRT_17TransferMetaFlags
MLf:_UTF7Decoder_GetChars_m2790530452
JOj:_htons
etc:__Z18Transfer_BlittableI8JSONReadLb0EtEvRK29SerializationCommandArgumentsR31RuntimeSerializationCommandInfo
Gkj:__ZN15dense_hashtableINSt3__24pairIK10KeyWrapperINS1_IPK9EventInfoP11Il2CppClassEEEjEES9_17ReflectionMapHashIS8_EN14dense_hash_mapIS9_jSD_NS9_14EqualsComparerINS0_8equal_toIS8_EEEENS0_9allocatorISB_EEE9SelectKeyESI_SK_E12expand_arrayEjN21dense_hash_map_traits17integral_constantIbLb0EEE
vFg:_GUIStyle_t1799908754_marshal_pinvoke_back
fyh:__ZL148AnimatorControllerPlayable_t1744083903_CustomAttributesCacheGenerator_AnimatorControllerPlayable_INTERNAL_CALL_GetParameterCountInternal_m3540558817P21CustomAttributesCache
Sob:__ZNK7Cubemap20GetTextureLayerCountEv
HAc:_pshinter_module_class_pic_free
tLh:__ZL68Navigation_t1571958496_CustomAttributesCacheGenerator_m_SelectOnLeftP21CustomAttributesCache
fy:__ZN34AnimationStateMachineMixerPlayable13EndTransitionEv
LCj:__ZNSt3__212basic_stringIDsNS_11char_traitsIDsEENS_9allocatorIDsEEE9__grow_byEjjjjjj
IK:__ZN12AudioManager21FixMasterGroupRoutingEv
F0c:_SymmetricAlgorithm_set_Key_m2973350820
MJh:__ZL58FontData_t2614388407_CustomAttributesCacheGenerator_m_FontP21CustomAttributesCache
Hqf:_WebHeaderCollection_IsHeaderValue_m1723393133
Cxc:__ZN20TextRenderingPrivate8FontImpl13CharacterInfo8TransferI24GenerateTypeTreeTransferEEvRT_
eGe:_Enumerator_Dispose_m3717265706_AdjustorThunk
h_f:__Z69RuntimeInvoker_Boolean_t3825574718_Int32_t2071877448_SByte_t454417549PFvvEPK10MethodInfoPvPS4_
Tzj:__ZN6il2cpp2os10ThreadImpl33UnregisterCurrentThreadForCleanupEv
Rqh:__ZL97Component_t3819376471_CustomAttributesCacheGenerator_Component_GetComponentInChildren_m3985003615P21CustomAttributesCache
nw:__ZN27AnimationLayerMixerPlayable22PrepareAnimationEventsEfR13dynamic_arrayI22AnimationClipEventInfoLj4EE
REb:__Z18Transfer_BlittableI14SafeBinaryReadLb1E4AABBEvRK29SerializationCommandArgumentsR31RuntimeSerializationCommandInfo
Eyj:__ZN6il2cpp6icalls8mscorlib6System4Enum12get_hashcodeEP12Il2CppObject
pIg:_Input_INTERNAL_get_mouseScrollDelta_m1140491498
gMj:__ZN6il2cpp8metadata26Il2CppGenericMethodCompare6EqualsEPK19Il2CppGenericMethodS4_
M9:__Z22CreateMutexLockedQueue18MemLabelIdentifier
lCe:_AppDomain_get_CurrentDomain_m3432767403
Qda:__ZNK13ScreenManager16GetScreenTimeoutEv
xJ:__ZN9AudioClip7WWWOpenEPKciPjPPvS4_
uoh:__ZL66Uri_t19570940_CustomAttributesCacheGenerator_Uri__ctor_m3854873816P21CustomAttributesCache
KEb:__Z18Transfer_BlittableI14SafeBinaryReadLb0E8Vector2fEvRK29SerializationCommandArgumentsR31RuntimeSerializationCommandInfo
SMh:__ZL101ToggleGroup_t1030026315_CustomAttributesCacheGenerator_ToggleGroup_U3CAnyTogglesOnU3Em__0_m1218114300P21CustomAttributesCache
s3b:__ZZN13BuildSettingsC1E18MemLabelIdentifier18ObjectCreationModeEN38initializedPreloadedPluginsRegistrator7ForwardEv
aqf:_IPv6Address_SwapUShort_m1481806078
A3d:_Array_InternalArray__set_Item_TisPlayableBinding_t2498078091_m2071396616_gshared
Vc:_emscripten_glVertexAttrib2f
FTb:__ZN15SerializeTraitsIN9ShaderLab20SerializedSubProgram16TextureParameterEE8TransferI14SafeBinaryReadEEvRS2_RT_
cxd:_Byte_System_IConvertible_ToInt16_m1575115635_AdjustorThunk
csj:__ZN6il2cpp5utils13dynamic_arrayIP12Il2CppObjectLj4EE20resize_uninitializedEjb
pgi:_CrossAppDomainData_get_ProcessID_m2865289777
RRf:_UInt16_System_IConvertible_ToUInt16_m1646506872_AdjustorThunk
Dhi:_Context_get_HasGlobalDynamicSinks_m3205328884
zte:_SimpleCollator_CompareQuick_m619038530
qMh:__ZL93Selectable_t1490392188_CustomAttributesCacheGenerator_Selectable_get_isPointerDown_m774209881P21CustomAttributesCache
kmf:_SslStreamBase_EndRead_m1072850679
Ydf:_CertificateSelectionCallback_BeginInvoke_m990408067
YOa:__ZN9GfxDevice22DispatchComputeProgramE12ObjectHandleI18ComputeProgram_TagPvEjjj
nd:_SDL_GetTicks
uBe:_X509CertificateEnumerator_System_Collections_IEnumerator_get_Current_m1643583406
$Nc:__ZN2UI14CanvasRenderer11SyncCullingENS0_8SyncFlagE
ejj:__ZN15dense_hashtableINSt3__24pairIK10KeyWrapperINS1_IPK11Il2CppImageP11Il2CppClassEEEjEES9_17ReflectionMapHashIS8_EN14dense_hash_mapIS9_jSD_NS9_14EqualsComparerINS0_8equal_toIS8_EEEENS0_9allocatorISB_EEE9SelectKeyESI_SK_E6insertERKSB_
i5a:__Z21CreateShadowCullerJobP30CreateUmbraShadowCullerJobData
mJg:_Material_get_mainTexture_m432794412
QIa:__ZL18ProgramUniform2uivPK7ApiGLESjiihPKv
IRi:_U3CStartU3Ec__Iterator0_System_Collections_Generic_IEnumeratorU3CobjectU3E_get_Current_m1702093362_gshared
NZj:_glUniform4iv__wrapper
i2a:__Z33GenerateShadowCasterPartsSortDataRK16ShadowCasterDatajRK15RenderNodeQueueRKNSt3__26vectorI20ShadowCasterPartData13stl_allocatorIS7_L18MemLabelIdentifier2ELi16EEEERK10Matrix4x4fRjP20ShadowCasterSortData
fzd:_Char_GetTypeCode_m2251277629_AdjustorThunk
KFe:_Enumerator_Dispose_m3109097029_AdjustorThunk
M$g:_Dictionary_2_ToTKey_m4209561517_gshared
wGc:_cf2_computeDarkening
AZ:__GLOBAL__sub_I_runtime_gfxdevice_lump_cpp
z4h:_AsyncOperation_set_priority_m3581020444
jFj:_GC_expand_hp_inner
bwj:__ZNK15dense_hashtableI10KeyWrapperIP18Il2CppGenericClassES3_N6il2cpp8metadata22Il2CppGenericClassHashEN14dense_hash_setIS3_S6_NS3_14EqualsComparerINS5_25Il2CppGenericClassCompareEEENSt3__29allocatorIS3_EEE8IdentityESA_SD_E12test_deletedEj
oec:__Z25Screen_Get_Custom_PropDpiv
SMb:__Z29Transfer_Blittable_ArrayFieldI19StreamedBinaryWriteILb0EEsEvRT_R9ArrayInfoRK23StaticTransferFieldInfo
Ied:_AnimationTriggers_get_disabledTrigger_m2987312382
lmd:_GridLayoutGroup_get_spacing_m1909275195
HCj:__ZN4utf812find_invalidIPKcEET_S3_S3_
bvf:_X509ExtensionCollection_System_Collections_ICollection_CopyTo_m3421329346
DEj:_GC_err_printf
Htg:_FieldBuilder_SetValue_m3109503557
Wkd:_Graphic_OnBeforeTransformParentChanged_m1866292273
Usf:_X509Certificate2_Verify_m1574874641
cX:__ZN11UnityEngine15CloudWebService20WebRequestRestClient7PrepareEv
LIh:__ZL58PhysicsRaycaster_t249603239_CustomAttributesCacheGeneratorP21CustomAttributesCache
eyc:__ZN20TextRenderingPrivate19NativeTextGenerator23FixLineHorizontalOffsetEiii
HUi:_EqualityComparer_1_System_Collections_IEqualityComparer_GetHashCode_m1473684243_gshared
nFd:_SortedList_GetEnumerator_m1318483481
